00000000000a9018 V DW.ref._ZTIN7testing18AssertionExceptionE
00000000000a9020 V DW.ref._ZTIN7testing8internal26GoogleTestFailureExceptionE
00000000000a9028 V DW.ref._ZTISt9exception
00000000000a9010 V DW.ref.__gxx_personality_v0
000000000004add6 W DeleteThreadLocalValue
00000000000a85b8 d _DYNAMIC
00000000000a87e8 d _GLOBAL_OFFSET_TABLE_
0000000000015165 t _GLOBAL__sub_I__ZN24GuidanceTest_Normal_Test10test_info_E
000000000004a2f7 t _GLOBAL__sub_I__ZN7testing15AssertionResultC2ERKS0_
0000000000075c7f t _GLOBAL__sub_I_main
0000000000076000 R _IO_stdin_used
                 w _ITM_deregisterTMCloneTable
                 w _ITM_registerTMCloneTable
                 U _Unwind_Resume@GCC_3.0
000000000001a19b T _Z10init_parammP12symbol_map_tP14init_setting_tjPj
000000000001c1ee T _Z11check_eventd
00000000000191b2 T _Z11get_exe_dirPci
000000000001c3f7 T _Z11userif_initdPc
000000000001cfb4 T _Z11userif_mainid
0000000000075c98 W _Z13RUN_ALL_TESTSv
0000000000018eed T _Z13std_out_tracePcz
000000000001d003 T _Z13userif_finishv
0000000000019643 T _Z14load_test_casePcPP11test_case_t
0000000000018e72 T _Z14std_trace_initPc
000000000001917d T _Z14std_trace_termv
0000000000019b54 T _Z15load_init_inputPcPP12init_input_t
00000000000193d3 T _Z15load_symbol_mapPcPmPP12symbol_map_t
000000000001bbcc T _Z15write_event_int13option_type_edPcii
000000000001903a T _Z16stderr_out_tracePcz
00000000000192b0 T _Z18get_symbol_addressPKcP12symbol_map_tPmP13symbol_type_e
000000000001bd7d T _Z18write_event_double13option_type_edPcdd
000000000001bf9e T _Z19check_condition_int13option_type_eiii
000000000001baa8 T _Z19write_event_monitorP16event_log_data_t
000000000001a9a7 T _Z20create_variable_datamP12symbol_map_tPKcP15variable_data_t
000000000001cf7d T _Z20userif_main_loop_endv
000000000001af89 T _Z21create_event_log_datamP12symbol_map_tP11event_log_tjPj
000000000001c0a0 T _Z22check_condition_double13option_type_eddd
000000000001ad47 T _Z22create_cyclic_log_datamP12symbol_map_tPPKcjPj
0000000000019e8e T _Z22load_std_out_log_inputPcPP19std_out_log_input_t
000000000001cf34 T _Z22userif_main_loop_startd
000000000001b98a T _Z22write_cyclic_log_frameid
000000000001b8d9 T _Z23write_cyclic_log_headerv
0000000000019cfe T _Z26load_time_series_log_inputPcPP23time_series_log_input_t
000000000001ab05 T _Z27create_time_series_log_datamP12symbol_map_tPPKcjPj
000000000001b78d T _Z27write_time_series_log_frameid
000000000001b6c6 T _Z28write_time_series_log_headerv
0000000000014f8f t _Z41__static_initialization_and_destruction_0ii
0000000000049c75 t _Z41__static_initialization_and_destruction_0ii
0000000000075c29 t _Z41__static_initialization_and_destruction_0ii
00000000001197a8 b _ZGVZN7testing8UnitTest11GetInstanceEvE8instance
0000000000119750 b _ZGVZN7testing8internalL13ColoredPrintfENS0_12_GLOBAL__N_110GTestColorEPKczE13in_color_mode
0000000000119710 b _ZGVZN7testing8internalL23ExecDeathTestSpawnChildEPKPciE16stack_grows_down
00000000000a52a0 d _ZL16event_log_schema
00000000000a65e0 d _ZL16event_log_schema
00000000000a5940 d _ZL16test_case_schema
00000000000a6c80 d _ZL16test_case_schema
00000000000a5ac0 d _ZL17init_input_schema
00000000000a6e00 d _ZL17init_input_schema
00000000000761c0 r _ZL17string_ptr_schema
0000000000076f60 r _ZL17string_ptr_schema
00000000000a4f00 d _ZL17symbol_map_schema
00000000000a6240 d _ZL17symbol_map_schema
00000000000a5660 d _ZL18init_fields_schema
00000000000a69a0 d _ZL18init_fields_schema
00000000000a4d20 d _ZL18symbol_data_schema
00000000000a6060 d _ZL18symbol_data_schema
00000000000a5040 d _ZL19init_setting_schema
00000000000a6380 d _ZL19init_setting_schema
00000000000a5080 d _ZL19option_type_strings
00000000000a63c0 d _ZL19option_type_strings
00000000000a4b80 d _ZL19symbol_type_strings
00000000000a5ec0 d _ZL19symbol_type_strings
00000000000a5100 d _ZL23event_log_fields_schema
00000000000a6440 d _ZL23event_log_fields_schema
00000000000a5760 d _ZL23test_case_fields_schema
00000000000a6aa0 d _ZL23test_case_fields_schema
00000000000a5980 d _ZL24init_input_fields_schema
00000000000a6cc0 d _ZL24init_input_fields_schema
00000000000a5e20 d _ZL24std_out_log_input_schema
00000000000a7160 d _ZL24std_out_log_input_schema
00000000000a4d60 d _ZL24symbol_map_fields_schema
00000000000a60a0 d _ZL24symbol_map_fields_schema
00000000000a5480 d _ZL25std_out_log_fields_schema
00000000000a67c0 d _ZL25std_out_log_fields_schema
00000000000a4be0 d _ZL25symbol_data_fields_schema
00000000000a5f20 d _ZL25symbol_data_fields_schema
00000000000a4f40 d _ZL26init_setting_fields_schema
00000000000a6280 d _ZL26init_setting_fields_schema
00000000000a5c40 d _ZL28time_series_log_input_schema
00000000000a6f80 d _ZL28time_series_log_input_schema
00000000000a52e0 d _ZL29time_series_log_fields_schema
00000000000a6620 d _ZL29time_series_log_fields_schema
00000000000a5c80 d _ZL31std_out_log_input_fields_schema
00000000000a6fc0 d _ZL31std_out_log_input_fields_schema
00000000000a5b00 d _ZL35time_series_log_input_fields_schema
00000000000a6e40 d _ZL35time_series_log_input_fields_schema
00000000000a7cc0 d _ZL6config
00000000000a7dc0 d _ZL6config
0000000000015344 W _ZN12GuidanceTest5SetUpEv
0000000000015354 W _ZN12GuidanceTest8TearDownEv
000000000001650a W _ZN12GuidanceTestC1Ev
000000000001650a W _ZN12GuidanceTestC2Ev
000000000001641e W _ZN12GuidanceTestD0Ev
00000000000163f0 W _ZN12GuidanceTestD1Ev
00000000000163f0 W _ZN12GuidanceTestD2Ev
00000000000a94f8 B _ZN24GuidanceTest_Normal_Test10test_info_E
00000000000101f6 T _ZN24GuidanceTest_Normal_Test8TestBodyEv
0000000000016538 W _ZN24GuidanceTest_Normal_TestC1Ev
0000000000016538 W _ZN24GuidanceTest_Normal_TestC2Ev
000000000001647c W _ZN24GuidanceTest_Normal_TestD0Ev
000000000001644e W _ZN24GuidanceTest_Normal_TestD1Ev
000000000001644e W _ZN24GuidanceTest_Normal_TestD2Ev
00000000000778c5 r _ZN6__pstl9execution2v1L3parE
000000000007c855 r _ZN6__pstl9execution2v1L3parE
00000000000778c4 r _ZN6__pstl9execution2v1L3seqE
000000000007c854 r _ZN6__pstl9execution2v1L3seqE
00000000000778c7 r _ZN6__pstl9execution2v1L5unseqE
000000000007c857 r _ZN6__pstl9execution2v1L5unseqE
00000000000778c6 r _ZN6__pstl9execution2v1L9par_unseqE
000000000007c856 r _ZN6__pstl9execution2v1L9par_unseqE
000000000002f602 T _ZN7testing10TestResult14RecordPropertyERKNSt7__cxx1112basic_stringIcSt11char_traitsIcESaIcEEERKNS_12TestPropertyE
000000000004c432 W _ZN7testing10TestResult16set_elapsed_timeEl
000000000002f5d4 T _ZN7testing10TestResult17AddTestPartResultERKNS_14TestPartResultE
000000000004c412 W _ZN7testing10TestResult19set_start_timestampEl
000000000002f5b0 T _ZN7testing10TestResult20ClearTestPartResultsEv
000000000002ff4e T _ZN7testing10TestResult20ValidateTestPropertyERKNSt7__cxx1112basic_stringIcSt11char_traitsIcESaIcEEERKNS_12TestPropertyE
000000000004c468 W _ZN7testing10TestResult26increment_death_test_countEv
000000000003004a T _ZN7testing10TestResult5ClearEv
000000000002f45a T _ZN7testing10TestResultC1Ev
000000000002f45a T _ZN7testing10TestResultC2Ev
000000000002f4bc T _ZN7testing10TestResultD1Ev
000000000002f4bc T _ZN7testing10TestResultD2Ev
000000000002e1ad T _ZN7testing11IsSubstringEPKcS1_PKwS3_
000000000002e2fd T _ZN7testing11IsSubstringEPKcS1_RKNSt7__cxx1112basic_stringIcSt11char_traitsIcESaIcEEES9_
000000000002e3dd T _ZN7testing11IsSubstringEPKcS1_RKNSt7__cxx1112basic_stringIwSt11char_traitsIwESaIwEEES9_
000000000002e13d T _ZN7testing11IsSubstringEPKcS1_S1_S1_
0000000000045548 T _ZN7testing11ScopedTrace9PushTraceEPKciNSt7__cxx1112basic_stringIcSt11char_traitsIcESaIcEEE
0000000000045602 T _ZN7testing11ScopedTraceD1Ev
0000000000045602 T _ZN7testing11ScopedTraceD2Ev
00000000000463aa t _ZN7testing12RegisterTestIJEZNS_8internal23InsertSyntheticTestCaseERKNSt7__cxx1112basic_stringIcSt11char_traitsIcESaIcEEENS1_12CodeLocationEbEUlvE_EEPNS_8TestInfoEPKcSF_SF_SF_SF_iT0_
00000000000466ca t _ZN7testing12RegisterTestIJEZNS_8internal34TypeParameterizedTestSuiteRegistry22CheckForInstantiationsEvEUlvE_EEPNS_8TestInfoEPKcS7_S7_S7_S7_iT0_
000000000004c374 W _ZN7testing12TestProperty8SetValueERKNSt7__cxx1112basic_stringIcSt11char_traitsIcESaIcEEE
0000000000073730 W _ZN7testing12TestPropertyC1EOS0_
000000000004c2ca W _ZN7testing12TestPropertyC1ERKNSt7__cxx1112basic_stringIcSt11char_traitsIcESaIcEEES8_
0000000000066abc W _ZN7testing12TestPropertyC1ERKS0_
0000000000073730 W _ZN7testing12TestPropertyC2EOS0_
000000000004c2ca W _ZN7testing12TestPropertyC2ERKNSt7__cxx1112basic_stringIcSt11char_traitsIcESaIcEEES8_
0000000000066abc W _ZN7testing12TestPropertyC2ERKS0_
00000000000508c4 W _ZN7testing12TestPropertyD1Ev
00000000000508c4 W _ZN7testing12TestPropertyD2Ev
0000000000046de4 t _ZN7testing12_GLOBAL__N_115IsSubstringImplINSt7__cxx1112basic_stringIcSt11char_traitsIcESaIcEEEEENS_15AssertionResultEbPKcSA_RKT_SD_
0000000000047015 t _ZN7testing12_GLOBAL__N_115IsSubstringImplINSt7__cxx1112basic_stringIwSt11char_traitsIwESaIwEEEEENS_15AssertionResultEbPKcSA_RKT_SD_
0000000000046976 t _ZN7testing12_GLOBAL__N_115IsSubstringImplIPKcEENS_15AssertionResultEbS3_S3_RKT_S7_
0000000000046bad t _ZN7testing12_GLOBAL__N_115IsSubstringImplIPKwEENS_15AssertionResultEbPKcS6_RKT_S9_
000000000002e0a9 t _ZN7testing12_GLOBAL__N_115IsSubstringPredEPKcS2_
000000000002e0f3 t _ZN7testing12_GLOBAL__N_115IsSubstringPredEPKwS2_
0000000000047e15 t _ZN7testing12_GLOBAL__N_115IsSubstringPredINSt7__cxx1112basic_stringIcSt11char_traitsIcESaIcEEEEEbRKT_SA_
0000000000047e4a t _ZN7testing12_GLOBAL__N_115IsSubstringPredINSt7__cxx1112basic_stringIwSt11char_traitsIwESaIwEEEEEbRKT_SA_
0000000000025f94 t _ZN7testing12_GLOBAL__N_124PrintBytesInObjectToImplEPKhmPSo
0000000000025e9e t _ZN7testing12_GLOBAL__N_126PrintByteSegmentInObjectToEPKhmmPSo
0000000000047384 t _ZN7testing12_GLOBAL__N_18ToChar32IDiEEDiT_
00000000000459af t _ZN7testing12_GLOBAL__N_18ToChar32IDsEEDiT_
0000000000047ff8 t _ZN7testing12_GLOBAL__N_18ToChar32IaEEDiT_
0000000000045999 t _ZN7testing12_GLOBAL__N_18ToChar32IcEEDiT_
0000000000047fe5 t _ZN7testing12_GLOBAL__N_18ToChar32IhEEDiT_
00000000000459c3 t _ZN7testing12_GLOBAL__N_18ToChar32IwEEDiT_
00000000000579c5 W _ZN7testing13ArrayAsVectorILm10EEESt6vectorINSt7__cxx1112basic_stringIcSt11char_traitsIcESaIcEEESaIS7_EERAT__KPKc
0000000000057929 W _ZN7testing13ArrayAsVectorILm8EEESt6vectorINSt7__cxx1112basic_stringIcSt11char_traitsIcESaIcEEESaIS7_EERAT__KPKc
00000000000516a3 W _ZN7testing13PrintToStringIPKcEENSt7__cxx1112basic_stringIcSt11char_traitsIcESaIcEEERKT_
000000000005176d W _ZN7testing13PrintToStringIPKwEENSt7__cxx1112basic_stringIcSt11char_traitsIcESaIcEEERKT_
0000000000016208 W _ZN7testing13PrintToStringIiEENSt7__cxx1112basic_stringIcSt11char_traitsIcESaIcEEERKT_
000000000001d3b2 T _ZN7testing14ExitedWithCodeC1Ei
000000000001d3b2 T _ZN7testing14ExitedWithCodeC2Ei
0000000000044fd6 T _ZN7testing14InitGoogleTestEPiPPc
0000000000045000 T _ZN7testing14InitGoogleTestEPiPPw
000000000004502a T _ZN7testing14InitGoogleTestEv
000000000002e28d T _ZN7testing14IsNotSubstringEPKcS1_PKwS3_
000000000002e36d T _ZN7testing14IsNotSubstringEPKcS1_RKNSt7__cxx1112basic_stringIcSt11char_traitsIcESaIcEEES9_
000000000002e44d T _ZN7testing14IsNotSubstringEPKcS1_RKNSt7__cxx1112basic_stringIwSt11char_traitsIwESaIwEEES9_
000000000002e21d T _ZN7testing14IsNotSubstringEPKcS1_S1_S1_
000000000001d408 T _ZN7testing14KilledBySignalC1Ei
000000000001d408 T _ZN7testing14KilledBySignalC2Ei
0000000000026c1a T _ZN7testing14TestPartResult14ExtractSummaryB5cxx11EPKc
000000000004be3c W _ZN7testing14TestPartResultC1ENS0_4TypeEPKciS3_
0000000000073252 W _ZN7testing14TestPartResultC1EOS0_
0000000000063588 W _ZN7testing14TestPartResultC1ERKS0_
000000000004be3c W _ZN7testing14TestPartResultC2ENS0_4TypeEPKciS3_
0000000000073252 W _ZN7testing14TestPartResultC2EOS0_
0000000000063588 W _ZN7testing14TestPartResultC2ERKS0_
0000000000050274 W _ZN7testing14TestPartResultD1Ev
0000000000050274 W _ZN7testing14TestPartResultD2Ev
000000000004b42e W _ZN7testing15AssertionResult13AppendMessageERKNS_7MessageE
000000000001d11c T _ZN7testing15AssertionResult4swapERS0_
000000000001d06a T _ZN7testing15AssertionResultC1ERKS0_
0000000000051f56 W _ZN7testing15AssertionResultC1IbEERKT_PNSt9enable_ifIXntsrSt14is_convertibleIS2_S0_E5valueEvE4typeE
000000000001d06a T _ZN7testing15AssertionResultC2ERKS0_
0000000000051f56 W _ZN7testing15AssertionResultC2IbEERKT_PNSt9enable_ifIXntsrSt14is_convertibleIS2_S0_E5valueEvE4typeE
0000000000015320 W _ZN7testing15AssertionResultD1Ev
0000000000015320 W _ZN7testing15AssertionResultD2Ev
00000000000568f2 W _ZN7testing15AssertionResultlsIA100_cEERS0_RKT_
0000000000056992 W _ZN7testing15AssertionResultlsIA106_cEERS0_RKT_
0000000000054e04 W _ZN7testing15AssertionResultlsIA11_cEERS0_RKT_
000000000005723e W _ZN7testing15AssertionResultlsIA12_cEERS0_RKT_
00000000000572de W _ZN7testing15AssertionResultlsIA13_cEERS0_RKT_
0000000000054fe4 W _ZN7testing15AssertionResultlsIA14_cEERS0_RKT_
00000000000567b2 W _ZN7testing15AssertionResultlsIA15_cEERS0_RKT_
000000000005f286 W _ZN7testing15AssertionResultlsIA16_cEERS0_RKT_
0000000000056a32 W _ZN7testing15AssertionResultlsIA17_cEERS0_RKT_
00000000000563f2 W _ZN7testing15AssertionResultlsIA24_cEERS0_RKT_
0000000000056852 W _ZN7testing15AssertionResultlsIA27_cEERS0_RKT_
000000000005737e W _ZN7testing15AssertionResultlsIA29_cEERS0_RKT_
0000000000054ea4 W _ZN7testing15AssertionResultlsIA2_cEERS0_RKT_
0000000000055084 W _ZN7testing15AssertionResultlsIA3_cEERS0_RKT_
00000000000565d2 W _ZN7testing15AssertionResultlsIA5_cEERS0_RKT_
0000000000056532 W _ZN7testing15AssertionResultlsIA6_cEERS0_RKT_
0000000000056ad2 W _ZN7testing15AssertionResultlsIA7_cEERS0_RKT_
0000000000056712 W _ZN7testing15AssertionResultlsIA9_cEERS0_RKT_
0000000000054f44 W _ZN7testing15AssertionResultlsINS_14TestPartResultEEERS0_RKT_
000000000005202e W _ZN7testing15AssertionResultlsINS_7MessageEEERS0_RKT_
0000000000051f8e W _ZN7testing15AssertionResultlsINSt7__cxx1112basic_stringIcSt11char_traitsIcESaIcEEEEERS0_RKT_
000000000005f3c8 W _ZN7testing15AssertionResultlsINSt7__cxx1112basic_stringIwSt11char_traitsIwESaIwEEEEERS0_RKT_
0000000000056492 W _ZN7testing15AssertionResultlsIPKcEERS0_RKT_
000000000005f326 W _ZN7testing15AssertionResultlsIPKwEERS0_RKT_
0000000000056672 W _ZN7testing15AssertionResultlsIdEERS0_RKT_
000000000001d2cf T _ZN7testing16AssertionFailureERKNS_7MessageE
000000000001d27a T _ZN7testing16AssertionFailureEv
000000000001d225 T _ZN7testing16AssertionSuccessEv
0000000000119680 B _ZN7testing17FLAGS_gtest_briefE
0000000000119600 B _ZN7testing17FLAGS_gtest_colorB5cxx11E
000000000004ca6e W _ZN7testing17TestEventListener13OnTestCaseEndERKNS_9TestSuiteE
000000000004ca46 W _ZN7testing17TestEventListener14OnTestDisabledERKNS_8TestInfoE
000000000004ca5a W _ZN7testing17TestEventListener14OnTestSuiteEndERKNS_9TestSuiteE
000000000004ca32 W _ZN7testing17TestEventListener15OnTestCaseStartERKNS_9TestSuiteE
000000000004ca1e W _ZN7testing17TestEventListener16OnTestSuiteStartERKNS_9TestSuiteE
000000000004de16 W _ZN7testing17TestEventListenerC1Ev
000000000004de16 W _ZN7testing17TestEventListenerC2Ev
000000000004de52 W _ZN7testing17TestEventListenerD0Ev
000000000004de34 W _ZN7testing17TestEventListenerD1Ev
000000000004de34 W _ZN7testing17TestEventListenerD2Ev
0000000000119620 B _ZN7testing18FLAGS_gtest_filterB5cxx11E
0000000000119660 B _ZN7testing18FLAGS_gtest_outputB5cxx11E
0000000000119688 B _ZN7testing18FLAGS_gtest_repeatE
00000000000400a0 T _ZN7testing18TestEventListeners22SetDefaultXmlGeneratorEPNS_17TestEventListenerE
000000000004002a T _ZN7testing18TestEventListeners23SetDefaultResultPrinterEPNS_17TestEventListenerE
0000000000040138 T _ZN7testing18TestEventListeners23SuppressEventForwardingEb
000000000003ff84 T _ZN7testing18TestEventListeners6AppendEPNS_17TestEventListenerE
000000000003ffb2 T _ZN7testing18TestEventListeners7ReleaseEPNS_17TestEventListenerE
0000000000040014 T _ZN7testing18TestEventListeners8repeaterEv
000000000003ff0a T _ZN7testing18TestEventListenersC1Ev
000000000003ff0a T _ZN7testing18TestEventListenersC2Ev
000000000003ff56 T _ZN7testing18TestEventListenersD1Ev
000000000003ff56 T _ZN7testing18TestEventListenersD2Ev
000000000011968e B _ZN7testing19FLAGS_gtest_shuffleE
000000000004bbf4 W _ZN7testing19MatchResultListener6streamEv
000000000004bbc6 W _ZN7testing19MatchResultListenerC1EPSo
000000000004bbc6 W _ZN7testing19MatchResultListenerC2EPSo
000000000004bc28 W _ZN7testing19MatchResultListenerD0Ev
000000000004bc0a W _ZN7testing19MatchResultListenerD1Ev
000000000004bc0a W _ZN7testing19MatchResultListenerD2Ev
0000000000026ea8 T _ZN7testing19TestPartResultArray6AppendERKNS_14TestPartResultE
00000000001196e0 B _ZN7testing20FLAGS_gtest_flagfileB5cxx11E
00000000001195e1 B _ZN7testing21FLAGS_gtest_fail_fastE
000000000004cafc W _ZN7testing22EmptyTestEventListener11OnTestStartERKNS_8TestInfoE
000000000004cb60 W _ZN7testing22EmptyTestEventListener13OnTestCaseEndERKNS_9TestSuiteE
000000000004cb10 W _ZN7testing22EmptyTestEventListener14OnTestDisabledERKNS_8TestInfoE
000000000004cb4c W _ZN7testing22EmptyTestEventListener14OnTestSuiteEndERKNS_9TestSuiteE
000000000004cae8 W _ZN7testing22EmptyTestEventListener15OnTestCaseStartERKNS_9TestSuiteE
000000000004cb24 W _ZN7testing22EmptyTestEventListener16OnTestPartResultERKNS_14TestPartResultE
000000000004cbb2 W _ZN7testing22EmptyTestEventListener16OnTestProgramEndERKNS_8UnitTestE
000000000004cad4 W _ZN7testing22EmptyTestEventListener16OnTestSuiteStartERKNS_9TestSuiteE
000000000004cb9c W _ZN7testing22EmptyTestEventListener18OnTestIterationEndERKNS_8UnitTestEi
000000000004ca82 W _ZN7testing22EmptyTestEventListener18OnTestProgramStartERKNS_8UnitTestE
000000000004ca96 W _ZN7testing22EmptyTestEventListener20OnTestIterationStartERKNS_8UnitTestEi
000000000004cac0 W _ZN7testing22EmptyTestEventListener22OnEnvironmentsSetUpEndERKNS_8UnitTestE
000000000004caac W _ZN7testing22EmptyTestEventListener24OnEnvironmentsSetUpStartERKNS_8UnitTestE
000000000004cb88 W _ZN7testing22EmptyTestEventListener25OnEnvironmentsTearDownEndERKNS_8UnitTestE
000000000004cb74 W _ZN7testing22EmptyTestEventListener27OnEnvironmentsTearDownStartERKNS_8UnitTestE
000000000004cb38 W _ZN7testing22EmptyTestEventListener9OnTestEndERKNS_8TestInfoE
000000000004de82 W _ZN7testing22EmptyTestEventListenerC1Ev
000000000004de82 W _ZN7testing22EmptyTestEventListenerC2Ev
000000000004dede W _ZN7testing22EmptyTestEventListenerD0Ev
000000000004deb0 W _ZN7testing22EmptyTestEventListenerD1Ev
000000000004deb0 W _ZN7testing22EmptyTestEventListenerD2Ev
0000000000119641 B _ZN7testing22FLAGS_gtest_list_testsE
0000000000119681 B _ZN7testing22FLAGS_gtest_print_timeE
0000000000119682 B _ZN7testing22FLAGS_gtest_print_utf8E
0000000000119684 B _ZN7testing23FLAGS_gtest_random_seedE
00000000000519f0 W _ZN7testing25MatcherDescriberInterfaceC1Ev
00000000000519f0 W _ZN7testing25MatcherDescriberInterfaceC2Ev
0000000000051a2c W _ZN7testing25MatcherDescriberInterfaceD0Ev
0000000000051a0e W _ZN7testing25MatcherDescriberInterfaceD1Ev
0000000000051a0e W _ZN7testing25MatcherDescriberInterfaceD2Ev
00000000001195e3 B _ZN7testing28FLAGS_gtest_break_on_failureE
00000000001195e4 B _ZN7testing28FLAGS_gtest_catch_exceptionsE
0000000000119560 B _ZN7testing28FLAGS_gtest_death_test_styleB5cxx11E
00000000001196a0 B _ZN7testing28FLAGS_gtest_stream_result_toB5cxx11E
00000000001196c0 B _ZN7testing28FLAGS_gtest_throw_on_failureE
0000000000119690 B _ZN7testing29FLAGS_gtest_stack_trace_depthE
000000000005344d W _ZN7testing2EqINSt7__cxx1112basic_stringIcSt11char_traitsIcESaIcEEEEENS_8internal9EqMatcherIT_EES9_
0000000000119580 B _ZN7testing31FLAGS_gtest_death_test_use_forkE
000000000004fa6c W _ZN7testing31TestPartResultReporterInterfaceC1Ev
000000000004fa6c W _ZN7testing31TestPartResultReporterInterfaceC2Ev
000000000004faa8 W _ZN7testing31TestPartResultReporterInterfaceD0Ev
000000000004fa8a W _ZN7testing31TestPartResultReporterInterfaceD1Ev
000000000004fa8a W _ZN7testing31TestPartResultReporterInterfaceD2Ev
000000000002a5fa T _ZN7testing32ScopedFakeTestPartResultReporter20ReportTestPartResultERKNS_14TestPartResultE
000000000002a4e0 T _ZN7testing32ScopedFakeTestPartResultReporter4InitEv
000000000002a466 T _ZN7testing32ScopedFakeTestPartResultReporterC1ENS0_13InterceptModeEPNS_19TestPartResultArrayE
000000000002a3ee T _ZN7testing32ScopedFakeTestPartResultReporterC1EPNS_19TestPartResultArrayE
000000000002a466 T _ZN7testing32ScopedFakeTestPartResultReporterC2ENS0_13InterceptModeEPNS_19TestPartResultArrayE
000000000002a3ee T _ZN7testing32ScopedFakeTestPartResultReporterC2EPNS_19TestPartResultArrayE
000000000002a5ca T _ZN7testing32ScopedFakeTestPartResultReporterD0Ev
000000000002a558 T _ZN7testing32ScopedFakeTestPartResultReporterD1Ev
000000000002a558 T _ZN7testing32ScopedFakeTestPartResultReporterD2Ev
00000000001195e2 B _ZN7testing35FLAGS_gtest_also_run_disabled_testsE
00000000001195a0 B _ZN7testing35FLAGS_gtest_internal_run_death_testB5cxx11E
000000000011968d B _ZN7testing38FLAGS_gtest_show_internal_stack_framesE
0000000000119640 B _ZN7testing42FLAGS_gtest_install_failure_signal_handlerE
000000000011968c B _ZN7testing48FLAGS_gtest_recreate_environments_when_repeatingE
000000000004c298 W _ZN7testing4Test11DeleteSelf_Ev
0000000000015300 W _ZN7testing4Test13SetUpTestCaseEv
000000000003033a T _ZN7testing4Test14RecordPropertyERKNSt7__cxx1112basic_stringIcSt11char_traitsIcESaIcEEES8_
00000000000152df W _ZN7testing4Test14SetUpTestSuiteEv
0000000000030c18 T _ZN7testing4Test15HasFatalFailureEv
00000000000152f5 W _ZN7testing4Test16TearDownTestCaseEv
00000000000152ea W _ZN7testing4Test17TearDownTestSuiteEv
0000000000030c38 T _ZN7testing4Test18HasNonfatalFailureEv
000000000003044a T _ZN7testing4Test19HasSameFixtureClassEv
0000000000030ab0 T _ZN7testing4Test3RunEv
000000000003031a T _ZN7testing4Test5SetUpEv
000000000001530c W _ZN7testing4Test5SetupEv
000000000003032a T _ZN7testing4Test8TearDownEv
0000000000030c58 T _ZN7testing4Test9IsSkippedEv
0000000000030244 T _ZN7testing4TestC1Ev
0000000000030244 T _ZN7testing4TestC2Ev
00000000000302ea T _ZN7testing4TestD0Ev
00000000000302b8 T _ZN7testing4TestD1Ev
00000000000302b8 T _ZN7testing4TestD2Ev
0000000000045479 T _ZN7testing6SrcDirB5cxx11Ev
000000000002daa2 T _ZN7testing7FloatLEEPKcS1_ff
0000000000023bc0 T _ZN7testing7MatcherINSt7__cxx1112basic_stringIcSt11char_traitsIcESaIcEEEEC1EPKc
0000000000023a80 T _ZN7testing7MatcherINSt7__cxx1112basic_stringIcSt11char_traitsIcESaIcEEEEC1ERKS6_
0000000000053568 W _ZN7testing7MatcherINSt7__cxx1112basic_stringIcSt11char_traitsIcESaIcEEEEC1INS_8internal9EqMatcherIS6_EEvEEOT_
0000000000023bc0 T _ZN7testing7MatcherINSt7__cxx1112basic_stringIcSt11char_traitsIcESaIcEEEEC2EPKc
0000000000023a80 T _ZN7testing7MatcherINSt7__cxx1112basic_stringIcSt11char_traitsIcESaIcEEEEC2ERKS6_
0000000000053568 W _ZN7testing7MatcherINSt7__cxx1112basic_stringIcSt11char_traitsIcESaIcEEEEC2INS_8internal9EqMatcherIS6_EEvEEOT_
00000000000750f4 W _ZN7testing7MatcherINSt7__cxx1112basic_stringIcSt11char_traitsIcESaIcEEEED0Ev
00000000000750c6 W _ZN7testing7MatcherINSt7__cxx1112basic_stringIcSt11char_traitsIcESaIcEEEED1Ev
00000000000750c6 W _ZN7testing7MatcherINSt7__cxx1112basic_stringIcSt11char_traitsIcESaIcEEEED2Ev
000000000004f602 W _ZN7testing7MatcherINSt7__cxx1112basic_stringIcSt11char_traitsIcESaIcEEEEaSEOS7_
000000000004bd26 W _ZN7testing7MatcherIRKNSt7__cxx1112basic_stringIcSt11char_traitsIcESaIcEEEEC1EOS9_
000000000002390c T _ZN7testing7MatcherIRKNSt7__cxx1112basic_stringIcSt11char_traitsIcESaIcEEEEC1EPKc
00000000000237cc T _ZN7testing7MatcherIRKNSt7__cxx1112basic_stringIcSt11char_traitsIcESaIcEEEEC1ES8_
000000000005347a W _ZN7testing7MatcherIRKNSt7__cxx1112basic_stringIcSt11char_traitsIcESaIcEEEEC1INS_8internal9EqMatcherIS6_EEvEEOT_
000000000004bd26 W _ZN7testing7MatcherIRKNSt7__cxx1112basic_stringIcSt11char_traitsIcESaIcEEEEC2EOS9_
000000000002390c T _ZN7testing7MatcherIRKNSt7__cxx1112basic_stringIcSt11char_traitsIcESaIcEEEEC2EPKc
00000000000237cc T _ZN7testing7MatcherIRKNSt7__cxx1112basic_stringIcSt11char_traitsIcESaIcEEEEC2ES8_
000000000005347a W _ZN7testing7MatcherIRKNSt7__cxx1112basic_stringIcSt11char_traitsIcESaIcEEEEC2INS_8internal9EqMatcherIS6_EEvEEOT_
0000000000075152 W _ZN7testing7MatcherIRKNSt7__cxx1112basic_stringIcSt11char_traitsIcESaIcEEEED0Ev
0000000000075124 W _ZN7testing7MatcherIRKNSt7__cxx1112basic_stringIcSt11char_traitsIcESaIcEEEED1Ev
0000000000075124 W _ZN7testing7MatcherIRKNSt7__cxx1112basic_stringIcSt11char_traitsIcESaIcEEEED2Ev
000000000004f5d4 W _ZN7testing7MatcherIRKNSt7__cxx1112basic_stringIcSt11char_traitsIcESaIcEEEEaSEOS9_
0000000000023e74 T _ZN7testing7MatcherIRKSt17basic_string_viewIcSt11char_traitsIcEEEC1EPKc
0000000000023d34 T _ZN7testing7MatcherIRKSt17basic_string_viewIcSt11char_traitsIcEEEC1ERKNSt7__cxx1112basic_stringIcS3_SaIcEEE
0000000000023fe8 T _ZN7testing7MatcherIRKSt17basic_string_viewIcSt11char_traitsIcEEEC1ES4_
0000000000053656 W _ZN7testing7MatcherIRKSt17basic_string_viewIcSt11char_traitsIcEEEC1INS_8internal9EqMatcherINSt7__cxx1112basic_stringIcS3_SaIcEEEEEvEEOT_
0000000000023e74 T _ZN7testing7MatcherIRKSt17basic_string_viewIcSt11char_traitsIcEEEC2EPKc
0000000000023d34 T _ZN7testing7MatcherIRKSt17basic_string_viewIcSt11char_traitsIcEEEC2ERKNSt7__cxx1112basic_stringIcS3_SaIcEEE
0000000000023fe8 T _ZN7testing7MatcherIRKSt17basic_string_viewIcSt11char_traitsIcEEEC2ES4_
0000000000053656 W _ZN7testing7MatcherIRKSt17basic_string_viewIcSt11char_traitsIcEEEC2INS_8internal9EqMatcherINSt7__cxx1112basic_stringIcS3_SaIcEEEEEvEEOT_
0000000000075096 W _ZN7testing7MatcherIRKSt17basic_string_viewIcSt11char_traitsIcEEED0Ev
0000000000075068 W _ZN7testing7MatcherIRKSt17basic_string_viewIcSt11char_traitsIcEEED1Ev
0000000000075068 W _ZN7testing7MatcherIRKSt17basic_string_viewIcSt11char_traitsIcEEED2Ev
000000000004f630 W _ZN7testing7MatcherIRKSt17basic_string_viewIcSt11char_traitsIcEEEaSEOS7_
00000000000242b0 T _ZN7testing7MatcherISt17basic_string_viewIcSt11char_traitsIcEEEC1EPKc
0000000000024170 T _ZN7testing7MatcherISt17basic_string_viewIcSt11char_traitsIcEEEC1ERKNSt7__cxx1112basic_stringIcS3_SaIcEEE
0000000000024424 T _ZN7testing7MatcherISt17basic_string_viewIcSt11char_traitsIcEEEC1ES4_
0000000000053744 W _ZN7testing7MatcherISt17basic_string_viewIcSt11char_traitsIcEEEC1INS_8internal9EqMatcherINSt7__cxx1112basic_stringIcS3_SaIcEEEEEvEEOT_
00000000000242b0 T _ZN7testing7MatcherISt17basic_string_viewIcSt11char_traitsIcEEEC2EPKc
0000000000024170 T _ZN7testing7MatcherISt17basic_string_viewIcSt11char_traitsIcEEEC2ERKNSt7__cxx1112basic_stringIcS3_SaIcEEE
0000000000024424 T _ZN7testing7MatcherISt17basic_string_viewIcSt11char_traitsIcEEEC2ES4_
0000000000053744 W _ZN7testing7MatcherISt17basic_string_viewIcSt11char_traitsIcEEEC2INS_8internal9EqMatcherINSt7__cxx1112basic_stringIcS3_SaIcEEEEEvEEOT_
0000000000075038 W _ZN7testing7MatcherISt17basic_string_viewIcSt11char_traitsIcEEED0Ev
000000000007500a W _ZN7testing7MatcherISt17basic_string_viewIcSt11char_traitsIcEEED1Ev
000000000007500a W _ZN7testing7MatcherISt17basic_string_viewIcSt11char_traitsIcEEED2Ev
000000000004f65e W _ZN7testing7MatcherISt17basic_string_viewIcSt11char_traitsIcEEEaSEOS5_
000000000004b240 W _ZN7testing7MessageC1ERKS0_
000000000002b4e2 T _ZN7testing7MessageC1Ev
000000000004b240 W _ZN7testing7MessageC2ERKS0_
000000000002b4e2 T _ZN7testing7MessageC2Ev
0000000000015224 W _ZN7testing7MessageD1Ev
0000000000015224 W _ZN7testing7MessageD2Ev
000000000002b586 T _ZN7testing7MessagelsEPKw
000000000002b61c T _ZN7testing7MessagelsEPw
000000000002b6b2 T _ZN7testing7MessagelsERKNSt7__cxx1112basic_stringIwSt11char_traitsIwESaIwEEE
000000000005f14e W _ZN7testing7MessagelsIA100_cEERS0_RKT_
000000000005f188 W _ZN7testing7MessagelsIA106_cEERS0_RKT_
0000000000052712 W _ZN7testing7MessagelsIA10_cEERS0_RKT_
0000000000054d90 W _ZN7testing7MessagelsIA11_cEERS0_RKT_
0000000000052664 W _ZN7testing7MessagelsIA12_cEERS0_RKT_
0000000000052882 W _ZN7testing7MessagelsIA13_cEERS0_RKT_
000000000005da76 W _ZN7testing7MessagelsIA14_cEERS0_RKT_
00000000000525b6 W _ZN7testing7MessagelsIA15_cEERS0_RKT_
00000000000563b8 W _ZN7testing7MessagelsIA16_cEERS0_RKT_
000000000005a37c W _ZN7testing7MessagelsIA17_cEERS0_RKT_
0000000000057b16 W _ZN7testing7MessagelsIA18_cEERS0_RKT_
000000000005a3b6 W _ZN7testing7MessagelsIA19_cEERS0_RKT_
0000000000053c4a W _ZN7testing7MessagelsIA20_cEERS0_RKT_
0000000000053860 W _ZN7testing7MessagelsIA21_cEERS0_RKT_
000000000005257c W _ZN7testing7MessagelsIA22_cEERS0_RKT_
000000000005f09c W _ZN7testing7MessagelsIA24_cEERS0_RKT_
0000000000052836 W _ZN7testing7MessagelsIA256_cEERS0_RKT_
0000000000052508 W _ZN7testing7MessagelsIA25_cEERS0_RKT_
000000000005f114 W _ZN7testing7MessagelsIA27_cEERS0_RKT_
00000000000528bc W _ZN7testing7MessagelsIA28_cEERS0_RKT_
000000000005f24c W _ZN7testing7MessagelsIA29_cEERS0_RKT_
000000000005269e W _ZN7testing7MessagelsIA2_cEERS0_RKT_
0000000000057da0 W _ZN7testing7MessagelsIA30_cEERS0_RKT_
0000000000057dda W _ZN7testing7MessagelsIA32_cEERS0_RKT_
0000000000052930 W _ZN7testing7MessagelsIA33_cEERS0_RKT_
00000000000544be W _ZN7testing7MessagelsIA35_cEERS0_RKT_
00000000000581ae W _ZN7testing7MessagelsIA38_cEERS0_RKT_
00000000000526d8 W _ZN7testing7MessagelsIA39_cEERS0_RKT_
0000000000054582 W _ZN7testing7MessagelsIA3_cEERS0_RKT_
000000000005262a W _ZN7testing7MessagelsIA40_cEERS0_RKT_
000000000005a342 W _ZN7testing7MessagelsIA41_cEERS0_RKT_
000000000005296a W _ZN7testing7MessagelsIA47_cEERS0_RKT_
000000000005a42a W _ZN7testing7MessagelsIA48_cEERS0_RKT_
0000000000053c10 W _ZN7testing7MessagelsIA4_cEERS0_RKT_
0000000000053bd6 W _ZN7testing7MessagelsIA50_cEERS0_RKT_
0000000000052b7c W _ZN7testing7MessagelsIA51_cEERS0_RKT_
000000000005389a W _ZN7testing7MessagelsIA52_cEERS0_RKT_
00000000000525f0 W _ZN7testing7MessagelsIA53_cEERS0_RKT_
0000000000057a62 W _ZN7testing7MessagelsIA5_cEERS0_RKT_
0000000000057d66 W _ZN7testing7MessagelsIA60_cEERS0_RKT_
00000000000527c2 W _ZN7testing7MessagelsIA61_cEERS0_RKT_
00000000000527fc W _ZN7testing7MessagelsIA62_cEERS0_RKT_
0000000000057e14 W _ZN7testing7MessagelsIA63_cEERS0_RKT_
0000000000057d2c W _ZN7testing7MessagelsIA65_cEERS0_RKT_
00000000000581e8 W _ZN7testing7MessagelsIA68_cEERS0_RKT_
0000000000053826 W _ZN7testing7MessagelsIA6_cEERS0_RKT_
00000000000537ec W _ZN7testing7MessagelsIA7_cEERS0_RKT_
00000000000590d4 W _ZN7testing7MessagelsIA8_cEERS0_RKT_
0000000000052788 W _ZN7testing7MessagelsIA93_cEERS0_RKT_
000000000005a3f0 W _ZN7testing7MessagelsIA9_cEERS0_RKT_
0000000000051310 W _ZN7testing7MessagelsIKcEERS0_RKPT_
0000000000054dca W _ZN7testing7MessagelsINS_14TestPartResultEEERS0_RKT_
00000000000528f6 W _ZN7testing7MessagelsINSt7__cxx1112basic_stringIcSt11char_traitsIcESaIcEEEEERS0_RKT_
0000000000053b9c W _ZN7testing7MessagelsIS0_EERS0_RKT_
0000000000068e32 W _ZN7testing7MessagelsIcEERS0_RKPT_
0000000000053b5e W _ZN7testing7MessagelsIcEERS0_RKT_
000000000005f0d6 W _ZN7testing7MessagelsIdEERS0_RKT_
0000000000052542 W _ZN7testing7MessagelsIiEERS0_RKT_
000000000005bc38 W _ZN7testing7MessagelsIlEERS0_RKT_
000000000005274c W _ZN7testing7MessagelsImEERS0_RKT_
00000000000452d4 T _ZN7testing7TempDirB5cxx11Ev
000000000002db13 T _ZN7testing8DoubleLEEPKcS1_dd
000000000004c646 W _ZN7testing8TestInfo15ClearTestResultEPS0_
000000000004c622 W _ZN7testing8TestInfo26increment_death_test_countEv
0000000000031544 T _ZN7testing8TestInfo3RunEv
00000000000317a0 T _ZN7testing8TestInfo4SkipEv
0000000000030c78 T _ZN7testing8TestInfoC1ERKNSt7__cxx1112basic_stringIcSt11char_traitsIcESaIcEEES8_PKcSA_NS_8internal12CodeLocationEPKvPNSB_15TestFactoryBaseE
0000000000030c78 T _ZN7testing8TestInfoC2ERKNSt7__cxx1112basic_stringIcSt11char_traitsIcESaIcEEES8_PKcSA_NS_8internal12CodeLocationEPKvPNSB_15TestFactoryBaseE
0000000000030f7a T _ZN7testing8TestInfoD1Ev
0000000000030f7a T _ZN7testing8TestInfoD2Ev
000000000004016c T _ZN7testing8UnitTest11GetInstanceEv
0000000000040fde T _ZN7testing8UnitTest13PopGTestTraceEv
00000000000405f4 T _ZN7testing8UnitTest14AddEnvironmentEPNS_11EnvironmentE
0000000000040f3a T _ZN7testing8UnitTest14PushGTestTraceERKNS_8internal9TraceInfoE
0000000000040a98 T _ZN7testing8UnitTest14RecordPropertyERKNSt7__cxx1112basic_stringIcSt11char_traitsIcESaIcEEES8_
0000000000040640 T _ZN7testing8UnitTest17AddTestPartResultENS_14TestPartResult4TypeEPKciRKNSt7__cxx1112basic_stringIcSt11char_traitsIcESaIcEEESC_
000000000004059c T _ZN7testing8UnitTest19GetMutableTestSuiteEi
0000000000040dfe T _ZN7testing8UnitTest27parameterized_test_registryEv
0000000000040b36 T _ZN7testing8UnitTest3RunEv
000000000004cbc6 W _ZN7testing8UnitTest4implEv
00000000000405ce T _ZN7testing8UnitTest9listenersEv
0000000000040e20 T _ZN7testing8UnitTestC1Ev
0000000000040e20 T _ZN7testing8UnitTestC2Ev
0000000000040f0a T _ZN7testing8UnitTestD0Ev
0000000000040ebc T _ZN7testing8UnitTestD1Ev
0000000000040ebc T _ZN7testing8UnitTestD2Ev
0000000000043fee T _ZN7testing8internal10AlwaysTrueEv
000000000002572e T _ZN7testing8internal10ParseInt32ERKNS_7MessageEPKcPi
000000000004402f T _ZN7testing8internal10SkipPrefixEPKcPS2_
000000000004b961 W _ZN7testing8internal11AlwaysFalseEv
0000000000050117 W _ZN7testing8internal11ChopLowBitsEPji
0000000000015c06 W _ZN7testing8internal11CmpHelperEQIiiEENS_15AssertionResultEPKcS4_RKT_RKT0_
0000000000025273 T _ZN7testing8internal11GetFileSizeEP8_IO_FILE
000000000004a9db W _ZN7testing8internal11LogToStderrEv
000000000006f1ec W _ZN7testing8internal11MatcherBaseINSt7__cxx1112basic_stringIcSt11char_traitsIcESaIcEEEE11ValuePolicyINS0_9EqMatcherIS7_EELb0EE3GetERKS8_
0000000000069447 W _ZN7testing8internal11MatcherBaseINSt7__cxx1112basic_stringIcSt11char_traitsIcESaIcEEEE11ValuePolicyINS0_9EqMatcherIS7_EELb0EE4InitISB_EEvRS8_OT_
000000000006c805 W _ZN7testing8internal11MatcherBaseINSt7__cxx1112basic_stringIcSt11char_traitsIcESaIcEEEE12DescribeImplINS8_11ValuePolicyINS0_9EqMatcherIS7_EELb0EEEEEvRKS8_PSob
000000000006c865 W _ZN7testing8internal11MatcherBaseINSt7__cxx1112basic_stringIcSt11char_traitsIcESaIcEEEE16GetDescriberImplINS8_11ValuePolicyINS0_9EqMatcherIS7_EELb0EEEEEPKNS_25MatcherDescriberInterfaceERKS8_
000000000006c7b9 W _ZN7testing8internal11MatcherBaseINSt7__cxx1112basic_stringIcSt11char_traitsIcESaIcEEEE19MatchAndExplainImplINS8_11ValuePolicyINS0_9EqMatcherIS7_EELb0EEEEEDTcldtclsrT_3Getfp_E15MatchAndExplainfp0_clptfp1_L_ZNS_19MatchResultListener6streamEvEEEERKS8_RKS7_PSF_
00000000000632f6 W _ZN7testing8internal11MatcherBaseINSt7__cxx1112basic_stringIcSt11char_traitsIcESaIcEEEE4InitINS0_9EqMatcherIS7_EEEEvOT_
000000000005b608 W _ZN7testing8internal11MatcherBaseINSt7__cxx1112basic_stringIcSt11char_traitsIcESaIcEEEE7DestroyEv
0000000000069432 W _ZN7testing8internal11MatcherBaseINSt7__cxx1112basic_stringIcSt11char_traitsIcESaIcEEEE9GetVTableINS8_11ValuePolicyINS0_9EqMatcherIS7_EELb0EEEEEPKNS8_6VTableEv
0000000000053522 W _ZN7testing8internal11MatcherBaseINSt7__cxx1112basic_stringIcSt11char_traitsIcESaIcEEEEC1Ev
000000000005c2be W _ZN7testing8internal11MatcherBaseINSt7__cxx1112basic_stringIcSt11char_traitsIcESaIcEEEEC1INS0_9EqMatcherIS7_EEvEEOT_
0000000000053522 W _ZN7testing8internal11MatcherBaseINSt7__cxx1112basic_stringIcSt11char_traitsIcESaIcEEEEC2Ev
000000000005c2be W _ZN7testing8internal11MatcherBaseINSt7__cxx1112basic_stringIcSt11char_traitsIcESaIcEEEEC2INS0_9EqMatcherIS7_EEvEEOT_
0000000000051b00 W _ZN7testing8internal11MatcherBaseINSt7__cxx1112basic_stringIcSt11char_traitsIcESaIcEEEED0Ev
0000000000051ac6 W _ZN7testing8internal11MatcherBaseINSt7__cxx1112basic_stringIcSt11char_traitsIcESaIcEEEED1Ev
0000000000051ac6 W _ZN7testing8internal11MatcherBaseINSt7__cxx1112basic_stringIcSt11char_traitsIcESaIcEEEED2Ev
00000000000535ae W _ZN7testing8internal11MatcherBaseINSt7__cxx1112basic_stringIcSt11char_traitsIcESaIcEEEEaSEOS8_
000000000006f020 W _ZN7testing8internal11MatcherBaseIRKNSt7__cxx1112basic_stringIcSt11char_traitsIcESaIcEEEE11ValuePolicyINS0_9EqMatcherIS7_EELb0EE3GetERKSA_
00000000000693e1 W _ZN7testing8internal11MatcherBaseIRKNSt7__cxx1112basic_stringIcSt11char_traitsIcESaIcEEEE11ValuePolicyINS0_9EqMatcherIS7_EELb0EE4InitISD_EEvRSA_OT_
000000000006c64a W _ZN7testing8internal11MatcherBaseIRKNSt7__cxx1112basic_stringIcSt11char_traitsIcESaIcEEEE12DescribeImplINSA_11ValuePolicyINS0_9EqMatcherIS7_EELb0EEEEEvRKSA_PSob
000000000006c6aa W _ZN7testing8internal11MatcherBaseIRKNSt7__cxx1112basic_stringIcSt11char_traitsIcESaIcEEEE16GetDescriberImplINSA_11ValuePolicyINS0_9EqMatcherIS7_EELb0EEEEEPKNS_25MatcherDescriberInterfaceERKSA_
000000000006c5fe W _ZN7testing8internal11MatcherBaseIRKNSt7__cxx1112basic_stringIcSt11char_traitsIcESaIcEEEE19MatchAndExplainImplINSA_11ValuePolicyINS0_9EqMatcherIS7_EELb0EEEEEDTcldtclsrT_3Getfp_E15MatchAndExplainfp0_clptfp1_L_ZNS_19MatchResultListener6streamEvEEEERKSA_S9_PSH_
00000000000632ac W _ZN7testing8internal11MatcherBaseIRKNSt7__cxx1112basic_stringIcSt11char_traitsIcESaIcEEEE4InitINS0_9EqMatcherIS7_EEEEvOT_
000000000005b5a8 W _ZN7testing8internal11MatcherBaseIRKNSt7__cxx1112basic_stringIcSt11char_traitsIcESaIcEEEE7DestroyEv
0000000000069372 W _ZN7testing8internal11MatcherBaseIRKNSt7__cxx1112basic_stringIcSt11char_traitsIcESaIcEEEE9GetVTableINSA_11ValuePolicyINS0_9EqMatcherIS7_EELb0EEEEEPKNSA_6VTableEv
0000000000051c2e W _ZN7testing8internal11MatcherBaseIRKNSt7__cxx1112basic_stringIcSt11char_traitsIcESaIcEEEEC1EOSA_
0000000000053408 W _ZN7testing8internal11MatcherBaseIRKNSt7__cxx1112basic_stringIcSt11char_traitsIcESaIcEEEEC1Ev
000000000005c232 W _ZN7testing8internal11MatcherBaseIRKNSt7__cxx1112basic_stringIcSt11char_traitsIcESaIcEEEEC1INS0_9EqMatcherIS7_EEvEEOT_
0000000000051c2e W _ZN7testing8internal11MatcherBaseIRKNSt7__cxx1112basic_stringIcSt11char_traitsIcESaIcEEEEC2EOSA_
0000000000053408 W _ZN7testing8internal11MatcherBaseIRKNSt7__cxx1112basic_stringIcSt11char_traitsIcESaIcEEEEC2Ev
000000000005c232 W _ZN7testing8internal11MatcherBaseIRKNSt7__cxx1112basic_stringIcSt11char_traitsIcESaIcEEEEC2INS0_9EqMatcherIS7_EEvEEOT_
0000000000051a96 W _ZN7testing8internal11MatcherBaseIRKNSt7__cxx1112basic_stringIcSt11char_traitsIcESaIcEEEED0Ev
0000000000051a5c W _ZN7testing8internal11MatcherBaseIRKNSt7__cxx1112basic_stringIcSt11char_traitsIcESaIcEEEED1Ev
0000000000051a5c W _ZN7testing8internal11MatcherBaseIRKNSt7__cxx1112basic_stringIcSt11char_traitsIcESaIcEEEED2Ev
00000000000534c0 W _ZN7testing8internal11MatcherBaseIRKNSt7__cxx1112basic_stringIcSt11char_traitsIcESaIcEEEEaSEOSA_
000000000006f27f W _ZN7testing8internal11MatcherBaseIRKSt17basic_string_viewIcSt11char_traitsIcEEE11ValuePolicyINS0_9EqMatcherINSt7__cxx1112basic_stringIcS4_SaIcEEEEELb0EE3GetERKS8_
00000000000694ad W _ZN7testing8internal11MatcherBaseIRKSt17basic_string_viewIcSt11char_traitsIcEEE11ValuePolicyINS0_9EqMatcherINSt7__cxx1112basic_stringIcS4_SaIcEEEEELb0EE4InitISF_EEvRS8_OT_
000000000006c924 W _ZN7testing8internal11MatcherBaseIRKSt17basic_string_viewIcSt11char_traitsIcEEE12DescribeImplINS8_11ValuePolicyINS0_9EqMatcherINSt7__cxx1112basic_stringIcS4_SaIcEEEEELb0EEEEEvRKS8_PSob
000000000006c984 W _ZN7testing8internal11MatcherBaseIRKSt17basic_string_viewIcSt11char_traitsIcEEE16GetDescriberImplINS8_11ValuePolicyINS0_9EqMatcherINSt7__cxx1112basic_stringIcS4_SaIcEEEEELb0EEEEEPKNS_25MatcherDescriberInterfaceERKS8_
000000000006c8d8 W _ZN7testing8internal11MatcherBaseIRKSt17basic_string_viewIcSt11char_traitsIcEEE19MatchAndExplainImplINS8_11ValuePolicyINS0_9EqMatcherINSt7__cxx1112basic_stringIcS4_SaIcEEEEELb0EEEEEDTcldtclsrT_3Getfp_E15MatchAndExplainfp0_clptfp1_L_ZNS_19MatchResultListener6streamEvEEEERKS8_S7_PSJ_
0000000000063340 W _ZN7testing8internal11MatcherBaseIRKSt17basic_string_viewIcSt11char_traitsIcEEE4InitINS0_9EqMatcherINSt7__cxx1112basic_stringIcS4_SaIcEEEEEEEvOT_
000000000005b668 W _ZN7testing8internal11MatcherBaseIRKSt17basic_string_viewIcSt11char_traitsIcEEE7DestroyEv
0000000000069498 W _ZN7testing8internal11MatcherBaseIRKSt17basic_string_viewIcSt11char_traitsIcEEE9GetVTableINS8_11ValuePolicyINS0_9EqMatcherINSt7__cxx1112basic_stringIcS4_SaIcEEEEELb0EEEEEPKNS8_6VTableEv
0000000000053610 W _ZN7testing8internal11MatcherBaseIRKSt17basic_string_viewIcSt11char_traitsIcEEEC1Ev
000000000005c34a W _ZN7testing8internal11MatcherBaseIRKSt17basic_string_viewIcSt11char_traitsIcEEEC1INS0_9EqMatcherINSt7__cxx1112basic_stringIcS4_SaIcEEEEEvEEOT_
0000000000053610 W _ZN7testing8internal11MatcherBaseIRKSt17basic_string_viewIcSt11char_traitsIcEEEC2Ev
000000000005c34a W _ZN7testing8internal11MatcherBaseIRKSt17basic_string_viewIcSt11char_traitsIcEEEC2INS0_9EqMatcherINSt7__cxx1112basic_stringIcS4_SaIcEEEEEvEEOT_
0000000000051b6a W _ZN7testing8internal11MatcherBaseIRKSt17basic_string_viewIcSt11char_traitsIcEEED0Ev
0000000000051b30 W _ZN7testing8internal11MatcherBaseIRKSt17basic_string_viewIcSt11char_traitsIcEEED1Ev
0000000000051b30 W _ZN7testing8internal11MatcherBaseIRKSt17basic_string_viewIcSt11char_traitsIcEEED2Ev
000000000005369c W _ZN7testing8internal11MatcherBaseIRKSt17basic_string_viewIcSt11char_traitsIcEEEaSEOS8_
000000000006f372 W _ZN7testing8internal11MatcherBaseISt17basic_string_viewIcSt11char_traitsIcEEE11ValuePolicyINS0_9EqMatcherINSt7__cxx1112basic_stringIcS4_SaIcEEEEELb0EE3GetERKS6_
0000000000069513 W _ZN7testing8internal11MatcherBaseISt17basic_string_viewIcSt11char_traitsIcEEE11ValuePolicyINS0_9EqMatcherINSt7__cxx1112basic_stringIcS4_SaIcEEEEELb0EE4InitISD_EEvRS6_OT_
000000000006ca43 W _ZN7testing8internal11MatcherBaseISt17basic_string_viewIcSt11char_traitsIcEEE12DescribeImplINS6_11ValuePolicyINS0_9EqMatcherINSt7__cxx1112basic_stringIcS4_SaIcEEEEELb0EEEEEvRKS6_PSob
000000000006caa3 W _ZN7testing8internal11MatcherBaseISt17basic_string_viewIcSt11char_traitsIcEEE16GetDescriberImplINS6_11ValuePolicyINS0_9EqMatcherINSt7__cxx1112basic_stringIcS4_SaIcEEEEELb0EEEEEPKNS_25MatcherDescriberInterfaceERKS6_
000000000006c9f7 W _ZN7testing8internal11MatcherBaseISt17basic_string_viewIcSt11char_traitsIcEEE19MatchAndExplainImplINS6_11ValuePolicyINS0_9EqMatcherINSt7__cxx1112basic_stringIcS4_SaIcEEEEELb0EEEEEDTcldtclsrT_3Getfp_E15MatchAndExplainfp0_clptfp1_L_ZNS_19MatchResultListener6streamEvEEEERKS6_RKS5_PSH_
000000000006338a W _ZN7testing8internal11MatcherBaseISt17basic_string_viewIcSt11char_traitsIcEEE4InitINS0_9EqMatcherINSt7__cxx1112basic_stringIcS4_SaIcEEEEEEEvOT_
000000000005b6c8 W _ZN7testing8internal11MatcherBaseISt17basic_string_viewIcSt11char_traitsIcEEE7DestroyEv
00000000000694fe W _ZN7testing8internal11MatcherBaseISt17basic_string_viewIcSt11char_traitsIcEEE9GetVTableINS6_11ValuePolicyINS0_9EqMatcherINSt7__cxx1112basic_stringIcS4_SaIcEEEEELb0EEEEEPKNS6_6VTableEv
00000000000536fe W _ZN7testing8internal11MatcherBaseISt17basic_string_viewIcSt11char_traitsIcEEEC1Ev
000000000005c3d6 W _ZN7testing8internal11MatcherBaseISt17basic_string_viewIcSt11char_traitsIcEEEC1INS0_9EqMatcherINSt7__cxx1112basic_stringIcS4_SaIcEEEEEvEEOT_
00000000000536fe W _ZN7testing8internal11MatcherBaseISt17basic_string_viewIcSt11char_traitsIcEEEC2Ev
000000000005c3d6 W _ZN7testing8internal11MatcherBaseISt17basic_string_viewIcSt11char_traitsIcEEEC2INS0_9EqMatcherINSt7__cxx1112basic_stringIcS4_SaIcEEEEEvEEOT_
0000000000051bd4 W _ZN7testing8internal11MatcherBaseISt17basic_string_viewIcSt11char_traitsIcEEED0Ev
0000000000051b9a W _ZN7testing8internal11MatcherBaseISt17basic_string_viewIcSt11char_traitsIcEEED1Ev
0000000000051b9a W _ZN7testing8internal11MatcherBaseISt17basic_string_viewIcSt11char_traitsIcEEED2Ev
000000000005378a W _ZN7testing8internal11MatcherBaseISt17basic_string_viewIcSt11char_traitsIcEEEaSEOS6_
00000000000429c6 T _ZN7testing8internal11ShouldShardEPKcS2_b
000000000002b360 T _ZN7testing8internal11SplitStringERKNSt7__cxx1112basic_stringIcSt11char_traitsIcESaIcEEEcPSt6vectorIS6_SaIS6_EE
000000000006a282 W _ZN7testing8internal11ThreadLocalIPNS_31TestPartResultReporterInterfaceEE11ValueHolder7pointerEv
000000000007596a W _ZN7testing8internal11ThreadLocalIPNS_31TestPartResultReporterInterfaceEE11ValueHolderC1ERKS3_
000000000007596a W _ZN7testing8internal11ThreadLocalIPNS_31TestPartResultReporterInterfaceEE11ValueHolderC2ERKS3_
0000000000075bae W _ZN7testing8internal11ThreadLocalIPNS_31TestPartResultReporterInterfaceEE11ValueHolderD0Ev
0000000000075b80 W _ZN7testing8internal11ThreadLocalIPNS_31TestPartResultReporterInterfaceEE11ValueHolderD1Ev
0000000000075b80 W _ZN7testing8internal11ThreadLocalIPNS_31TestPartResultReporterInterfaceEE11ValueHolderD2Ev
00000000000614e0 W _ZN7testing8internal11ThreadLocalIPNS_31TestPartResultReporterInterfaceEE18ValueHolderFactoryC1Ev
00000000000614e0 W _ZN7testing8internal11ThreadLocalIPNS_31TestPartResultReporterInterfaceEE18ValueHolderFactoryC2Ev
000000000006151c W _ZN7testing8internal11ThreadLocalIPNS_31TestPartResultReporterInterfaceEE18ValueHolderFactoryD0Ev
00000000000614fe W _ZN7testing8internal11ThreadLocalIPNS_31TestPartResultReporterInterfaceEE18ValueHolderFactoryD1Ev
00000000000614fe W _ZN7testing8internal11ThreadLocalIPNS_31TestPartResultReporterInterfaceEE18ValueHolderFactoryD2Ev
000000000006154c W _ZN7testing8internal11ThreadLocalIPNS_31TestPartResultReporterInterfaceEE26InstanceValueHolderFactoryC1ERKS3_
000000000006154c W _ZN7testing8internal11ThreadLocalIPNS_31TestPartResultReporterInterfaceEE26InstanceValueHolderFactoryC2ERKS3_
0000000000074ba0 W _ZN7testing8internal11ThreadLocalIPNS_31TestPartResultReporterInterfaceEE26InstanceValueHolderFactoryD0Ev
0000000000074b72 W _ZN7testing8internal11ThreadLocalIPNS_31TestPartResultReporterInterfaceEE26InstanceValueHolderFactoryD1Ev
0000000000074b72 W _ZN7testing8internal11ThreadLocalIPNS_31TestPartResultReporterInterfaceEE26InstanceValueHolderFactoryD2Ev
0000000000055142 W _ZN7testing8internal11ThreadLocalIPNS_31TestPartResultReporterInterfaceEE3setERKS3_
000000000005dace W _ZN7testing8internal11ThreadLocalIPNS_31TestPartResultReporterInterfaceEE7pointerEv
00000000000613f9 W _ZN7testing8internal11ThreadLocalIPNS_31TestPartResultReporterInterfaceEE9CreateKeyEv
0000000000059460 W _ZN7testing8internal11ThreadLocalIPNS_31TestPartResultReporterInterfaceEEC1ERKS3_
0000000000059460 W _ZN7testing8internal11ThreadLocalIPNS_31TestPartResultReporterInterfaceEEC2ERKS3_
00000000000594bc W _ZN7testing8internal11ThreadLocalIPNS_31TestPartResultReporterInterfaceEED1Ev
00000000000594bc W _ZN7testing8internal11ThreadLocalIPNS_31TestPartResultReporterInterfaceEED2Ev
0000000000062e54 W _ZN7testing8internal11ThreadLocalISt6vectorINS0_9TraceInfoESaIS3_EEE11ValueHolder7pointerEv
0000000000075910 W _ZN7testing8internal11ThreadLocalISt6vectorINS0_9TraceInfoESaIS3_EEE11ValueHolderC1Ev
0000000000075910 W _ZN7testing8internal11ThreadLocalISt6vectorINS0_9TraceInfoESaIS3_EEE11ValueHolderC2Ev
0000000000075b50 W _ZN7testing8internal11ThreadLocalISt6vectorINS0_9TraceInfoESaIS3_EEE11ValueHolderD0Ev
0000000000075b12 W _ZN7testing8internal11ThreadLocalISt6vectorINS0_9TraceInfoESaIS3_EEE11ValueHolderD1Ev
0000000000075b12 W _ZN7testing8internal11ThreadLocalISt6vectorINS0_9TraceInfoESaIS3_EEE11ValueHolderD2Ev
0000000000059a4e W _ZN7testing8internal11ThreadLocalISt6vectorINS0_9TraceInfoESaIS3_EEE18ValueHolderFactoryC1Ev
0000000000059a4e W _ZN7testing8internal11ThreadLocalISt6vectorINS0_9TraceInfoESaIS3_EEE18ValueHolderFactoryC2Ev
0000000000059a8a W _ZN7testing8internal11ThreadLocalISt6vectorINS0_9TraceInfoESaIS3_EEE18ValueHolderFactoryD0Ev
0000000000059a6c W _ZN7testing8internal11ThreadLocalISt6vectorINS0_9TraceInfoESaIS3_EEE18ValueHolderFactoryD1Ev
0000000000059a6c W _ZN7testing8internal11ThreadLocalISt6vectorINS0_9TraceInfoESaIS3_EEE18ValueHolderFactoryD2Ev
0000000000059aba W _ZN7testing8internal11ThreadLocalISt6vectorINS0_9TraceInfoESaIS3_EEE25DefaultValueHolderFactoryC1Ev
0000000000059aba W _ZN7testing8internal11ThreadLocalISt6vectorINS0_9TraceInfoESaIS3_EEE25DefaultValueHolderFactoryC2Ev
0000000000074b42 W _ZN7testing8internal11ThreadLocalISt6vectorINS0_9TraceInfoESaIS3_EEE25DefaultValueHolderFactoryD0Ev
0000000000074b14 W _ZN7testing8internal11ThreadLocalISt6vectorINS0_9TraceInfoESaIS3_EEE25DefaultValueHolderFactoryD1Ev
0000000000074b14 W _ZN7testing8internal11ThreadLocalISt6vectorINS0_9TraceInfoESaIS3_EEE25DefaultValueHolderFactoryD2Ev
00000000000521de W _ZN7testing8internal11ThreadLocalISt6vectorINS0_9TraceInfoESaIS3_EEE7pointerEv
0000000000061aaf W _ZN7testing8internal11ThreadLocalISt6vectorINS0_9TraceInfoESaIS3_EEE9CreateKeyEv
0000000000059ae8 W _ZN7testing8internal11ThreadLocalISt6vectorINS0_9TraceInfoESaIS3_EEEC1Ev
0000000000059ae8 W _ZN7testing8internal11ThreadLocalISt6vectorINS0_9TraceInfoESaIS3_EEEC2Ev
0000000000059b40 W _ZN7testing8internal11ThreadLocalISt6vectorINS0_9TraceInfoESaIS3_EEED1Ev
0000000000059b40 W _ZN7testing8internal11ThreadLocalISt6vectorINS0_9TraceInfoESaIS3_EEED2Ev
00000000001195e0 B _ZN7testing8internal11g_help_flagE
000000000004cbf2 W _ZN7testing8internal12AssertHelper16AssertHelperDataC1ENS_14TestPartResult4TypeEPKciS6_
000000000004cbf2 W _ZN7testing8internal12AssertHelper16AssertHelperDataC2ENS_14TestPartResult4TypeEPKciS6_
000000000004fbd2 W _ZN7testing8internal12AssertHelper16AssertHelperDataD1Ev
000000000004fbd2 W _ZN7testing8internal12AssertHelper16AssertHelperDataD2Ev
0000000000027cf6 T _ZN7testing8internal12AssertHelperC1ENS_14TestPartResult4TypeEPKciS5_
0000000000027cf6 T _ZN7testing8internal12AssertHelperC2ENS_14TestPartResult4TypeEPKciS5_
0000000000027d70 T _ZN7testing8internal12AssertHelperD1Ev
0000000000027d70 T _ZN7testing8internal12AssertHelperD2Ev
000000000005473e W _ZN7testing8internal12CodeLocationC1EOS1_
0000000000015262 W _ZN7testing8internal12CodeLocationC1ERKNSt7__cxx1112basic_stringIcSt11char_traitsIcESaIcEEEi
000000000004c22e W _ZN7testing8internal12CodeLocationC1ERKS1_
000000000005473e W _ZN7testing8internal12CodeLocationC2EOS1_
0000000000015262 W _ZN7testing8internal12CodeLocationC2ERKNSt7__cxx1112basic_stringIcSt11char_traitsIcESaIcEEEi
000000000004c22e W _ZN7testing8internal12CodeLocationC2ERKS1_
00000000000152c0 W _ZN7testing8internal12CodeLocationD1Ev
00000000000152c0 W _ZN7testing8internal12CodeLocationD2Ev
000000000004a9e6 W _ZN7testing8internal12FlushInfoLogEv
00000000000520fb W _ZN7testing8internal12GetElementOrIiEET_RKSt6vectorIS2_SaIS2_EEiS2_
000000000005a52d W _ZN7testing8internal12ShuffleRangeIiEEvPNS0_6RandomEiiPSt6vectorIT_SaIS5_EE
00000000000a9501 u _ZN7testing8internal12TypeIdHelperI12GuidanceTestE6dummy_E
00000000001197b0 b _ZN7testing8internal12TypeIdHelperINS0_12_GLOBAL__N_111FailureTestEE6dummy_E
00000000001197b1 u _ZN7testing8internal12TypeIdHelperINS_4TestEE6dummy_E
000000000004d4fa W _ZN7testing8internal12UnitTestImpl11AddTestInfoEPFvvES3_PNS_8TestInfoE
0000000000043078 T _ZN7testing8internal12UnitTestImpl11FilterTestsENS1_18ReactionToShardingE
00000000000421e2 T _ZN7testing8internal12UnitTestImpl11RunAllTestsEv
0000000000041cfe T _ZN7testing8internal12UnitTestImpl12GetTestSuiteEPKcS3_PFvvES5_
0000000000043db2 T _ZN7testing8internal12UnitTestImpl12ShuffleTestsEv
000000000004d79e W _ZN7testing8internal12UnitTestImpl12environmentsEv
000000000004164c T _ZN7testing8internal12UnitTestImpl14RecordPropertyERKNS_12TestPropertyE
0000000000043ef6 T _ZN7testing8internal12UnitTestImpl14UnshuffleTestsEv
000000000004d76a W _ZN7testing8internal12UnitTestImpl17current_test_infoEv
000000000004d7b6 W _ZN7testing8internal12UnitTestImpl17gtest_trace_stackEv
00000000000417c0 T _ZN7testing8internal12UnitTestImpl18ConfigureXmlOutputEv
000000000004d832 W _ZN7testing8internal12UnitTestImpl18death_test_factoryEv
000000000004d44a W _ZN7testing8internal12UnitTestImpl19GetMutableSuiteCaseEi
0000000000041c4a T _ZN7testing8internal12UnitTestImpl19PostFlagParsingInitEv
0000000000043d54 T _ZN7testing8internal12UnitTestImpl19current_test_resultEv
000000000004d8a0 W _ZN7testing8internal12UnitTestImpl20set_catch_exceptionsEb
0000000000043d02 T _ZN7testing8internal12UnitTestImpl21os_stack_trace_getterEv
000000000004d6fe W _ZN7testing8internal12UnitTestImpl21set_current_test_infoEPNS_8TestInfoE
000000000004d6dc W _ZN7testing8internal12UnitTestImpl22set_current_test_suiteEPNS_9TestSuiteE
000000000004d720 W _ZN7testing8internal12UnitTestImpl23ClearNonAdHocTestResultEv
000000000004366c T _ZN7testing8internal12UnitTestImpl23ListTestsMatchingFilterEv
0000000000041a2c T _ZN7testing8internal12UnitTestImpl24ConfigureStreamingOutputEv
0000000000043cac T _ZN7testing8internal12UnitTestImpl25set_os_stack_trace_getterEPNS0_27OsStackTraceGetterInterfaceE
00000000000314f0 T _ZN7testing8internal12UnitTestImpl26RegisterParameterizedTestsEv
000000000004d694 W _ZN7testing8internal12UnitTestImpl27parameterized_test_registryEv
000000000002b0fa T _ZN7testing8internal12UnitTestImpl28CurrentOsStackTraceExceptTopB5cxx11Ei
000000000002ad32 T _ZN7testing8internal12UnitTestImpl31GetGlobalTestPartResultReporterEv
000000000002ad9a T _ZN7testing8internal12UnitTestImpl31SetGlobalTestPartResultReporterEPNS_31TestPartResultReporterInterfaceE
0000000000041778 T _ZN7testing8internal12UnitTestImpl32SuppressTestEventsIfInSubprocessEv
000000000004d6c4 W _ZN7testing8internal12UnitTestImpl32type_parameterized_test_registryEv
000000000004d6ac W _ZN7testing8internal12UnitTestImpl33ignored_parameterized_test_suitesB5cxx11Ev
000000000004d7da W _ZN7testing8internal12UnitTestImpl34InitDeathTestSubprocessControlInfoEv
000000000002ae02 T _ZN7testing8internal12UnitTestImpl41GetTestPartResultReporterForCurrentThreadEv
000000000002ae2a T _ZN7testing8internal12UnitTestImpl41SetTestPartResultReporterForCurrentThreadEPNS_31TestPartResultReporterInterfaceE
000000000004d86e W _ZN7testing8internal12UnitTestImpl6randomEv
000000000004d4aa W _ZN7testing8internal12UnitTestImpl9listenersEv
0000000000041074 T _ZN7testing8internal12UnitTestImplC1EPNS_8UnitTestE
0000000000041074 T _ZN7testing8internal12UnitTestImplC2EPNS_8UnitTestE
000000000004161c T _ZN7testing8internal12UnitTestImplD0Ev
000000000004148c T _ZN7testing8internal12UnitTestImplD1Ev
000000000004148c T _ZN7testing8internal12UnitTestImplD2Ev
0000000000027f5a t _ZN7testing8internal12_GLOBAL__N_111FailureTest8TestBodyEv
0000000000027ebe t _ZN7testing8internal12_GLOBAL__N_111FailureTestC1ERKNS0_12CodeLocationENSt7__cxx1112basic_stringIcSt11char_traitsIcESaIcEEEb
0000000000027ebe t _ZN7testing8internal12_GLOBAL__N_111FailureTestC2ERKNS0_12CodeLocationENSt7__cxx1112basic_stringIcSt11char_traitsIcESaIcEEEb
0000000000049c46 t _ZN7testing8internal12_GLOBAL__N_111FailureTestD0Ev
0000000000049bf8 t _ZN7testing8internal12_GLOBAL__N_111FailureTestD1Ev
0000000000049bf8 t _ZN7testing8internal12_GLOBAL__N_111FailureTestD2Ev
00000000000267d6 t _ZN7testing8internal12_GLOBAL__N_111IsValidUTF8EPKcm
00000000000299b1 t _ZN7testing8internal12_GLOBAL__N_113IsGlobPatternERKNSt7__cxx1112basic_stringIcSt11char_traitsIcESaIcEEE
0000000000045cfb t _ZN7testing8internal12_GLOBAL__N_114PrintCStringToIDiEEvPKT_PSo
0000000000045c6e t _ZN7testing8internal12_GLOBAL__N_114PrintCStringToIDsEEvPKT_PSo
0000000000045be1 t _ZN7testing8internal12_GLOBAL__N_114PrintCStringToIcEEvPKT_PSo
0000000000045d88 t _ZN7testing8internal12_GLOBAL__N_114PrintCStringToIwEEvPKT_PSo
00000000000299ee t _ZN7testing8internal12_GLOBAL__N_114UnitTestFilterC1ERKNSt7__cxx1112basic_stringIcSt11char_traitsIcESaIcEEE
0000000000029c7e t _ZN7testing8internal12_GLOBAL__N_114UnitTestFilterC1Ev
00000000000299ee t _ZN7testing8internal12_GLOBAL__N_114UnitTestFilterC2ERKNSt7__cxx1112basic_stringIcSt11char_traitsIcESaIcEEE
0000000000029c7e t _ZN7testing8internal12_GLOBAL__N_114UnitTestFilterC2Ev
0000000000029caa t _ZN7testing8internal12_GLOBAL__N_114UnitTestFilterD1Ev
0000000000029caa t _ZN7testing8internal12_GLOBAL__N_114UnitTestFilterD2Ev
0000000000029cd6 t _ZN7testing8internal12_GLOBAL__N_114UnitTestFilteraSEOS2_
00000000000267ad t _ZN7testing8internal12_GLOBAL__N_115IsUTF8TrailByteEh
0000000000045622 t _ZN7testing8internal12_GLOBAL__N_117ReadProcFileFieldImEET_RKNSt7__cxx1112basic_stringIcSt11char_traitsIcESaIcEEEi
000000000002ce66 t _ZN7testing8internal12_GLOBAL__N_118SplitEscapedStringERKNSt7__cxx1112basic_stringIcSt11char_traitsIcESaIcEEE
0000000000026a0c t _ZN7testing8internal12_GLOBAL__N_122ConditionalPrintAsTextEPKcmPSo
0000000000026733 t _ZN7testing8internal12_GLOBAL__N_131ContainsUnprintableControlCodesEPKcm
0000000000029d1a t _ZN7testing8internal12_GLOBAL__N_133PositiveAndNegativeUnitTestFilterC1ERKNSt7__cxx1112basic_stringIcSt11char_traitsIcESaIcEEE
0000000000029d1a t _ZN7testing8internal12_GLOBAL__N_133PositiveAndNegativeUnitTestFilterC2ERKNSt7__cxx1112basic_stringIcSt11char_traitsIcESaIcEEE
000000000002a30a t _ZN7testing8internal12_GLOBAL__N_133PositiveAndNegativeUnitTestFilterD1Ev
000000000002a30a t _ZN7testing8internal12_GLOBAL__N_133PositiveAndNegativeUnitTestFilterD2Ev
0000000000078b16 r _ZN7testing8internal12_GLOBAL__N_1L39kErrorOnUninstantiatedParameterizedTestE
0000000000078b17 r _ZN7testing8internal12_GLOBAL__N_1L43kErrorOnUninstantiatedTypeParameterizedTestE
00000000000251ac T _ZN7testing8internal13CaptureStderrEv
0000000000025183 T _ZN7testing8internal13CaptureStdoutEv
000000000004f240 W _ZN7testing8internal13DeathTestImpl10set_statusEi
000000000004f272 W _ZN7testing8internal13DeathTestImpl11set_outcomeENS0_16DeathTestOutcomeE
000000000004f2a4 W _ZN7testing8internal13DeathTestImpl11set_read_fdEi
000000000004f20a W _ZN7testing8internal13DeathTestImpl11set_spawnedEb
000000000001e268 T _ZN7testing8internal13DeathTestImpl12GetErrorLogsB5cxx11Ev
000000000004f2d6 W _ZN7testing8internal13DeathTestImpl12set_write_fdEi
000000000001dd76 T _ZN7testing8internal13DeathTestImpl26ReadAndInterpretStatusByteEv
000000000001e2b2 T _ZN7testing8internal13DeathTestImpl5AbortENS0_9DeathTest11AbortReasonE
000000000001e6b6 T _ZN7testing8internal13DeathTestImpl6PassedEb
000000000004ef84 W _ZN7testing8internal13DeathTestImplC1EPKcNS_7MatcherIRKNSt7__cxx1112basic_stringIcSt11char_traitsIcESaIcEEEEE
000000000004ef84 W _ZN7testing8internal13DeathTestImplC2EPKcNS_7MatcherIRKNSt7__cxx1112basic_stringIcSt11char_traitsIcESaIcEEEEE
000000000004f1ae W _ZN7testing8internal13DeathTestImplD0Ev
000000000004f01e W _ZN7testing8internal13DeathTestImplD1Ev
000000000004f01e W _ZN7testing8internal13DeathTestImplD2Ev
00000000000210a4 T _ZN7testing8internal13ExecDeathTest10AssumeRoleEv
000000000004f50d W _ZN7testing8internal13ExecDeathTest32GetArgvsForDeathTestChildProcessB5cxx11Ev
000000000004f41e W _ZN7testing8internal13ExecDeathTestC1EPKcNS_7MatcherIRKNSt7__cxx1112basic_stringIcSt11char_traitsIcESaIcEEEEES3_i
000000000004f41e W _ZN7testing8internal13ExecDeathTestC2EPKcNS_7MatcherIRKNSt7__cxx1112basic_stringIcSt11char_traitsIcESaIcEEEEES3_i
0000000000074f0e W _ZN7testing8internal13ExecDeathTestD0Ev
0000000000074ee0 W _ZN7testing8internal13ExecDeathTestD1Ev
0000000000074ee0 W _ZN7testing8internal13ExecDeathTestD2Ev
0000000000016076 W _ZN7testing8internal13FloatingPointIdE24SignAndMagnitudeToBiasedERKm
0000000000015ef6 W _ZN7testing8internal13FloatingPointIdE38DistanceBetweenSignAndMagnitudeNumbersERKmS4_
0000000000015c8c W _ZN7testing8internal13FloatingPointIdEC1ERKd
0000000000015c8c W _ZN7testing8internal13FloatingPointIdEC2ERKd
000000000006b1eb W _ZN7testing8internal13FloatingPointIfE24SignAndMagnitudeToBiasedERKj
0000000000066785 W _ZN7testing8internal13FloatingPointIfE38DistanceBetweenSignAndMagnitudeNumbersERKjS4_
000000000005f1c2 W _ZN7testing8internal13FloatingPointIfEC1ERKf
000000000005f1c2 W _ZN7testing8internal13FloatingPointIfEC2ERKf
000000000002a628 T _ZN7testing8internal13GetTestTypeIdEv
0000000000051837 W _ZN7testing8internal13ImplicitCast_IPKvEET_S4_
00000000000280ac T _ZN7testing8internal13MarkAsIgnoredC1EPKc
00000000000280ac T _ZN7testing8internal13MarkAsIgnoredC2EPKc
0000000000026aa5 T _ZN7testing8internal13PrintStringToERKNSt7__cxx1112basic_stringIcSt11char_traitsIcESaIcEEEPSo
00000000000693ab W _ZN7testing8internal13SharedPayloadINS0_9EqMatcherINSt7__cxx1112basic_stringIcSt11char_traitsIcESaIcEEEEEE7DestroyEPNS0_17SharedPayloadBaseE
000000000006c772 W _ZN7testing8internal13SharedPayloadINS0_9EqMatcherINSt7__cxx1112basic_stringIcSt11char_traitsIcESaIcEEEEEEC1EOS9_
000000000006c772 W _ZN7testing8internal13SharedPayloadINS0_9EqMatcherINSt7__cxx1112basic_stringIcSt11char_traitsIcESaIcEEEEEEC2EOS9_
0000000000069388 W _ZN7testing8internal13SharedPayloadINS0_9EqMatcherINSt7__cxx1112basic_stringIcSt11char_traitsIcESaIcEEEEEED1Ev
0000000000069388 W _ZN7testing8internal13SharedPayloadINS0_9EqMatcherINSt7__cxx1112basic_stringIcSt11char_traitsIcESaIcEEEEEED2Ev
000000000002c06e t _ZN7testing8internal13edit_distance12_GLOBAL__N_115InternalStrings5GetIdERKNSt7__cxx1112basic_stringIcSt11char_traitsIcESaIcEEE
000000000002c126 t _ZN7testing8internal13edit_distance12_GLOBAL__N_115InternalStringsC1Ev
000000000002c126 t _ZN7testing8internal13edit_distance12_GLOBAL__N_115InternalStringsC2Ev
000000000002c142 t _ZN7testing8internal13edit_distance12_GLOBAL__N_115InternalStringsD1Ev
000000000002c142 t _ZN7testing8internal13edit_distance12_GLOBAL__N_115InternalStringsD2Ev
000000000002c694 t _ZN7testing8internal13edit_distance12_GLOBAL__N_14Hunk10FlushEditsEv
000000000002c540 t _ZN7testing8internal13edit_distance12_GLOBAL__N_14Hunk7PrintToEPSo
000000000002c3dc t _ZN7testing8internal13edit_distance12_GLOBAL__N_14Hunk8PushLineEcPKc
000000000002c35a t _ZN7testing8internal13edit_distance12_GLOBAL__N_14HunkC1Emm
000000000002c35a t _ZN7testing8internal13edit_distance12_GLOBAL__N_14HunkC2Emm
000000000002c8ae t _ZN7testing8internal13edit_distance12_GLOBAL__N_14HunkD1Ev
000000000002c8ae t _ZN7testing8internal13edit_distance12_GLOBAL__N_14HunkD2Ev
000000000002c8ed T _ZN7testing8internal13edit_distance17CreateUnifiedDiffERKSt6vectorINSt7__cxx1112basic_stringIcSt11char_traitsIcESaIcEEESaIS8_EESC_m
000000000002c15d T _ZN7testing8internal13edit_distance21CalculateOptimalEditsERKSt6vectorINSt7__cxx1112basic_stringIcSt11char_traitsIcESaIcEEESaIS8_EESC_
000000000002b75d T _ZN7testing8internal13edit_distance21CalculateOptimalEditsERKSt6vectorImSaImEES6_
000000000004f8be W _ZN7testing8internal14CapturedStream17GetCapturedStringB5cxx11Ev
000000000004f6ba W _ZN7testing8internal14CapturedStreamC1Ei
000000000004f6ba W _ZN7testing8internal14CapturedStreamC2Ei
000000000004f882 W _ZN7testing8internal14CapturedStreamD1Ev
000000000004f882 W _ZN7testing8internal14CapturedStreamD2Ev
000000000002ea2b T _ZN7testing8internal14CmpHelperSTREQEPKcS2_PKwS4_
000000000002db87 T _ZN7testing8internal14CmpHelperSTREQEPKcS2_S2_S2_
000000000002eb46 T _ZN7testing8internal14CmpHelperSTRNEEPKcS2_PKwS4_
000000000002ddbd T _ZN7testing8internal14CmpHelperSTRNEEPKcS2_S2_S2_
0000000000071387 W _ZN7testing8internal14ComparisonBaseINS0_9EqMatcherINSt7__cxx1112basic_stringIcSt11char_traitsIcESaIcEEEEES8_St8equal_toIvEE6UnwrapIS8_EERKT_SG_
000000000006c71e W _ZN7testing8internal14ComparisonBaseINS0_9EqMatcherINSt7__cxx1112basic_stringIcSt11char_traitsIcESaIcEEEEES8_St8equal_toIvEEC1EOSC_
0000000000063282 W _ZN7testing8internal14ComparisonBaseINS0_9EqMatcherINSt7__cxx1112basic_stringIcSt11char_traitsIcESaIcEEEEES8_St8equal_toIvEEC1ERKS8_
000000000006c71e W _ZN7testing8internal14ComparisonBaseINS0_9EqMatcherINSt7__cxx1112basic_stringIcSt11char_traitsIcESaIcEEEEES8_St8equal_toIvEEC2EOSC_
0000000000063282 W _ZN7testing8internal14ComparisonBaseINS0_9EqMatcherINSt7__cxx1112basic_stringIcSt11char_traitsIcESaIcEEEEES8_St8equal_toIvEEC2ERKS8_
000000000004f594 W _ZN7testing8internal14ComparisonBaseINS0_9EqMatcherINSt7__cxx1112basic_stringIcSt11char_traitsIcESaIcEEEEES8_St8equal_toIvEED1Ev
000000000004f594 W _ZN7testing8internal14ComparisonBaseINS0_9EqMatcherINSt7__cxx1112basic_stringIcSt11char_traitsIcESaIcEEEEES8_St8equal_toIvEED2Ev
000000000004ce44 W _ZN7testing8internal14GTestFlagSaverC1Ev
000000000004ce44 W _ZN7testing8internal14GTestFlagSaverC2Ev
000000000004d0c4 W _ZN7testing8internal14GTestFlagSaverD1Ev
000000000004d0c4 W _ZN7testing8internal14GTestFlagSaverD2Ev
000000000004ad82 W _ZN7testing8internal14GTestMutexLockC1EPNS0_9MutexBaseE
000000000004ad82 W _ZN7testing8internal14GTestMutexLockC2EPNS0_9MutexBaseE
000000000004adb4 W _ZN7testing8internal14GTestMutexLockD1Ev
000000000004adb4 W _ZN7testing8internal14GTestMutexLockD2Ev
00000000000245ab T _ZN7testing8internal14GetThreadCountEv
00000000000252a7 T _ZN7testing8internal14ReadEntireFileB5cxx11EP8_IO_FILE
0000000000032870 T _ZN7testing8internal14ShouldUseColorEb
00000000000518d0 W _ZN7testing8internal14UniversalPrintINSt7__cxx1112basic_stringIcSt11char_traitsIcESaIcEEEEEvRKT_PSo
00000000000519c5 W _ZN7testing8internal14UniversalPrintINSt7__cxx1112basic_stringIwSt11char_traitsIwESaIwEEEEEvRKT_PSo
000000000001631d W _ZN7testing8internal14UniversalPrintIiEEvRKT_PSo
000000000002e4bd T _ZN7testing8internal15CodePointToUtf8B5cxx11Ej
0000000000056ed5 W _ZN7testing8internal15FloatingPointLEIdEENS_15AssertionResultEPKcS4_T_S5_
0000000000056b71 W _ZN7testing8internal15FloatingPointLEIfEENS_15AssertionResultEPKcS4_T_S5_
000000000002b166 T _ZN7testing8internal15GetTimeInMillisEv
000000000004d8c2 W _ZN7testing8internal15GetUnitTestImplEv
000000000001f1ea T _ZN7testing8internal15NoExecDeathTest10AssumeRoleEv
000000000004f36c W _ZN7testing8internal15NoExecDeathTestC1EPKcNS_7MatcherIRKNSt7__cxx1112basic_stringIcSt11char_traitsIcESaIcEEEEE
000000000004f36c W _ZN7testing8internal15NoExecDeathTestC2EPKcNS_7MatcherIRKNSt7__cxx1112basic_stringIcSt11char_traitsIcESaIcEEEEE
0000000000074f6c W _ZN7testing8internal15NoExecDeathTestD0Ev
0000000000074f3e W _ZN7testing8internal15NoExecDeathTestD1Ev
0000000000074f3e W _ZN7testing8internal15NoExecDeathTestD2Ev
0000000000015244 W _ZN7testing8internal15TestFactoryBaseC1Ev
0000000000015244 W _ZN7testing8internal15TestFactoryBaseC2Ev
0000000000015382 W _ZN7testing8internal15TestFactoryBaseD0Ev
0000000000015364 W _ZN7testing8internal15TestFactoryBaseD1Ev
0000000000015364 W _ZN7testing8internal15TestFactoryBaseD2Ev
0000000000016566 W _ZN7testing8internal15TestFactoryImplI24GuidanceTest_Normal_TestE10CreateTestEv
00000000000153b2 W _ZN7testing8internal15TestFactoryImplI24GuidanceTest_Normal_TestEC1Ev
00000000000153b2 W _ZN7testing8internal15TestFactoryImplI24GuidanceTest_Normal_TestEC2Ev
00000000000164da W _ZN7testing8internal15TestFactoryImplI24GuidanceTest_Normal_TestED0Ev
00000000000164ac W _ZN7testing8internal15TestFactoryImplI24GuidanceTest_Normal_TestED1Ev
00000000000164ac W _ZN7testing8internal15TestFactoryImplI24GuidanceTest_Normal_TestED2Ev
0000000000061d90 W _ZN7testing8internal15TestSuiteNameIsC1EOS1_
0000000000050bea W _ZN7testing8internal15TestSuiteNameIsC1ERKNSt7__cxx1112basic_stringIcSt11char_traitsIcESaIcEEE
0000000000059cfe W _ZN7testing8internal15TestSuiteNameIsC1ERKS1_
0000000000061d90 W _ZN7testing8internal15TestSuiteNameIsC2EOS1_
0000000000050bea W _ZN7testing8internal15TestSuiteNameIsC2ERKNSt7__cxx1112basic_stringIcSt11char_traitsIcESaIcEEE
0000000000059cfe W _ZN7testing8internal15TestSuiteNameIsC2ERKS1_
0000000000050c6c W _ZN7testing8internal15TestSuiteNameIsD1Ev
0000000000050c6c W _ZN7testing8internal15TestSuiteNameIsD2Ev
000000000002a1e8 T _ZN7testing8internal15UnitTestOptions13MatchesFilterERKNSt7__cxx1112basic_stringIcSt11char_traitsIcESaIcEEEPKc
0000000000028ff6 T _ZN7testing8internal15UnitTestOptions15GetOutputFormatB5cxx11Ev
000000000002a336 T _ZN7testing8internal15UnitTestOptions17FilterMatchesTestERKNSt7__cxx1112basic_stringIcSt11char_traitsIcESaIcEEES9_
0000000000029160 T _ZN7testing8internal15UnitTestOptions27GetAbsolutePathToOutputFileB5cxx11Ev
0000000000025a26 T _ZN7testing8internal16BoolFromGTestEnvEPKcb
00000000000508f4 W _ZN7testing8internal16DeathTestFactoryC1Ev
00000000000508f4 W _ZN7testing8internal16DeathTestFactoryC2Ev
0000000000050930 W _ZN7testing8internal16DeathTestFactoryD0Ev
0000000000050912 W _ZN7testing8internal16DeathTestFactoryD1Ev
0000000000050912 W _ZN7testing8internal16DeathTestFactoryD2Ev
000000000004f2f2 W _ZN7testing8internal16ForkingDeathTest13set_child_pidEi
000000000001ef22 T _ZN7testing8internal16ForkingDeathTest4WaitEv
000000000001ee64 T _ZN7testing8internal16ForkingDeathTestC1EPKcNS_7MatcherIRKNSt7__cxx1112basic_stringIcSt11char_traitsIcESaIcEEEEE
000000000001ee64 T _ZN7testing8internal16ForkingDeathTestC2EPKcNS_7MatcherIRKNSt7__cxx1112basic_stringIcSt11char_traitsIcESaIcEEEEE
000000000004f33c W _ZN7testing8internal16ForkingDeathTestD0Ev
000000000004f30e W _ZN7testing8internal16ForkingDeathTestD1Ev
000000000004f30e W _ZN7testing8internal16ForkingDeathTestD2Ev
000000000001d370 T _ZN7testing8internal16InDeathTestChildEv
000000000004fa47 W _ZN7testing8internal16IsPrintableAsciiEDi
0000000000026b36 T _ZN7testing8internal16PrintU16StringToERKNSt7__cxx1112basic_stringIDsSt11char_traitsIDsESaIDsEEEPSo
0000000000026b82 T _ZN7testing8internal16PrintU32StringToERKNSt7__cxx1112basic_stringIDiSt11char_traitsIDiESaIDiEEEPSo
0000000000015501 W _ZN7testing8internal16SuiteApiResolverI12GuidanceTestE19GetSetUpCaseOrSuiteEPKci
000000000001566b W _ZN7testing8internal16SuiteApiResolverI12GuidanceTestE22GetTearDownCaseOrSuiteEPKci
0000000000047a75 t _ZN7testing8internal16SuiteApiResolverINS0_12_GLOBAL__N_111FailureTestEE19GetSetUpCaseOrSuiteEPKci
0000000000047bdb t _ZN7testing8internal16SuiteApiResolverINS0_12_GLOBAL__N_111FailureTestEE22GetTearDownCaseOrSuiteEPKci
0000000000051c03 W _ZN7testing8internal16UniversalPrinterINSt7__cxx1112basic_stringIcSt11char_traitsIcESaIcEEEE5PrintERKS7_PSo
000000000005b57d W _ZN7testing8internal16UniversalPrinterINSt7__cxx1112basic_stringIwSt11char_traitsIwESaIwEEEE5PrintERKS7_PSo
0000000000016347 W _ZN7testing8internal16UniversalPrinterIiE5PrintERKiPSo
000000000002e6d0 T _ZN7testing8internal16WideStringToUtf8B5cxx11EPKwi
000000000002f338 T _ZN7testing8internal17AppendUserMessageERKNSt7__cxx1112basic_stringIcSt11char_traitsIcESaIcEEERKNS_7MessageE
0000000000025224 T _ZN7testing8internal17GetCapturedStderrB5cxx11Ev
00000000000251d5 T _ZN7testing8internal17GetCapturedStdoutB5cxx11Ev
000000000004ccfc W _ZN7testing8internal17GetNextRandomSeedEi
0000000000042f71 T _ZN7testing8internal17Int32FromEnvOrDieEPKci
0000000000025acb T _ZN7testing8internal17Int32FromGTestEnvEPKci
0000000000026bce T _ZN7testing8internal17PrintWideStringToERKNSt7__cxx1112basic_stringIwSt11char_traitsIwESaIwEEEPSo
000000000001639b W _ZN7testing8internal17PrintWithFallbackIiEEvRKT_PSo
000000000004bcec W _ZN7testing8internal17SharedPayloadBase5UnrefEv
0000000000068fc2 W _ZN7testing8internal17SharedPayloadBaseC1Ev
0000000000068fc2 W _ZN7testing8internal17SharedPayloadBaseC2Ev
000000000004ee8e W _ZN7testing8internal17StreamingListener10FormatBoolB5cxx11Eb
000000000004e7a2 W _ZN7testing8internal17StreamingListener11OnTestStartERKNS_8TestInfoE
000000000003fb30 T _ZN7testing8internal17StreamingListener12SocketWriter14MakeConnectionEv
000000000004dd28 W _ZN7testing8internal17StreamingListener12SocketWriter15CloseConnectionEv
000000000004db60 W _ZN7testing8internal17StreamingListener12SocketWriter4SendERKNSt7__cxx1112basic_stringIcSt11char_traitsIcESaIcEEE
000000000004d9fa W _ZN7testing8internal17StreamingListener12SocketWriterC1ERKNSt7__cxx1112basic_stringIcSt11char_traitsIcESaIcEEESA_
000000000004d9fa W _ZN7testing8internal17StreamingListener12SocketWriterC2ERKNSt7__cxx1112basic_stringIcSt11char_traitsIcESaIcEEESA_
000000000004db30 W _ZN7testing8internal17StreamingListener12SocketWriterD0Ev
000000000004daca W _ZN7testing8internal17StreamingListener12SocketWriterD1Ev
000000000004daca W _ZN7testing8internal17StreamingListener12SocketWriterD2Ev
000000000004e58e W _ZN7testing8internal17StreamingListener14OnTestSuiteEndERKNS_9TestSuiteE
000000000004ead2 W _ZN7testing8internal17StreamingListener16OnTestPartResultERKNS_14TestPartResultE
000000000004e09e W _ZN7testing8internal17StreamingListener16OnTestProgramEndERKNS_8UnitTestE
000000000004e482 W _ZN7testing8internal17StreamingListener16OnTestSuiteStartERKNS_9TestSuiteE
000000000004e268 W _ZN7testing8internal17StreamingListener18OnTestIterationEndERKNS_8UnitTestEi
000000000004dfd8 W _ZN7testing8internal17StreamingListener18OnTestProgramStartERKNS_8UnitTestE
000000000004d8da W _ZN7testing8internal17StreamingListener20AbstractSocketWriter15CloseConnectionEv
000000000004d8ea W _ZN7testing8internal17StreamingListener20AbstractSocketWriter6SendLnERKNSt7__cxx1112basic_stringIcSt11char_traitsIcESaIcEEE
000000000004d98e W _ZN7testing8internal17StreamingListener20AbstractSocketWriterC1Ev
000000000004d98e W _ZN7testing8internal17StreamingListener20AbstractSocketWriterC2Ev
000000000004d9ca W _ZN7testing8internal17StreamingListener20AbstractSocketWriterD0Ev
000000000004d9ac W _ZN7testing8internal17StreamingListener20AbstractSocketWriterD1Ev
000000000004d9ac W _ZN7testing8internal17StreamingListener20AbstractSocketWriterD2Ev
000000000004e198 W _ZN7testing8internal17StreamingListener20OnTestIterationStartERKNS_8UnitTestEi
000000000004edcc W _ZN7testing8internal17StreamingListener5StartEv
000000000004ed92 W _ZN7testing8internal17StreamingListener6SendLnERKNSt7__cxx1112basic_stringIcSt11char_traitsIcESaIcEEE
000000000004e8ae W _ZN7testing8internal17StreamingListener9OnTestEndERKNS_8TestInfoE
000000000003f9de T _ZN7testing8internal17StreamingListener9UrlEncodeB5cxx11EPKc
000000000004df0e W _ZN7testing8internal17StreamingListenerC1ERKNSt7__cxx1112basic_stringIcSt11char_traitsIcESaIcEEES9_
000000000004df0e W _ZN7testing8internal17StreamingListenerC2ERKNSt7__cxx1112basic_stringIcSt11char_traitsIcESaIcEEES9_
0000000000074fda W _ZN7testing8internal17StreamingListenerD0Ev
0000000000074f9c W _ZN7testing8internal17StreamingListenerD1Ev
0000000000074f9c W _ZN7testing8internal17StreamingListenerD2Ev
000000000003488c T _ZN7testing8internal17TestEventRepeater11OnTestStartERKNS_8TestInfoE
0000000000034bf2 T _ZN7testing8internal17TestEventRepeater13OnTestCaseEndERKNS_9TestSuiteE
000000000003490a T _ZN7testing8internal17TestEventRepeater14OnTestDisabledERKNS_8TestInfoE
0000000000034c6c T _ZN7testing8internal17TestEventRepeater14OnTestSuiteEndERKNS_9TestSuiteE
0000000000034790 T _ZN7testing8internal17TestEventRepeater15OnTestCaseStartERKNS_9TestSuiteE
0000000000034988 T _ZN7testing8internal17TestEventRepeater16OnTestPartResultERKNS_14TestPartResultE
0000000000034ce6 T _ZN7testing8internal17TestEventRepeater16OnTestProgramEndERKNS_8UnitTestE
000000000003480e T _ZN7testing8internal17TestEventRepeater16OnTestSuiteStartERKNS_9TestSuiteE
0000000000034de6 T _ZN7testing8internal17TestEventRepeater18OnTestIterationEndERKNS_8UnitTestEi
0000000000034694 T _ZN7testing8internal17TestEventRepeater18OnTestProgramStartERKNS_8UnitTestE
0000000000034d62 T _ZN7testing8internal17TestEventRepeater20OnTestIterationStartERKNS_8UnitTestEi
0000000000034a84 T _ZN7testing8internal17TestEventRepeater22OnEnvironmentsSetUpEndERKNS_8UnitTestE
00000000000505ce W _ZN7testing8internal17TestEventRepeater22set_forwarding_enabledEb
0000000000034712 T _ZN7testing8internal17TestEventRepeater24OnEnvironmentsSetUpStartERKNS_8UnitTestE
0000000000034afe T _ZN7testing8internal17TestEventRepeater25OnEnvironmentsTearDownEndERKNS_8UnitTestE
0000000000034a06 T _ZN7testing8internal17TestEventRepeater27OnEnvironmentsTearDownStartERKNS_8UnitTestE
000000000003456a T _ZN7testing8internal17TestEventRepeater6AppendEPNS_17TestEventListenerE
0000000000034598 T _ZN7testing8internal17TestEventRepeater7ReleaseEPNS_17TestEventListenerE
0000000000034b78 T _ZN7testing8internal17TestEventRepeater9OnTestEndERKNS_8TestInfoE
0000000000050572 W _ZN7testing8internal17TestEventRepeaterC1Ev
0000000000050572 W _ZN7testing8internal17TestEventRepeaterC2Ev
000000000003453a T _ZN7testing8internal17TestEventRepeaterD0Ev
00000000000344e2 T _ZN7testing8internal17TestEventRepeaterD1Ev
00000000000344e2 T _ZN7testing8internal17TestEventRepeaterD2Ev
000000000005f78c W _ZN7testing8internal17TestPropertyKeyIsC1EOS1_
000000000004d2c8 W _ZN7testing8internal17TestPropertyKeyIsC1ERKNSt7__cxx1112basic_stringIcSt11char_traitsIcESaIcEEE
0000000000057738 W _ZN7testing8internal17TestPropertyKeyIsC1ERKS1_
000000000005f78c W _ZN7testing8internal17TestPropertyKeyIsC2EOS1_
000000000004d2c8 W _ZN7testing8internal17TestPropertyKeyIsC2ERKNSt7__cxx1112basic_stringIcSt11char_traitsIcESaIcEEE
0000000000057738 W _ZN7testing8internal17TestPropertyKeyIsC2ERKS1_
0000000000050254 W _ZN7testing8internal17TestPropertyKeyIsD1Ev
0000000000050254 W _ZN7testing8internal17TestPropertyKeyIsD2Ev
0000000000078998 R _ZN7testing8internal17kStackTraceMarkerE
0000000000015db1 W _ZN7testing8internal18CmpHelperEQFailureIiiEENS_15AssertionResultEPKcS4_RKT_RKT0_
000000000002dca2 T _ZN7testing8internal18CmpHelperSTRCASEEQEPKcS2_S2_S2_
000000000002df33 T _ZN7testing8internal18CmpHelperSTRCASENEEPKcS2_S2_S2_
0000000000024ab7 T _ZN7testing8internal18FormatFileLocationB5cxx11EPKci
00000000000253d8 T _ZN7testing8internal18GetInjectableArgvsB5cxx11Ev
000000000005ac55 W _ZN7testing8internal18InitGoogleTestImplIcEEvPiPPT_
000000000005ad5e W _ZN7testing8internal18InitGoogleTestImplIwEEvPiPPT_
000000000003fefa T _ZN7testing8internal18OsStackTraceGetter16UponLeavingGTestEv
000000000003fe60 T _ZN7testing8internal18OsStackTraceGetter17CurrentStackTraceB5cxx11Eii
0000000000050cf8 W _ZN7testing8internal18OsStackTraceGetterC1Ev
0000000000050cf8 W _ZN7testing8internal18OsStackTraceGetterC2Ev
0000000000074bfe W _ZN7testing8internal18OsStackTraceGetterD0Ev
0000000000074bd0 W _ZN7testing8internal18OsStackTraceGetterD1Ev
0000000000074bd0 W _ZN7testing8internal18OsStackTraceGetterD2Ev
0000000000052fe5 W _ZN7testing8internal18ParseNaturalNumberIiEEbRKNSt7__cxx1112basic_stringIcSt11char_traitsIcESaIcEEEPT_
0000000000053ddc W _ZN7testing8internal18PrintCharAndCodeToIaEEvT_PSo
0000000000053c83 W _ZN7testing8internal18PrintCharAndCodeToIhEEvT_PSo
0000000000053f35 W _ZN7testing8internal18PrintCharAndCodeToIwEEvT_PSo
0000000000025441 T _ZN7testing8internal18SetInjectableArgvsEPKSt6vectorINSt7__cxx1112basic_stringIcSt11char_traitsIcESaIcEEESaIS7_EE
0000000000025492 T _ZN7testing8internal18SetInjectableArgvsERKSt6vectorINSt7__cxx1112basic_stringIcSt11char_traitsIcESaIcEEESaIS7_EE
000000000006261f W _ZN7testing8internal18StreamableToStringIPcEENSt7__cxx1112basic_stringIcSt11char_traitsIcESaIcEEERKT_
00000000000626c0 W _ZN7testing8internal18StreamableToStringIPwEENSt7__cxx1112basic_stringIcSt11char_traitsIcESaIcEEERKT_
000000000005234c W _ZN7testing8internal18StreamableToStringIiEENSt7__cxx1112basic_stringIcSt11char_traitsIcESaIcEEERKT_
0000000000052438 W _ZN7testing8internal18StreamableToStringIlEENSt7__cxx1112basic_stringIcSt11char_traitsIcESaIcEEERKT_
0000000000025e15 T _ZN7testing8internal18StringFromGTestEnvEPKcS2_
0000000000016146 W _ZN7testing8internal19FormatForComparisonIiiE6FormatB5cxx11ERKi
0000000000015299 W _ZN7testing8internal19GetNotDefaultOrNullEPFvvES2_
000000000004b842 W _ZN7testing8internal19GetPrefixUntilCommaB5cxx11EPKc
000000000004af4b W _ZN7testing8internal19StripTrailingSpacesENSt7__cxx1112basic_stringIcSt11char_traitsIcESaIcEEE
0000000000026627 T _ZN7testing8internal19UniversalPrintArrayEPKDimPSo
00000000000265f5 T _ZN7testing8internal19UniversalPrintArrayEPKDsmPSo
00000000000265c3 T _ZN7testing8internal19UniversalPrintArrayEPKcmPSo
0000000000026659 T _ZN7testing8internal19UniversalPrintArrayEPKwmPSo
0000000000025572 T _ZN7testing8internal20ClearInjectableArgvsEv
000000000002d54d T _ZN7testing8internal20DoubleNearPredFormatEPKcS2_S2_ddd
000000000001d592 T _ZN7testing8internal20ExitedUnsuccessfullyEi
0000000000050159 W _ZN7testing8internal20IsUtf16SurrogatePairEww
0000000000026084 T _ZN7testing8internal20PrintBytesInObjectToEPKhmPSo
0000000000043056 T _ZN7testing8internal20ShouldRunTestOnShardEiii
000000000002aab4 T _ZN7testing8internal20SingleFailureCheckerC1EPKNS_19TestPartResultArrayENS_14TestPartResult4TypeERKNSt7__cxx1112basic_stringIcSt11char_traitsIcESaIcEEE
000000000002aab4 T _ZN7testing8internal20SingleFailureCheckerC2EPKNS_19TestPartResultArrayENS_14TestPartResult4TypeERKNSt7__cxx1112basic_stringIcSt11char_traitsIcESaIcEEE
000000000002aafe T _ZN7testing8internal20SingleFailureCheckerD1Ev
000000000002aafe T _ZN7testing8internal20SingleFailureCheckerD2Ev
000000000002f1fd T _ZN7testing8internal20StringStreamToStringEPNSt7__cxx1118basic_stringstreamIcSt11char_traitsIcESaIcEEE
00000000000271f8 T _ZN7testing8internal20TypedTestSuitePState25VerifyRegisteredTestNamesEPKcS3_iS3_
000000000004ccad W _ZN7testing8internal21GetRandomSeedFromFlagEi
000000000004b9ff W _ZN7testing8internal21UniversalTersePrinterIPKcE5PrintES3_PSo
000000000004bae2 W _ZN7testing8internal21UniversalTersePrinterIPKwE5PrintES3_PSo
00000000000162f3 W _ZN7testing8internal21UniversalTersePrinterIiE5PrintERKiPSo
0000000000021e8a T _ZN7testing8internal23DefaultDeathTestFactory6CreateEPKcNS_7MatcherIRKNSt7__cxx1112basic_stringIcSt11char_traitsIcESaIcEEEEES3_iPPNS0_9DeathTestE
0000000000050960 W _ZN7testing8internal23DefaultDeathTestFactoryC1Ev
0000000000050960 W _ZN7testing8internal23DefaultDeathTestFactoryC2Ev
0000000000074eb0 W _ZN7testing8internal23DefaultDeathTestFactoryD0Ev
0000000000074e82 W _ZN7testing8internal23DefaultDeathTestFactoryD1Ev
0000000000074e82 W _ZN7testing8internal23DefaultDeathTestFactoryD2Ev
000000000001d832 T _ZN7testing8internal23GetLastErrnoDescriptionB5cxx11Ev
000000000002825f T _ZN7testing8internal23InsertSyntheticTestCaseERKNSt7__cxx1112basic_stringIcSt11char_traitsIcESaIcEEENS0_12CodeLocationEb
0000000000031020 T _ZN7testing8internal23MakeAndRegisterTestInfoEPKcS2_S2_S2_NS0_12CodeLocationEPKvPFvvES7_PNS0_15TestFactoryBaseE
00000000000506a4 W _ZN7testing8internal23ScopedPrematureExitFileC1EPKc
00000000000506a4 W _ZN7testing8internal23ScopedPrematureExitFileC2EPKc
00000000000507c8 W _ZN7testing8internal23ScopedPrematureExitFileD1Ev
00000000000507c8 W _ZN7testing8internal23ScopedPrematureExitFileD2Ev
0000000000119700 B _ZN7testing8internal23kTestTypeIdInGoogleTestE
000000000001583d W _ZN7testing8internal24CmpHelperFloatingPointEQIdEENS_15AssertionResultEPKcS4_T_S5_
000000000004bcba W _ZN7testing8internal24DummyMatchResultListenerC1Ev
000000000004bcba W _ZN7testing8internal24DummyMatchResultListenerC2Ev
00000000000529d2 W _ZN7testing8internal24DummyMatchResultListenerD0Ev
00000000000529a4 W _ZN7testing8internal24DummyMatchResultListenerD1Ev
00000000000529a4 W _ZN7testing8internal24DummyMatchResultListenerD2Ev
0000000000028edb T _ZN7testing8internal24GetCurrentExecutableNameEv
000000000002705e T _ZN7testing8internal24HasNewFatalFailureHelper20ReportTestPartResultERKNS_14TestPartResultE
0000000000026f60 T _ZN7testing8internal24HasNewFatalFailureHelperC1Ev
0000000000026f60 T _ZN7testing8internal24HasNewFatalFailureHelperC2Ev
000000000002702e T _ZN7testing8internal24HasNewFatalFailureHelperD0Ev
0000000000026fe6 T _ZN7testing8internal24HasNewFatalFailureHelperD1Ev
0000000000026fe6 T _ZN7testing8internal24HasNewFatalFailureHelperD2Ev
000000000004bd5e W _ZN7testing8internal24InternalRunDeathTestFlagC1ERKNSt7__cxx1112basic_stringIcSt11char_traitsIcESaIcEEEiii
000000000004bd5e W _ZN7testing8internal24InternalRunDeathTestFlagC2ERKNSt7__cxx1112basic_stringIcSt11char_traitsIcESaIcEEEiii
000000000004bdb0 W _ZN7testing8internal24InternalRunDeathTestFlagD1Ev
000000000004bdb0 W _ZN7testing8internal24InternalRunDeathTestFlagD2Ev
0000000000044f82 T _ZN7testing8internal24ParseGoogleTestFlagsOnlyEPiPPc
0000000000044fac T _ZN7testing8internal24ParseGoogleTestFlagsOnlyEPiPPw
0000000000039160 T _ZN7testing8internal24XmlUnitTestResultPrinter16PrintXmlUnitTestEPSoRKNS_8UnitTestE
0000000000037552 T _ZN7testing8internal24XmlUnitTestResultPrinter17OutputXmlTestInfoEPSoPKcRKNS_8TestInfoE
000000000003881c T _ZN7testing8internal24XmlUnitTestResultPrinter17PrintXmlTestSuiteEPSoRKNS_9TestSuiteE
0000000000039ada T _ZN7testing8internal24XmlUnitTestResultPrinter17PrintXmlTestsListEPSoRKSt6vectorIPNS_9TestSuiteESaIS5_EE
000000000005064e W _ZN7testing8internal24XmlUnitTestResultPrinter18EscapeXmlAttributeERKNSt7__cxx1112basic_stringIcSt11char_traitsIcESaIcEEE
0000000000034fae T _ZN7testing8internal24XmlUnitTestResultPrinter18OnTestIterationEndERKNS_8UnitTestEi
0000000000035ed4 T _ZN7testing8internal24XmlUnitTestResultPrinter18OutputXmlAttributeEPSoRKNSt7__cxx1112basic_stringIcSt11char_traitsIcESaIcEEESA_SA_
000000000005061a W _ZN7testing8internal24XmlUnitTestResultPrinter19IsValidXmlCharacterEh
00000000000380d4 T _ZN7testing8internal24XmlUnitTestResultPrinter19OutputXmlTestResultEPSoRKNS_10TestResultE
0000000000035e12 T _ZN7testing8internal24XmlUnitTestResultPrinter21OutputXmlCDataSectionEPSoPKc
00000000000350e6 T _ZN7testing8internal24XmlUnitTestResultPrinter23ListTestsMatchingFilterERKSt6vectorIPNS_9TestSuiteESaIS4_EE
000000000003a156 T _ZN7testing8internal24XmlUnitTestResultPrinter23OutputXmlTestPropertiesEPSoRKNS_10TestResultE
00000000000505ed W _ZN7testing8internal24XmlUnitTestResultPrinter24IsNormalizableWhitespaceEh
00000000000354ba T _ZN7testing8internal24XmlUnitTestResultPrinter26RemoveInvalidXmlCharactersERKNSt7__cxx1112basic_stringIcSt11char_traitsIcESaIcEEE
0000000000039f46 T _ZN7testing8internal24XmlUnitTestResultPrinter29TestPropertiesAsXmlAttributesB5cxx11ERKNS_10TestResultE
0000000000036148 T _ZN7testing8internal24XmlUnitTestResultPrinter31OutputXmlTestSuiteForTestResultEPSoRKNS_10TestResultE
0000000000035218 T _ZN7testing8internal24XmlUnitTestResultPrinter9EscapeXmlERKNSt7__cxx1112basic_stringIcSt11char_traitsIcESaIcEEEb
0000000000034e66 T _ZN7testing8internal24XmlUnitTestResultPrinterC1EPKc
0000000000034e66 T _ZN7testing8internal24XmlUnitTestResultPrinterC2EPKc
0000000000074cda W _ZN7testing8internal24XmlUnitTestResultPrinterD0Ev
0000000000074c9c W _ZN7testing8internal24XmlUnitTestResultPrinterD1Ev
0000000000074c9c W _ZN7testing8internal24XmlUnitTestResultPrinterD2Ev
000000000003a862 T _ZN7testing8internal25JsonUnitTestResultPrinter10EscapeJsonERKNSt7__cxx1112basic_stringIcSt11char_traitsIcESaIcEEE
000000000003b1b6 T _ZN7testing8internal25JsonUnitTestResultPrinter13OutputJsonKeyEPSoRKNSt7__cxx1112basic_stringIcSt11char_traitsIcESaIcEEESA_SA_SA_b
000000000003b472 T _ZN7testing8internal25JsonUnitTestResultPrinter13OutputJsonKeyEPSoRKNSt7__cxx1112basic_stringIcSt11char_traitsIcESaIcEEESA_iSA_b
000000000003f2fa T _ZN7testing8internal25JsonUnitTestResultPrinter17PrintJsonTestListEPSoRKSt6vectorIPNS_9TestSuiteESaIS5_EE
000000000003e964 T _ZN7testing8internal25JsonUnitTestResultPrinter17PrintJsonUnitTestEPSoRKNS_8UnitTestE
000000000003a72a T _ZN7testing8internal25JsonUnitTestResultPrinter18OnTestIterationEndERKNS_8UnitTestEi
000000000003ced4 T _ZN7testing8internal25JsonUnitTestResultPrinter18OutputJsonTestInfoEPSoPKcRKNS_8TestInfoE
000000000003e038 T _ZN7testing8internal25JsonUnitTestResultPrinter18PrintJsonTestSuiteEPSoRKNS_9TestSuiteE
000000000003dbfe T _ZN7testing8internal25JsonUnitTestResultPrinter20OutputJsonTestResultEPSoRKNS_10TestResultE
000000000003f79c T _ZN7testing8internal25JsonUnitTestResultPrinter20TestPropertiesAsJsonERKNS_10TestResultERKNSt7__cxx1112basic_stringIcSt11char_traitsIcESaIcEEE
000000000003b718 T _ZN7testing8internal25JsonUnitTestResultPrinter32OutputJsonTestSuiteForTestResultEPSoRKNS_10TestResultE
000000000003a5e2 T _ZN7testing8internal25JsonUnitTestResultPrinterC1EPKc
000000000003a5e2 T _ZN7testing8internal25JsonUnitTestResultPrinterC2EPKc
0000000000074c6c W _ZN7testing8internal25JsonUnitTestResultPrinterD0Ev
0000000000074c2e W _ZN7testing8internal25JsonUnitTestResultPrinterD1Ev
0000000000074c2e W _ZN7testing8internal25JsonUnitTestResultPrinterD2Ev
0000000000025cb3 T _ZN7testing8internal25OutputFlagAlsoCheckEnvVarB5cxx11Ev
000000000005049a W _ZN7testing8internal26BriefUnitTestResultPrinter11OnTestStartERKNS_8TestInfoE
00000000000504c2 W _ZN7testing8internal26BriefUnitTestResultPrinter13OnTestCaseEndERKNS_9TestSuiteE
00000000000503fd W _ZN7testing8internal26BriefUnitTestResultPrinter13PrintTestNameEPKcS3_
00000000000504ae W _ZN7testing8internal26BriefUnitTestResultPrinter14OnTestDisabledERKNS_8TestInfoE
0000000000050486 W _ZN7testing8internal26BriefUnitTestResultPrinter15OnTestCaseStartERKNS_9TestSuiteE
0000000000034022 T _ZN7testing8internal26BriefUnitTestResultPrinter16OnTestPartResultERKNS_14TestPartResultE
00000000000504fe W _ZN7testing8internal26BriefUnitTestResultPrinter16OnTestProgramEndERKNS_8UnitTestE
00000000000341ac T _ZN7testing8internal26BriefUnitTestResultPrinter18OnTestIterationEndERKNS_8UnitTestEi
0000000000050434 W _ZN7testing8internal26BriefUnitTestResultPrinter18OnTestProgramStartERKNS_8UnitTestE
0000000000050448 W _ZN7testing8internal26BriefUnitTestResultPrinter20OnTestIterationStartERKNS_8UnitTestEi
0000000000050472 W _ZN7testing8internal26BriefUnitTestResultPrinter22OnEnvironmentsSetUpEndERKNS_8UnitTestE
000000000005045e W _ZN7testing8internal26BriefUnitTestResultPrinter24OnEnvironmentsSetUpStartERKNS_8UnitTestE
00000000000504ea W _ZN7testing8internal26BriefUnitTestResultPrinter25OnEnvironmentsTearDownEndERKNS_8UnitTestE
00000000000504d6 W _ZN7testing8internal26BriefUnitTestResultPrinter27OnEnvironmentsTearDownStartERKNS_8UnitTestE
0000000000034066 T _ZN7testing8internal26BriefUnitTestResultPrinter9OnTestEndERKNS_8TestInfoE
0000000000050bbc W _ZN7testing8internal26BriefUnitTestResultPrinterC1Ev
0000000000050bbc W _ZN7testing8internal26BriefUnitTestResultPrinterC2Ev
0000000000074d38 W _ZN7testing8internal26BriefUnitTestResultPrinterD0Ev
0000000000074d0a W _ZN7testing8internal26BriefUnitTestResultPrinterD1Ev
0000000000074d0a W _ZN7testing8internal26BriefUnitTestResultPrinterD2Ev
0000000000030a08 T _ZN7testing8internal26GoogleTestFailureExceptionC1ERKNS_14TestPartResultE
0000000000030a08 T _ZN7testing8internal26GoogleTestFailureExceptionC2ERKNS_14TestPartResultE
000000000004c9ee W _ZN7testing8internal26GoogleTestFailureExceptionD0Ev
000000000004c9c0 W _ZN7testing8internal26GoogleTestFailureExceptionD1Ev
000000000004c9c0 W _ZN7testing8internal26GoogleTestFailureExceptionD2Ev
000000000003127f T _ZN7testing8internal26ReportInvalidTestSuiteTypeEPKcNS0_12CodeLocationE
0000000000075892 W _ZN7testing8internal26ThreadLocalValueHolderBaseC1Ev
0000000000075892 W _ZN7testing8internal26ThreadLocalValueHolderBaseC2Ev
00000000000751a0 W _ZN7testing8internal26ThreadLocalValueHolderBaseD0Ev
0000000000075182 W _ZN7testing8internal26ThreadLocalValueHolderBaseD1Ev
0000000000075182 W _ZN7testing8internal26ThreadLocalValueHolderBaseD2Ev
000000000006a189 W _ZN7testing8internal27CheckedDowncastToActualTypeINS0_11ThreadLocalIPNS_31TestPartResultReporterInterfaceEE11ValueHolderENS0_26ThreadLocalValueHolderBaseEEEPT_PT0_
0000000000062d5b W _ZN7testing8internal27CheckedDowncastToActualTypeINS0_11ThreadLocalISt6vectorINS0_9TraceInfoESaIS4_EEE11ValueHolderENS0_26ThreadLocalValueHolderBaseEEEPT_PT0_
00000000000355c8 T _ZN7testing8internal27FormatTimeInMillisAsSecondsB5cxx11El
00000000000a72b0 D _ZN7testing8internal27OsStackTraceGetterInterface19kElidedFramesMarkerE
0000000000050c8c W _ZN7testing8internal27OsStackTraceGetterInterfaceC1Ev
0000000000050c8c W _ZN7testing8internal27OsStackTraceGetterInterfaceC2Ev
0000000000050cc8 W _ZN7testing8internal27OsStackTraceGetterInterfaceD0Ev
0000000000050caa W _ZN7testing8internal27OsStackTraceGetterInterfaceD1Ev
0000000000050caa W _ZN7testing8internal27OsStackTraceGetterInterfaceD2Ev
000000000003335a T _ZN7testing8internal27PrettyUnitTestResultPrinter11OnTestStartERKNS_8TestInfoE
000000000003362e T _ZN7testing8internal27PrettyUnitTestResultPrinter13OnTestCaseEndERKNS_9TestSuiteE
0000000000050377 W _ZN7testing8internal27PrettyUnitTestResultPrinter13PrintTestNameEPKcS3_
00000000000333ce T _ZN7testing8internal27PrettyUnitTestResultPrinter14OnTestDisabledERKNS_8TestInfoE
0000000000033218 T _ZN7testing8internal27PrettyUnitTestResultPrinter15OnTestCaseStartERKNS_9TestSuiteE
0000000000033442 T _ZN7testing8internal27PrettyUnitTestResultPrinter16OnTestPartResultERKNS_14TestPartResultE
00000000000503ea W _ZN7testing8internal27PrettyUnitTestResultPrinter16OnTestProgramEndERKNS_8UnitTestE
00000000000337de T _ZN7testing8internal27PrettyUnitTestResultPrinter16PrintFailedTestsERKNS_8UnitTestE
0000000000033b30 T _ZN7testing8internal27PrettyUnitTestResultPrinter17PrintSkippedTestsERKNS_8UnitTestE
0000000000033cb4 T _ZN7testing8internal27PrettyUnitTestResultPrinter18OnTestIterationEndERKNS_8UnitTestEi
00000000000503ae W _ZN7testing8internal27PrettyUnitTestResultPrinter18OnTestProgramStartERKNS_8UnitTestE
0000000000032f2a T _ZN7testing8internal27PrettyUnitTestResultPrinter20OnTestIterationStartERKNS_8UnitTestEi
0000000000033a30 T _ZN7testing8internal27PrettyUnitTestResultPrinter21PrintFailedTestSuitesERKNS_8UnitTestE
00000000000503c2 W _ZN7testing8internal27PrettyUnitTestResultPrinter22OnEnvironmentsSetUpEndERKNS_8UnitTestE
00000000000331ca T _ZN7testing8internal27PrettyUnitTestResultPrinter24OnEnvironmentsSetUpStartERKNS_8UnitTestE
00000000000503d6 W _ZN7testing8internal27PrettyUnitTestResultPrinter25OnEnvironmentsTearDownEndERKNS_8UnitTestE
0000000000033790 T _ZN7testing8internal27PrettyUnitTestResultPrinter27OnEnvironmentsTearDownStartERKNS_8UnitTestE
0000000000033486 T _ZN7testing8internal27PrettyUnitTestResultPrinter9OnTestEndERKNS_8TestInfoE
0000000000050b8e W _ZN7testing8internal27PrettyUnitTestResultPrinterC1Ev
0000000000050b8e W _ZN7testing8internal27PrettyUnitTestResultPrinterC2Ev
0000000000074d96 W _ZN7testing8internal27PrettyUnitTestResultPrinterD0Ev
0000000000074d68 W _ZN7testing8internal27PrettyUnitTestResultPrinterD1Ev
0000000000074d68 W _ZN7testing8internal27PrettyUnitTestResultPrinterD2Ev
000000000005a805 W _ZN7testing8internal28ParseGoogleTestFlagsOnlyImplIcEEvPiPPT_
000000000005aa2d W _ZN7testing8internal28ParseGoogleTestFlagsOnlyImplIwEEvPiPPT_
00000000000223cd T _ZN7testing8internal29ParseInternalRunDeathTestFlagEv
0000000000024778 T _ZN7testing8internal2RE12PartialMatchEPKcRKS1_
00000000000247f2 T _ZN7testing8internal2RE4InitEPKc
00000000000246fe T _ZN7testing8internal2RE9FullMatchEPKcRKS1_
00000000000246b2 T _ZN7testing8internal2RED1Ev
00000000000246b2 T _ZN7testing8internal2RED2Ev
000000000002d3e3 T _ZN7testing8internal30GetBoolAssertionFailureMessageB5cxx11ERKNS_15AssertionResultEPKcS5_S5_
000000000004c17e W _ZN7testing8internal30ParameterizedTestSuiteRegistry13RegisterTestsEv
0000000000050aae W _ZN7testing8internal30ParameterizedTestSuiteRegistryC1Ev
0000000000050aae W _ZN7testing8internal30ParameterizedTestSuiteRegistryC2Ev
000000000004c0c4 W _ZN7testing8internal30ParameterizedTestSuiteRegistryD1Ev
000000000004c0c4 W _ZN7testing8internal30ParameterizedTestSuiteRegistryD2Ev
000000000003036c T _ZN7testing8internal30ReportFailureInUnknownLocationENS_14TestPartResult4TypeERKNSt7__cxx1112basic_stringIcSt11char_traitsIcESaIcEEE
000000000004292d T _ZN7testing8internal30WriteToShardStatusFileIfNeededEv
0000000000043f82 T _ZN7testing8internal31GetCurrentOsStackTraceExceptTopB5cxx11Ei
0000000000035808 T _ZN7testing8internal32FormatEpochTimeInMillisAsIso8601B5cxx11El
0000000000015fde W _ZN7testing8internal33FormatForComparisonFailureMessageIiiEENSt7__cxx1112basic_stringIcSt11char_traitsIcESaIcEEERKT_RKT0_
000000000002808d T _ZN7testing8internal33GetIgnoredParameterizedTestSuitesB5cxx11Ev
000000000002863e T _ZN7testing8internal34RegisterTypeParameterizedTestSuiteEPKcNS0_12CodeLocationE
0000000000028712 T _ZN7testing8internal34TypeParameterizedTestSuiteRegistry17RegisterTestSuiteEPKcNS0_12CodeLocationE
0000000000028868 T _ZN7testing8internal34TypeParameterizedTestSuiteRegistry21RegisterInstantiationEPKc
0000000000028ae6 T _ZN7testing8internal34TypeParameterizedTestSuiteRegistry22CheckForInstantiationsEv
000000000004c266 W _ZN7testing8internal34TypeParameterizedTestSuiteRegistry30TypeParameterizedTestSuiteInfoC1ENS0_12CodeLocationE
000000000007177e W _ZN7testing8internal34TypeParameterizedTestSuiteRegistry30TypeParameterizedTestSuiteInfoC1EOS2_
000000000004fc16 W _ZN7testing8internal34TypeParameterizedTestSuiteRegistry30TypeParameterizedTestSuiteInfoC1ERKS2_
000000000004c266 W _ZN7testing8internal34TypeParameterizedTestSuiteRegistry30TypeParameterizedTestSuiteInfoC2ENS0_12CodeLocationE
000000000007177e W _ZN7testing8internal34TypeParameterizedTestSuiteRegistry30TypeParameterizedTestSuiteInfoC2EOS2_
000000000004fc16 W _ZN7testing8internal34TypeParameterizedTestSuiteRegistry30TypeParameterizedTestSuiteInfoC2ERKS2_
000000000004fbf6 W _ZN7testing8internal34TypeParameterizedTestSuiteRegistry30TypeParameterizedTestSuiteInfoD1Ev
000000000004fbf6 W _ZN7testing8internal34TypeParameterizedTestSuiteRegistry30TypeParameterizedTestSuiteInfoD2Ev
0000000000050b4e W _ZN7testing8internal34TypeParameterizedTestSuiteRegistryC1Ev
0000000000050b4e W _ZN7testing8internal34TypeParameterizedTestSuiteRegistryC2Ev
0000000000050b6e W _ZN7testing8internal34TypeParameterizedTestSuiteRegistryD1Ev
0000000000050b6e W _ZN7testing8internal34TypeParameterizedTestSuiteRegistryD2Ev
000000000002ac4e T _ZN7testing8internal35DefaultGlobalTestPartResultReporter20ReportTestPartResultERKNS_14TestPartResultE
000000000002ac10 T _ZN7testing8internal35DefaultGlobalTestPartResultReporterC1EPNS0_12UnitTestImplE
000000000002ac10 T _ZN7testing8internal35DefaultGlobalTestPartResultReporterC2EPNS0_12UnitTestImplE
0000000000074e52 W _ZN7testing8internal35DefaultGlobalTestPartResultReporterD0Ev
0000000000074e24 W _ZN7testing8internal35DefaultGlobalTestPartResultReporterD1Ev
0000000000074e24 W _ZN7testing8internal35DefaultGlobalTestPartResultReporterD2Ev
0000000000059173 W _ZN7testing8internal35HandleExceptionsInMethodIfSupportedINS0_12UnitTestImplEbEET0_PT_MS4_FS3_vEPKc
0000000000058221 W _ZN7testing8internal35HandleExceptionsInMethodIfSupportedINS0_15TestFactoryBaseEPNS_4TestEEET0_PT_MS6_FS5_vEPKc
0000000000057e4d W _ZN7testing8internal35HandleExceptionsInMethodIfSupportedINS_4TestEvEET0_PT_MS4_FS3_vEPKc
00000000000588da W _ZN7testing8internal35HandleExceptionsInMethodIfSupportedINS_9TestSuiteEvEET0_PT_MS4_FS3_vEPKc
000000000005016e W _ZN7testing8internal37CreateCodePointFromUtf16SurrogatePairEww
0000000000024cb0 T _ZN7testing8internal37FormatCompilerIndependentFileLocationB5cxx11EPKci
000000000002acf4 T _ZN7testing8internal38DefaultPerThreadTestPartResultReporter20ReportTestPartResultERKNS_14TestPartResultE
000000000002acb6 T _ZN7testing8internal38DefaultPerThreadTestPartResultReporterC1EPNS0_12UnitTestImplE
000000000002acb6 T _ZN7testing8internal38DefaultPerThreadTestPartResultReporterC2EPNS0_12UnitTestImplE
0000000000074df4 W _ZN7testing8internal38DefaultPerThreadTestPartResultReporterD0Ev
0000000000074dc6 W _ZN7testing8internal38DefaultPerThreadTestPartResultReporterD1Ev
0000000000074dc6 W _ZN7testing8internal38DefaultPerThreadTestPartResultReporterD2Ev
000000000006105b W _ZN7testing8internal38HandleSehExceptionsInMethodIfSupportedINS0_12UnitTestImplEbEET0_PT_MS4_FS3_vEPKc
0000000000060068 W _ZN7testing8internal38HandleSehExceptionsInMethodIfSupportedINS0_15TestFactoryBaseEPNS_4TestEEET0_PT_MS6_FS5_vEPKc
000000000005ff06 W _ZN7testing8internal38HandleSehExceptionsInMethodIfSupportedINS_4TestEvEET0_PT_MS4_FS3_vEPKc
00000000000606d5 W _ZN7testing8internal38HandleSehExceptionsInMethodIfSupportedINS_9TestSuiteEvEET0_PT_MS4_FS3_vEPKc
00000000000286df T _ZN7testing8internal47RegisterTypeParameterizedTestSuiteInstantiationEPKc
00000000000163c5 W _ZN7testing8internal52internal_stream_operator_without_lexical_name_lookup13StreamPrinter10PrintValueIivEEDTcvvlsdefp0_fp_ERKT_PSo
000000000004abdc W _ZN7testing8internal5MutexC1Ev
000000000004abdc W _ZN7testing8internal5MutexC2Ev
000000000004acc8 W _ZN7testing8internal5MutexD1Ev
000000000004acc8 W _ZN7testing8internal5MutexD2Ev
000000000004feb0 W _ZN7testing8internal5Timer7ElapsedEv
000000000004fe8c W _ZN7testing8internal5TimerC1Ev
000000000004fe8c W _ZN7testing8internal5TimerC2Ev
000000000004b0bb W _ZN7testing8internal5posix10StrCaseCmpEPKcS3_
000000000004b186 W _ZN7testing8internal5posix4ReadEiPvj
000000000004b055 W _ZN7testing8internal5posix4StatEPKcP4stat
000000000004b232 W _ZN7testing8internal5posix5AbortEv
000000000004b1de W _ZN7testing8internal5posix5CloseEi
000000000004b119 W _ZN7testing8internal5posix5FOpenEPKcS3_
000000000004b07e W _ZN7testing8internal5posix5IsDirERK4stat
000000000004b1b2 W _ZN7testing8internal5posix5WriteEiPKvj
000000000004b168 W _ZN7testing8internal5posix6FCloseEP8_IO_FILE
000000000004b142 W _ZN7testing8internal5posix6FDOpenEiPKc
000000000004b037 W _ZN7testing8internal5posix6FileNoEP8_IO_FILE
000000000004b214 W _ZN7testing8internal5posix6GetEnvEPKc
000000000004b0e4 W _ZN7testing8internal5posix6IsATTYEi
000000000004b0a0 W _ZN7testing8internal5posix8DoIsATTYEi
000000000004b1f9 W _ZN7testing8internal5posix8StrErrorEi
0000000000043fdb T _ZN7testing8internal6IsTrueEb
000000000004b990 W _ZN7testing8internal6Random6ReseedEj
0000000000027962 T _ZN7testing8internal6Random8GenerateEj
0000000000078a34 R _ZN7testing8internal6Random9kMaxRangeE
000000000004b974 W _ZN7testing8internal6RandomC1Ej
000000000004b974 W _ZN7testing8internal6RandomC2Ej
000000000002f0dc T _ZN7testing8internal6String10FormatByteB5cxx11Eh
000000000002f08e T _ZN7testing8internal6String12FormatHexIntB5cxx11Ei
000000000002b1e2 T _ZN7testing8internal6String13CStringEqualsEPKcS3_
000000000002efa0 T _ZN7testing8internal6String15FormatHexUInt32B5cxx11Ej
000000000002ee50 T _ZN7testing8internal6String15FormatIntWidth2B5cxx11Ei
000000000002eea2 T _ZN7testing8internal6String15FormatIntWidthNB5cxx11Eii
000000000002e928 T _ZN7testing8internal6String15ShowWideCStringB5cxx11EPKw
000000000002e9de T _ZN7testing8internal6String17WideCStringEqualsEPKwS3_
000000000002edc6 T _ZN7testing8internal6String23EndsWithCaseInsensitiveERKNSt7__cxx1112basic_stringIcSt11char_traitsIcESaIcEEES9_
000000000002ed2a T _ZN7testing8internal6String28CaseInsensitiveCStringEqualsEPKcS3_
000000000002ed78 T _ZN7testing8internal6String32CaseInsensitiveWideCStringEqualsEPKwS3_
0000000000057b79 W _ZN7testing8internal7CountIfISt6vectorINS_14TestPartResultESaIS3_EEPFbRKS3_EEEiRKT_T0_
000000000005844f W _ZN7testing8internal7CountIfISt6vectorIPNS_8TestInfoESaIS4_EEPFbPKS3_EEEiRKT_T0_
0000000000055174 W _ZN7testing8internal7CountIfISt6vectorIPNS_9TestSuiteESaIS4_EEPFbPKS3_EEEiRKT_T0_
0000000000059c20 W _ZN7testing8internal7ForEachISt6vectorIPNS_11EnvironmentESaIS4_EEPFvS4_EEEvRKT_T0_
0000000000058c48 W _ZN7testing8internal7ForEachISt6vectorIPNS_17TestEventListenerESaIS4_EEPFvS4_EEEvRKT_T0_
00000000000586f0 W _ZN7testing8internal7ForEachISt6vectorIPNS_8TestInfoESaIS4_EEPFvS4_EEEvRKT_T0_
0000000000052192 W _ZN7testing8internal7ForEachISt6vectorIPNS_9TestSuiteESaIS4_EEPFvS4_EEEvRKT_T0_
000000000004ae01 W _ZN7testing8internal7IsDigitEc
000000000004ae28 W _ZN7testing8internal7IsSpaceEc
00000000000262b3 T _ZN7testing8internal7PrintToEDiPSo
00000000000266df T _ZN7testing8internal7PrintToEPKDiPSo
00000000000266b5 T _ZN7testing8internal7PrintToEPKDsPSo
000000000002668b T _ZN7testing8internal7PrintToEPKcPSo
0000000000026709 T _ZN7testing8internal7PrintToEPKwPSo
000000000004b9ab W _ZN7testing8internal7PrintToERKNSt7__cxx1112basic_stringIcSt11char_traitsIcESaIcEEEPSo
000000000004b9d5 W _ZN7testing8internal7PrintToERKNSt7__cxx1112basic_stringIwSt11char_traitsIwESaIwEEEPSo
0000000000026262 T _ZN7testing8internal7PrintToEaPSo
0000000000026238 T _ZN7testing8internal7PrintToEhPSo
0000000000026549 T _ZN7testing8internal7PrintToEnPSo
000000000002634c T _ZN7testing8internal7PrintToEoPSo
000000000002628c T _ZN7testing8internal7PrintToEwPSo
0000000000016371 W _ZN7testing8internal7PrintToIiEEvRKT_PSo
0000000000058afe W _ZN7testing8internal7ShuffleIiEEvPNS0_6RandomEPSt6vectorIT_SaIS5_EE
000000000004af2a W _ZN7testing8internal7ToUpperEc
00000000000157d5 W _ZN7testing8internal8EqHelper7CompareIiiLPv0EEENS_15AssertionResultEPKcS6_RKT_RKT0_
0000000000022f22 T _ZN7testing8internal8FilePath11ConcatPathsERKS1_S3_
0000000000022c46 T _ZN7testing8internal8FilePath12MakeFileNameERKS1_S3_iPKc
00000000000225da T _ZN7testing8internal8FilePath13GetCurrentDirEv
000000000002325a T _ZN7testing8internal8FilePath22GenerateUniqueFileNameERKS1_S3_PKc
000000000004b776 W _ZN7testing8internal8FilePath3SetERKS1_
0000000000023614 T _ZN7testing8internal8FilePath9NormalizeEv
000000000004b6ee W _ZN7testing8internal8FilePathC1ERKNSt7__cxx1112basic_stringIcSt11char_traitsIcESaIcEEE
000000000004b6c4 W _ZN7testing8internal8FilePathC1ERKS1_
000000000004b634 W _ZN7testing8internal8FilePathC1Ev
000000000004b6ee W _ZN7testing8internal8FilePathC2ERKNSt7__cxx1112basic_stringIcSt11char_traitsIcESaIcEEE
000000000004b6c4 W _ZN7testing8internal8FilePathC2ERKS1_
000000000004b634 W _ZN7testing8internal8FilePathC2Ev
000000000004d4da W _ZN7testing8internal8FilePathD1Ev
000000000004d4da W _ZN7testing8internal8FilePathD2Ev
000000000004b748 W _ZN7testing8internal8FilePathaSERKS1_
000000000001518e W _ZN7testing8internal8GTestLog9GetStreamEv
0000000000024e4e T _ZN7testing8internal8GTestLogC1ENS0_16GTestLogSeverityEPKci
0000000000024e4e T _ZN7testing8internal8GTestLogC2ENS0_16GTestLogSeverityEPKci
0000000000024f8a T _ZN7testing8internal8GTestLogD1Ev
0000000000024f8a T _ZN7testing8internal8GTestLogD2Ev
0000000000028eaf T _ZN7testing8internal8GetArgvsB5cxx11Ev
000000000004aeb4 W _ZN7testing8internal8IsXDigitEDi
000000000004ae74 W _ZN7testing8internal8IsXDigitEDs
000000000004ae4e W _ZN7testing8internal8IsXDigitEc
000000000004aeef W _ZN7testing8internal8IsXDigitEw
000000000001dd32 T _ZN7testing8internal9DeathTest11LastMessageEv
00000000001195c0 B _ZN7testing8internal9DeathTest24last_death_test_message_B5cxx11E
000000000001dd4c T _ZN7testing8internal9DeathTest27set_last_death_test_messageERKNSt7__cxx1112basic_stringIcSt11char_traitsIcESaIcEEE
000000000001dc58 T _ZN7testing8internal9DeathTest6CreateEPKcNS_7MatcherIRKNSt7__cxx1112basic_stringIcSt11char_traitsIcESaIcEEEEES3_iPPS1_
000000000001db92 T _ZN7testing8internal9DeathTestC1Ev
000000000001db92 T _ZN7testing8internal9DeathTestC2Ev
000000000004ef54 W _ZN7testing8internal9DeathTestD0Ev
000000000004ef36 W _ZN7testing8internal9DeathTestD1Ev
000000000004ef36 W _ZN7testing8internal9DeathTestD2Ev
000000000002d068 T _ZN7testing8internal9EqFailureEPKcS2_RKNSt7__cxx1112basic_stringIcSt11char_traitsIcESaIcEEESA_b
00000000000713df W _ZN7testing8internal9EqMatcherINSt7__cxx1112basic_stringIcSt11char_traitsIcESaIcEEEE11NegatedDescEv
00000000000713f0 W _ZN7testing8internal9EqMatcherINSt7__cxx1112basic_stringIcSt11char_traitsIcESaIcEEEE4DescEv
000000000006c748 W _ZN7testing8internal9EqMatcherINSt7__cxx1112basic_stringIcSt11char_traitsIcESaIcEEEEC1EOS8_
000000000005c1f6 W _ZN7testing8internal9EqMatcherINSt7__cxx1112basic_stringIcSt11char_traitsIcESaIcEEEEC1ERKS7_
000000000006c748 W _ZN7testing8internal9EqMatcherINSt7__cxx1112basic_stringIcSt11char_traitsIcESaIcEEEEC2EOS8_
000000000005c1f6 W _ZN7testing8internal9EqMatcherINSt7__cxx1112basic_stringIcSt11char_traitsIcESaIcEEEEC2ERKS7_
000000000004f5b4 W _ZN7testing8internal9EqMatcherINSt7__cxx1112basic_stringIcSt11char_traitsIcESaIcEEEED1Ev
000000000004f5b4 W _ZN7testing8internal9EqMatcherINSt7__cxx1112basic_stringIcSt11char_traitsIcESaIcEEEED2Ev
00000000000154f0 W _ZN7testing8internal9GetTypeIdI12GuidanceTestEEPKvv
0000000000047a64 t _ZN7testing8internal9GetTypeIdINS0_12_GLOBAL__N_111FailureTestEEEPKvv
0000000000054d7e W _ZN7testing8internal9GetTypeIdINS_4TestEEEPKvv
000000000004a9fc W _ZN7testing8internal9MutexBase4LockEv
000000000004aaf0 W _ZN7testing8internal9MutexBase6UnlockEv
0000000000044303 T _ZN7testing8internal9ParseFlagEPKcS2_Pi
000000000004b7ee W _ZN7testing8internal9SkipCommaEPKc
00000000000738ac W _ZN7testing8internal9TraceInfoC1EOS1_
0000000000067f04 W _ZN7testing8internal9TraceInfoC1ERKS1_
0000000000050d26 W _ZN7testing8internal9TraceInfoC1Ev
00000000000738ac W _ZN7testing8internal9TraceInfoC2EOS1_
0000000000067f04 W _ZN7testing8internal9TraceInfoC2ERKS1_
0000000000050d26 W _ZN7testing8internal9TraceInfoC2Ev
0000000000050d4a W _ZN7testing8internal9TraceInfoD1Ev
0000000000050d4a W _ZN7testing8internal9TraceInfoD2Ev
00000000000270b3 t _ZN7testing8internalL10SkipSpacesEPKc
000000000001d462 t _ZN7testing8internalL11ExitSummaryEi
00000000000255b2 t _ZN7testing8internalL12FlagToEnvVarEPKc
00000000000785f0 r _ZN7testing8internalL12kUnknownFileE
0000000000024fda t _ZN7testing8internalL13CaptureStreamEiPKcPPNS0_14CapturedStreamE
0000000000032c69 t _ZN7testing8internalL13ColoredPrintfENS0_12_GLOBAL__N_110GTestColorEPKcz
000000000002a637 t _ZN7testing8internalL13HasOneFailureEPKcS2_S2_RKNS_19TestPartResultArrayENS_14TestPartResult4TypeERKNSt7__cxx1112basic_stringIcSt11char_traitsIcESaIcEEE
0000000000078704 r _ZN7testing8internalL13kStdErrFilenoE
0000000000078700 r _ZN7testing8internalL13kStdOutFilenoE
000000000001d76d t _ZN7testing8internalL14DeathTestAbortERKNSt7__cxx1112basic_stringIcSt11char_traitsIcESaIcEEE
0000000000044094 t _ZN7testing8internalL14ParseFlagValueEPKcS2_b
00000000000435dc t _ZN7testing8internalL14PrintOnOneLineEPKci
00000000000201de t _ZN7testing8internalL14StackGrowsDownEv
00000000000760f0 r _ZN7testing8internalL14kMaxBiggestIntE
00000000000779b0 r _ZN7testing8internalL14kMaxBiggestIntE
000000000007c858 r _ZN7testing8internalL14kMaxBiggestIntE
0000000000079410 r _ZN7testing8internalL14kMaxCodePoint1E
0000000000079414 r _ZN7testing8internalL14kMaxCodePoint2E
0000000000079418 r _ZN7testing8internalL14kMaxCodePoint3E
000000000007941c r _ZN7testing8internalL14kMaxCodePoint4E
0000000000077a2c r _ZN7testing8internalL14kMaxRandomSeedE
000000000007852b r _ZN7testing8internalL14kPathSeparatorE
00000000000225c3 t _ZN7testing8internalL15IsPathSeparatorEc
0000000000027c9a t _ZN7testing8internalL15TestSuiteFailedEPKNS_9TestSuiteE
0000000000027c5c t _ZN7testing8internalL15TestSuitePassedEPKNS_9TestSuiteE
0000000000077f3e r _ZN7testing8internalL15kDeathTestLivedE
0000000000077f40 r _ZN7testing8internalL15kDeathTestThrewE
0000000000079ac8 r _ZN7testing8internalL15kTypeParamLabelE
0000000000032829 t _ZN7testing8internalL16GetAnsiColorCodeENS0_12_GLOBAL__N_110GTestColorE
000000000004218e t _ZN7testing8internalL16SetUpEnvironmentEPNS_11EnvironmentE
0000000000079ad8 r _ZN7testing8internalL16kValueParamLabelE
00000000000250fe t _ZN7testing8internalL17GetCapturedStreamEPPNS0_14CapturedStreamE
0000000000044d84 t _ZN7testing8internalL17LoadFlagsFromFileERKNSt7__cxx1112basic_stringIcSt11char_traitsIcESaIcEEE
00000000000357d9 t _ZN7testing8internalL17PortableLocaltimeElP2tm
00000000000444a7 t _ZN7testing8internalL17PrintColorEncodedEPKc
0000000000119718 b _ZN7testing8internalL17g_captured_stderrE
0000000000119720 b _ZN7testing8internalL17g_captured_stdoutE
0000000000076120 r _ZN7testing8internalL17kDeathTestUseForkE
00000000000779f0 r _ZN7testing8internalL17kDeathTestUseForkE
000000000007c880 r _ZN7testing8internalL17kDeathTestUseForkE
000000000001ed5e t _ZN7testing8internalL18CreateArgvFromArgsERSt6vectorINSt7__cxx1112basic_stringIcSt11char_traitsIcESaIcEEESaIS7_EE
0000000000027b56 t _ZN7testing8internalL18GTestIsInitializedEv
000000000002617c t _ZN7testing8internalL18GetCharWidthPrefixEDi
0000000000026165 t _ZN7testing8internalL18GetCharWidthPrefixEDs
0000000000026139 t _ZN7testing8internalL18GetCharWidthPrefixEa
0000000000026123 t _ZN7testing8internalL18GetCharWidthPrefixEc
000000000002614f t _ZN7testing8internalL18GetCharWidthPrefixEh
0000000000026190 t _ZN7testing8internalL18GetCharWidthPrefixEw
0000000000027765 t _ZN7testing8internalL18OpenFileForWritingERKNSt7__cxx1112basic_stringIcSt11char_traitsIcESaIcEEE
0000000000027cd8 t _ZN7testing8internalL18ShouldRunTestSuiteEPKNS_9TestSuiteE
00000000000270e5 t _ZN7testing8internalL18SplitIntoTestNamesEPKc
0000000000077f3f r _ZN7testing8internalL18kDeathTestReturnedE
0000000000044652 t _ZN7testing8internalL19ParseGoogleTestFlagEPKc
0000000000032785 t _ZN7testing8internalL19PrintTestPartResultERKNS_14TestPartResultE
00000000000421b8 t _ZN7testing8internalL19TearDownEnvironmentEPNS_11EnvironmentE
0000000000076100 r _ZN7testing8internalL19kDeathTestStyleFlagE
00000000000779d0 r _ZN7testing8internalL19kDeathTestStyleFlagE
000000000007c860 r _ZN7testing8internalL19kDeathTestStyleFlagE
0000000000029862 t _ZN7testing8internalL20PatternMatchesStringERKNSt7__cxx1112basic_stringIcSt11char_traitsIcESaIcEEEPKcSA_
000000000004575a t _ZN7testing8internalL20PrintAsCharLiteralToIDiEENS0_10CharFormatET_PSo
00000000000475d7 t _ZN7testing8internalL20PrintAsCharLiteralToIaEENS0_10CharFormatET_PSo
0000000000047394 t _ZN7testing8internalL20PrintAsCharLiteralToIhEENS0_10CharFormatET_PSo
0000000000047817 t _ZN7testing8internalL20PrintAsCharLiteralToIwEENS0_10CharFormatET_PSo
0000000000046086 t _ZN7testing8internalL20PrintCharsAsStringToIDiEENS0_10CharFormatEPKT_mPSo
0000000000045f4b t _ZN7testing8internalL20PrintCharsAsStringToIDsEENS0_10CharFormatEPKT_mPSo
0000000000045e15 t _ZN7testing8internalL20PrintCharsAsStringToIcEENS0_10CharFormatEPKT_mPSo
00000000000461bd t _ZN7testing8internalL20PrintCharsAsStringToIwEENS0_10CharFormatEPKT_mPSo
0000000000027bb7 t _ZN7testing8internalL20SumOverTestSuiteListERKSt6vectorIPNS_9TestSuiteESaIS3_EEMS2_KFivE
000000000001d8dd t _ZN7testing8internalL21FailFromInternalErrorEi
000000000001e54d t _ZN7testing8internalL21FormatDeathTestOutputERKNSt7__cxx1112basic_stringIcSt11char_traitsIcESaIcEEE
0000000000020180 t _ZN7testing8internalL21StackLowerThanAddressEPKvPb
0000000000119728 b _ZN7testing8internalL21g_injected_test_argvsE
000000000001d5eb t _ZN7testing8internalL22DeathTestThreadWarningEm
000000000001fc19 t _ZN7testing8internalL22ExecDeathTestChildMainEPv
00000000000260b6 t _ZN7testing8internalL22PrintAsStringLiteralToEDiPSo
00000000000261d6 t _ZN7testing8internalL22PrintAsStringLiteralToEDsPSo
00000000000261a4 t _ZN7testing8internalL22PrintAsStringLiteralToEcPSo
0000000000026209 t _ZN7testing8internalL22PrintAsStringLiteralToEwPSo
000000000002022d t _ZN7testing8internalL23ExecDeathTestSpawnChildEPKPci
00000000000443ea t _ZN7testing8internalL23HasGoogleTestFlagPrefixEPKc
0000000000045ad9 t _ZN7testing8internalL23UniversalPrintCharArrayIDiEEvPKT_mPSo
0000000000045a54 t _ZN7testing8internalL23UniversalPrintCharArrayIDsEEvPKT_mPSo
00000000000459d3 t _ZN7testing8internalL23UniversalPrintCharArrayIcEEvPKT_mPSo
0000000000045b5d t _ZN7testing8internalL23UniversalPrintCharArrayIwEEvPKT_mPSo
000000000007852c r _ZN7testing8internalL23kCurrentDirectoryStringE
0000000000077f41 r _ZN7testing8internalL23kDeathTestInternalErrorE
000000000002b22f t _ZN7testing8internalL24StreamWideCharsToMessageEPKwmPNS_7MessageE
000000000007a580 r _ZN7testing8internalL24kColorEncodedHelpMessageE
00000000000308d9 t _ZN7testing8internalL25FormatCxxExceptionMessageEPKcS2_
0000000000076140 r _ZN7testing8internalL25kInternalRunDeathTestFlagE
0000000000077a10 r _ZN7testing8internalL25kInternalRunDeathTestFlagE
000000000007c8a0 r _ZN7testing8internalL25kInternalRunDeathTestFlagE
0000000000119709 b _ZN7testing8internalL26g_in_fast_death_test_childE
0000000000032635 t _ZN7testing8internalL27PrintTestPartResultToStringERKNS_14TestPartResultE
000000000003aae1 t _ZN7testing8internalL28FormatTimeInMillisAsDurationEl
0000000000032e5d t _ZN7testing8internalL29PrintFullTestCommentIfPresentERKNS_8TestInfoE
000000000003abd6 t _ZN7testing8internalL32FormatEpochTimeInMillisAsRFC3339El
00000000000472fd t _ZN7testing8internalL6DeleteINS_11EnvironmentEEEvPT_
00000000000472a7 t _ZN7testing8internalL6DeleteINS_17TestEventListenerEEEvPT_
0000000000047246 t _ZN7testing8internalL6DeleteINS_8TestInfoEEEvPT_
00000000000472d2 t _ZN7testing8internalL6DeleteINS_9TestSuiteEEEvPT_
000000000003b124 t _ZN7testing8internalL6IndentEm
0000000000119730 b _ZN7testing8internalL7g_argvsE
0000000000044287 t _ZN7testing8internalL9ParseFlagEPKcS2_Pb
0000000000047328 t _ZN7testing8internalL9ParseFlagINSt7__cxx1112basic_stringIcSt11char_traitsIcESaIcEEEEEbPKcS9_PT_
000000000004c8e8 W _ZN7testing9TestSuite10TestFailedEPKNS_8TestInfoE
000000000004c85c W _ZN7testing9TestSuite10TestPassedEPKNS_8TestInfoE
0000000000031e18 T _ZN7testing9TestSuite11AddTestInfoEPNS_8TestInfoE
0000000000032372 T _ZN7testing9TestSuite11ClearResultEv
000000000004c8a2 W _ZN7testing9TestSuite11TestSkippedEPKNS_8TestInfoE
00000000000323b2 T _ZN7testing9TestSuite12ShuffleTestsEPNS_8internal6RandomE
000000000004c96b W _ZN7testing9TestSuite12TestDisabledEPKNS_8TestInfoE
000000000004c9a2 W _ZN7testing9TestSuite13ShouldRunTestEPKNS_8TestInfoE
000000000004c984 W _ZN7testing9TestSuite14TestReportableEPKNS_8TestInfoE
00000000000323e0 T _ZN7testing9TestSuite14UnshuffleTestsEv
000000000004c7ca W _ZN7testing9TestSuite14set_should_runEb
000000000004c79e W _ZN7testing9TestSuite14test_info_listEv
000000000004c808 W _ZN7testing9TestSuite17RunSetUpTestSuiteEv
0000000000031dbe T _ZN7testing9TestSuite18GetMutableTestInfoEi
000000000004c7e9 W _ZN7testing9TestSuite20ClearTestSuiteResultEPS0_
000000000004c832 W _ZN7testing9TestSuite20RunTearDownTestSuiteEv
000000000004c92e W _ZN7testing9TestSuite22TestReportableDisabledEPKNS_8TestInfoE
0000000000031f0a T _ZN7testing9TestSuite3RunEv
0000000000032250 T _ZN7testing9TestSuite4SkipEv
0000000000031a8e T _ZN7testing9TestSuiteC1EPKcS2_PFvvES4_
0000000000031a8e T _ZN7testing9TestSuiteC2EPKcS2_PFvvES4_
0000000000031d34 T _ZN7testing9TestSuiteD0Ev
0000000000031ca6 T _ZN7testing9TestSuiteD1Ev
0000000000031ca6 T _ZN7testing9TestSuiteD2Ev
0000000000045094 t _ZN7testingL13GetDirFromEnvESt16initializer_listIPKcES2_c
000000000002fbdc t _ZN7testingL14FormatWordListERKSt6vectorINSt7__cxx1112basic_stringIcSt11char_traitsIcESaIcEEESaIS6_EE
000000000003252f t _ZN7testingL15FormatTestCountEi
0000000000030094 t _ZN7testingL15TestPartSkippedERKNS_14TestPartResultE
0000000000078940 r _ZN7testingL15kTestShardIndexE
00000000000278e3 t _ZN7testingL16GetDefaultFilterEv
0000000000078960 r _ZN7testingL16kTestTotalShardsE
0000000000078928 r _ZN7testingL16kUniversalFilterE
0000000000027918 t _ZN7testingL18GetDefaultFailFastEv
0000000000078930 r _ZN7testingL18kDefaultOutputFileE
00000000000788f0 r _ZN7testingL18kDisableTestFilterE
0000000000032442 t _ZN7testingL19FormatCountableNounEiPKcS1_
0000000000076158 r _ZN7testingL19kMaxStackTraceDepthE
0000000000077a28 r _ZN7testingL19kMaxStackTraceDepthE
000000000007c8b8 r _ZN7testingL19kMaxStackTraceDepthE
000000000003258b t _ZN7testingL20FormatTestSuiteCountEi
000000000007892a r _ZN7testingL20kDefaultOutputFormatE
0000000000078980 r _ZN7testingL20kTestShardStatusFileE
0000000000030160 t _ZN7testingL21TestPartFatallyFailedERKNS_14TestPartResultE
0000000000078910 r _ZN7testingL21kDeathTestSuiteFilterE
0000000000077d61 r _ZN7testingL22kDefaultDeathTestStyleE
00000000000301af t _ZN7testingL24TestPartNonfatallyFailedERKNS_14TestPartResultE
000000000002fd54 t _ZN7testingL24ValidateTestPropertyNameERKNSt7__cxx1112basic_stringIcSt11char_traitsIcESaIcEEERKSt6vectorIS5_SaIS5_EE
00000000000325e7 t _ZN7testingL26TestPartResultTypeToStringENS_14TestPartResult4TypeE
00000000000a7220 d _ZN7testingL27kReservedTestCaseAttributesE
00000000000a71e0 d _ZN7testingL28kReservedTestSuiteAttributesE
0000000000045356 t _ZN7testingL29GetCurrentExecutableDirectoryEv
00000000000a71a0 d _ZN7testingL29kReservedTestSuitesAttributesE
000000000002f88e t _ZN7testingL31GetReservedAttributesForElementERKNSt7__cxx1112basic_stringIcSt11char_traitsIcESaIcEEE
00000000000a7260 d _ZN7testingL33kReservedOutputTestCaseAttributesE
000000000002fa35 t _ZN7testingL37GetReservedOutputAttributesForElementERKNSt7__cxx1112basic_stringIcSt11char_traitsIcESaIcEEE
0000000000026d3e T _ZN7testinglsERSoRKNS_14TestPartResultE
000000000004b33b W _ZN7testinglsERSoRKNS_7MessageE
0000000000050d6d W _ZN9__gnu_cxx11char_traitsIcE2eqERKcS3_
0000000000050d92 W _ZN9__gnu_cxx11char_traitsIcE6lengthEPKc
0000000000050dff W _ZN9__gnu_cxx11char_traitsIwE2eqERKwS3_
0000000000050e22 W _ZN9__gnu_cxx11char_traitsIwE6lengthEPKw
000000000006b294 W _ZN9__gnu_cxx13new_allocatorIN7testing12TestPropertyEE10deallocateEPS2_m
000000000006b3ea W _ZN9__gnu_cxx13new_allocatorIN7testing12TestPropertyEE7destroyIS2_EEvPT_
000000000006de36 W _ZN9__gnu_cxx13new_allocatorIN7testing12TestPropertyEE8allocateEmPKv
0000000000066b26 W _ZN9__gnu_cxx13new_allocatorIN7testing12TestPropertyEE9constructIS2_JRKS2_EEEvPT_DpOT0_
0000000000073776 W _ZN9__gnu_cxx13new_allocatorIN7testing12TestPropertyEE9constructIS2_JS2_EEEvPT_DpOT0_
000000000006683c W _ZN9__gnu_cxx13new_allocatorIN7testing12TestPropertyEEC1Ev
000000000006683c W _ZN9__gnu_cxx13new_allocatorIN7testing12TestPropertyEEC2Ev
000000000005f596 W _ZN9__gnu_cxx13new_allocatorIN7testing12TestPropertyEED1Ev
000000000005f596 W _ZN9__gnu_cxx13new_allocatorIN7testing12TestPropertyEED2Ev
000000000006b218 W _ZN9__gnu_cxx13new_allocatorIN7testing14TestPartResultEE10deallocateEPS2_m
00000000000696e8 W _ZN9__gnu_cxx13new_allocatorIN7testing14TestPartResultEE7destroyIS2_EEvPT_
000000000006cc1a W _ZN9__gnu_cxx13new_allocatorIN7testing14TestPartResultEE8allocateEmPKv
000000000006364c W _ZN9__gnu_cxx13new_allocatorIN7testing14TestPartResultEE9constructIS2_JRKS2_EEEvPT_DpOT0_
00000000000732d4 W _ZN9__gnu_cxx13new_allocatorIN7testing14TestPartResultEE9constructIS2_JS2_EEEvPT_DpOT0_
00000000000667d0 W _ZN9__gnu_cxx13new_allocatorIN7testing14TestPartResultEEC1Ev
00000000000667d0 W _ZN9__gnu_cxx13new_allocatorIN7testing14TestPartResultEEC2Ev
000000000005f4ba W _ZN9__gnu_cxx13new_allocatorIN7testing14TestPartResultEED1Ev
000000000005f4ba W _ZN9__gnu_cxx13new_allocatorIN7testing14TestPartResultEED2Ev
000000000006a6c0 W _ZN9__gnu_cxx13new_allocatorIN7testing8internal13edit_distance8EditTypeEE10deallocateEPS4_m
000000000006d93c W _ZN9__gnu_cxx13new_allocatorIN7testing8internal13edit_distance8EditTypeEE8allocateEmPKv
0000000000065620 W _ZN9__gnu_cxx13new_allocatorIN7testing8internal13edit_distance8EditTypeEE9constructIS4_JRKS4_EEEvPT_DpOT0_
000000000006591e W _ZN9__gnu_cxx13new_allocatorIN7testing8internal13edit_distance8EditTypeEEC1ERKS5_
000000000005e0fa W _ZN9__gnu_cxx13new_allocatorIN7testing8internal13edit_distance8EditTypeEEC1Ev
000000000006591e W _ZN9__gnu_cxx13new_allocatorIN7testing8internal13edit_distance8EditTypeEEC2ERKS5_
000000000005e0fa W _ZN9__gnu_cxx13new_allocatorIN7testing8internal13edit_distance8EditTypeEEC2Ev
000000000005e10a W _ZN9__gnu_cxx13new_allocatorIN7testing8internal13edit_distance8EditTypeEED1Ev
000000000005e10a W _ZN9__gnu_cxx13new_allocatorIN7testing8internal13edit_distance8EditTypeEED2Ev
000000000006eb16 W _ZN9__gnu_cxx13new_allocatorIN7testing8internal9TraceInfoEE10deallocateEPS3_m
0000000000068274 W _ZN9__gnu_cxx13new_allocatorIN7testing8internal9TraceInfoEE7destroyIS3_EEvPT_
000000000006ea04 W _ZN9__gnu_cxx13new_allocatorIN7testing8internal9TraceInfoEE8allocateEmPKv
0000000000067f52 W _ZN9__gnu_cxx13new_allocatorIN7testing8internal9TraceInfoEE9constructIS3_JRKS3_EEEvPT_DpOT0_
00000000000738fa W _ZN9__gnu_cxx13new_allocatorIN7testing8internal9TraceInfoEE9constructIS3_JS3_EEEvPT_DpOT0_
0000000000075b02 W _ZN9__gnu_cxx13new_allocatorIN7testing8internal9TraceInfoEEC1Ev
0000000000075b02 W _ZN9__gnu_cxx13new_allocatorIN7testing8internal9TraceInfoEEC2Ev
0000000000075af2 W _ZN9__gnu_cxx13new_allocatorIN7testing8internal9TraceInfoEED1Ev
0000000000075af2 W _ZN9__gnu_cxx13new_allocatorIN7testing8internal9TraceInfoEED2Ev
00000000000692d0 W _ZN9__gnu_cxx13new_allocatorINSt7__cxx1112basic_stringIcSt11char_traitsIcESaIcEEEE10deallocateEPS6_m
0000000000069304 W _ZN9__gnu_cxx13new_allocatorINSt7__cxx1112basic_stringIcSt11char_traitsIcESaIcEEEE7destroyIS6_EEvPT_
0000000000069e2e W _ZN9__gnu_cxx13new_allocatorINSt7__cxx1112basic_stringIcSt11char_traitsIcESaIcEEEE8allocateEmPKv
000000000006305a W _ZN9__gnu_cxx13new_allocatorINSt7__cxx1112basic_stringIcSt11char_traitsIcESaIcEEEE9constructIS6_JRKS6_EEEvPT_DpOT0_
000000000006970c W _ZN9__gnu_cxx13new_allocatorINSt7__cxx1112basic_stringIcSt11char_traitsIcESaIcEEEE9constructIS6_JS6_EEEvPT_DpOT0_
0000000000063002 W _ZN9__gnu_cxx13new_allocatorINSt7__cxx1112basic_stringIcSt11char_traitsIcESaIcEEEEC1ERKS7_
000000000005c580 W _ZN9__gnu_cxx13new_allocatorINSt7__cxx1112basic_stringIcSt11char_traitsIcESaIcEEEEC1Ev
0000000000063002 W _ZN9__gnu_cxx13new_allocatorINSt7__cxx1112basic_stringIcSt11char_traitsIcESaIcEEEEC2ERKS7_
000000000005c580 W _ZN9__gnu_cxx13new_allocatorINSt7__cxx1112basic_stringIcSt11char_traitsIcESaIcEEEEC2Ev
000000000005be80 W _ZN9__gnu_cxx13new_allocatorINSt7__cxx1112basic_stringIcSt11char_traitsIcESaIcEEEED1Ev
000000000005be80 W _ZN9__gnu_cxx13new_allocatorINSt7__cxx1112basic_stringIcSt11char_traitsIcESaIcEEEED2Ev
0000000000071842 W _ZN9__gnu_cxx13new_allocatorINSt8__detail10_Hash_nodeINSt7__cxx1112basic_stringIcSt11char_traitsIcESaIcEEELb1EEEE10deallocateEPS9_m
000000000006f802 W _ZN9__gnu_cxx13new_allocatorINSt8__detail10_Hash_nodeINSt7__cxx1112basic_stringIcSt11char_traitsIcESaIcEEELb1EEEE7destroyIS8_EEvPT_
000000000007473e W _ZN9__gnu_cxx13new_allocatorINSt8__detail10_Hash_nodeINSt7__cxx1112basic_stringIcSt11char_traitsIcESaIcEEELb1EEEE8allocateEmPKv
00000000000747ac W _ZN9__gnu_cxx13new_allocatorINSt8__detail10_Hash_nodeINSt7__cxx1112basic_stringIcSt11char_traitsIcESaIcEEELb1EEEE9constructIS8_JS8_EEEvPT_DpOT0_
0000000000064746 W _ZN9__gnu_cxx13new_allocatorINSt8__detail10_Hash_nodeINSt7__cxx1112basic_stringIcSt11char_traitsIcESaIcEEELb1EEEEC1Ev
0000000000064746 W _ZN9__gnu_cxx13new_allocatorINSt8__detail10_Hash_nodeINSt7__cxx1112basic_stringIcSt11char_traitsIcESaIcEEELb1EEEEC2Ev
000000000005d350 W _ZN9__gnu_cxx13new_allocatorINSt8__detail10_Hash_nodeINSt7__cxx1112basic_stringIcSt11char_traitsIcESaIcEEELb1EEEED1Ev
000000000005d350 W _ZN9__gnu_cxx13new_allocatorINSt8__detail10_Hash_nodeINSt7__cxx1112basic_stringIcSt11char_traitsIcESaIcEEELb1EEEED2Ev
000000000006c016 W _ZN9__gnu_cxx13new_allocatorIPN7testing11EnvironmentEE10deallocateEPS3_m
000000000006e8a4 W _ZN9__gnu_cxx13new_allocatorIPN7testing11EnvironmentEE8allocateEmPKv
0000000000067ca6 W _ZN9__gnu_cxx13new_allocatorIPN7testing11EnvironmentEE9constructIS3_JRKS3_EEEvPT_DpOT0_
0000000000068352 W _ZN9__gnu_cxx13new_allocatorIPN7testing11EnvironmentEEC1Ev
0000000000068352 W _ZN9__gnu_cxx13new_allocatorIPN7testing11EnvironmentEEC2Ev
000000000006169a W _ZN9__gnu_cxx13new_allocatorIPN7testing11EnvironmentEED1Ev
000000000006169a W _ZN9__gnu_cxx13new_allocatorIPN7testing11EnvironmentEED2Ev
000000000006bcbc W _ZN9__gnu_cxx13new_allocatorIPN7testing17TestEventListenerEE10deallocateEPS3_m
000000000006bd8e W _ZN9__gnu_cxx13new_allocatorIPN7testing17TestEventListenerEE7destroyIS3_EEvPT_
000000000006e6b0 W _ZN9__gnu_cxx13new_allocatorIPN7testing17TestEventListenerEE8allocateEmPKv
00000000000679e6 W _ZN9__gnu_cxx13new_allocatorIPN7testing17TestEventListenerEE9constructIS3_JRKS3_EEEvPT_DpOT0_
00000000000678ce W _ZN9__gnu_cxx13new_allocatorIPN7testing17TestEventListenerEEC1Ev
00000000000678ce W _ZN9__gnu_cxx13new_allocatorIPN7testing17TestEventListenerEEC2Ev
0000000000060794 W _ZN9__gnu_cxx13new_allocatorIPN7testing17TestEventListenerEED1Ev
0000000000060794 W _ZN9__gnu_cxx13new_allocatorIPN7testing17TestEventListenerEED2Ev
000000000006b6f0 W _ZN9__gnu_cxx13new_allocatorIPN7testing8TestInfoEE10deallocateEPS3_m
000000000006e0f4 W _ZN9__gnu_cxx13new_allocatorIPN7testing8TestInfoEE8allocateEmPKv
0000000000067284 W _ZN9__gnu_cxx13new_allocatorIPN7testing8TestInfoEE9constructIS3_JRKS3_EEEvPT_DpOT0_
000000000006719a W _ZN9__gnu_cxx13new_allocatorIPN7testing8TestInfoEEC1Ev
000000000006719a W _ZN9__gnu_cxx13new_allocatorIPN7testing8TestInfoEEC2Ev
000000000006023c W _ZN9__gnu_cxx13new_allocatorIPN7testing8TestInfoEED1Ev
000000000006023c W _ZN9__gnu_cxx13new_allocatorIPN7testing8TestInfoEED2Ev
000000000006c0a6 W _ZN9__gnu_cxx13new_allocatorIPN7testing8internal30ParameterizedTestSuiteInfoBaseEE10deallocateEPS4_m
000000000006842a W _ZN9__gnu_cxx13new_allocatorIPN7testing8internal30ParameterizedTestSuiteInfoBaseEEC1Ev
000000000006842a W _ZN9__gnu_cxx13new_allocatorIPN7testing8internal30ParameterizedTestSuiteInfoBaseEEC2Ev
0000000000061852 W _ZN9__gnu_cxx13new_allocatorIPN7testing8internal30ParameterizedTestSuiteInfoBaseEED1Ev
0000000000061852 W _ZN9__gnu_cxx13new_allocatorIPN7testing8internal30ParameterizedTestSuiteInfoBaseEED2Ev
000000000006c05e W _ZN9__gnu_cxx13new_allocatorIPN7testing9TestSuiteEE10deallocateEPS3_m
000000000006c21a W _ZN9__gnu_cxx13new_allocatorIPN7testing9TestSuiteEE7destroyIS3_EEvPT_
000000000006eda4 W _ZN9__gnu_cxx13new_allocatorIPN7testing9TestSuiteEE8allocateEmPKv
0000000000068aee W _ZN9__gnu_cxx13new_allocatorIPN7testing9TestSuiteEE9constructIS3_JRKS3_EEEvPT_DpOT0_
000000000006c22e W _ZN9__gnu_cxx13new_allocatorIPN7testing9TestSuiteEE9constructIS3_JS3_EEEvPT_DpOT0_
00000000000683be W _ZN9__gnu_cxx13new_allocatorIPN7testing9TestSuiteEEC1Ev
00000000000683be W _ZN9__gnu_cxx13new_allocatorIPN7testing9TestSuiteEEC2Ev
0000000000061776 W _ZN9__gnu_cxx13new_allocatorIPN7testing9TestSuiteEED1Ev
0000000000061776 W _ZN9__gnu_cxx13new_allocatorIPN7testing9TestSuiteEED2Ev
000000000006f8b4 W _ZN9__gnu_cxx13new_allocatorIPNSt8__detail15_Hash_node_baseEE10deallocateEPS3_m
0000000000074aae W _ZN9__gnu_cxx13new_allocatorIPNSt8__detail15_Hash_node_baseEE8allocateEmPKv
000000000006f894 W _ZN9__gnu_cxx13new_allocatorIPNSt8__detail15_Hash_node_baseEEC1Ev
000000000006f894 W _ZN9__gnu_cxx13new_allocatorIPNSt8__detail15_Hash_node_baseEEC2Ev
000000000006f8a4 W _ZN9__gnu_cxx13new_allocatorIPNSt8__detail15_Hash_node_baseEED1Ev
000000000006f8a4 W _ZN9__gnu_cxx13new_allocatorIPNSt8__detail15_Hash_node_baseEED2Ev
000000000006dc66 W _ZN9__gnu_cxx13new_allocatorISt10_List_nodeISt4pairIcPKcEEE10deallocateEPS6_m
000000000006b04c W _ZN9__gnu_cxx13new_allocatorISt10_List_nodeISt4pairIcPKcEEE7destroyIS5_EEvPT_
0000000000070350 W _ZN9__gnu_cxx13new_allocatorISt10_List_nodeISt4pairIcPKcEEE8allocateEmPKv
000000000006dcda W _ZN9__gnu_cxx13new_allocatorISt10_List_nodeISt4pairIcPKcEEE9constructIS5_JS5_EEEvPT_DpOT0_
000000000006645a W _ZN9__gnu_cxx13new_allocatorISt10_List_nodeISt4pairIcPKcEEEC1Ev
000000000006645a W _ZN9__gnu_cxx13new_allocatorISt10_List_nodeISt4pairIcPKcEEEC2Ev
000000000005ee02 W _ZN9__gnu_cxx13new_allocatorISt10_List_nodeISt4pairIcPKcEEED1Ev
000000000005ee02 W _ZN9__gnu_cxx13new_allocatorISt10_List_nodeISt4pairIcPKcEEED2Ev
000000000006f4ec W _ZN9__gnu_cxx13new_allocatorISt13_Rb_tree_nodeINSt7__cxx1112basic_stringIcSt11char_traitsIcESaIcEEEEE10deallocateEPS8_m
000000000006f4c8 W _ZN9__gnu_cxx13new_allocatorISt13_Rb_tree_nodeINSt7__cxx1112basic_stringIcSt11char_traitsIcESaIcEEEEE7destroyIS7_EEvPT_
00000000000729fc W _ZN9__gnu_cxx13new_allocatorISt13_Rb_tree_nodeINSt7__cxx1112basic_stringIcSt11char_traitsIcESaIcEEEEE8allocateEmPKv
0000000000072a62 W _ZN9__gnu_cxx13new_allocatorISt13_Rb_tree_nodeINSt7__cxx1112basic_stringIcSt11char_traitsIcESaIcEEEEE9constructIS7_JRKS7_EEEvPT_DpOT0_
0000000000072ad8 W _ZN9__gnu_cxx13new_allocatorISt13_Rb_tree_nodeINSt7__cxx1112basic_stringIcSt11char_traitsIcESaIcEEEEE9constructIS7_JS7_EEEvPT_DpOT0_
0000000000063b7a W _ZN9__gnu_cxx13new_allocatorISt13_Rb_tree_nodeINSt7__cxx1112basic_stringIcSt11char_traitsIcESaIcEEEEEC1Ev
0000000000063b7a W _ZN9__gnu_cxx13new_allocatorISt13_Rb_tree_nodeINSt7__cxx1112basic_stringIcSt11char_traitsIcESaIcEEEEEC2Ev
000000000005ca94 W _ZN9__gnu_cxx13new_allocatorISt13_Rb_tree_nodeINSt7__cxx1112basic_stringIcSt11char_traitsIcESaIcEEEEED1Ev
000000000005ca94 W _ZN9__gnu_cxx13new_allocatorISt13_Rb_tree_nodeINSt7__cxx1112basic_stringIcSt11char_traitsIcESaIcEEEEED2Ev
000000000006f7a6 W _ZN9__gnu_cxx13new_allocatorISt13_Rb_tree_nodeISt4pairIKNSt7__cxx1112basic_stringIcSt11char_traitsIcESaIcEEEN7testing8internal34TypeParameterizedTestSuiteRegistry30TypeParameterizedTestSuiteInfoEEEE10deallocateEPSF_m
000000000006f782 W _ZN9__gnu_cxx13new_allocatorISt13_Rb_tree_nodeISt4pairIKNSt7__cxx1112basic_stringIcSt11char_traitsIcESaIcEEEN7testing8internal34TypeParameterizedTestSuiteRegistry30TypeParameterizedTestSuiteInfoEEEE7destroyISE_EEvPT_
000000000006f69a W _ZN9__gnu_cxx13new_allocatorISt13_Rb_tree_nodeISt4pairIKNSt7__cxx1112basic_stringIcSt11char_traitsIcESaIcEEEN7testing8internal34TypeParameterizedTestSuiteRegistry30TypeParameterizedTestSuiteInfoEEEE8allocateEmPKv
000000000006f70a W _ZN9__gnu_cxx13new_allocatorISt13_Rb_tree_nodeISt4pairIKNSt7__cxx1112basic_stringIcSt11char_traitsIcESaIcEEEN7testing8internal34TypeParameterizedTestSuiteRegistry30TypeParameterizedTestSuiteInfoEEEE9constructISE_JS8_SD_EEEvPT_DpOT0_
000000000006846c W _ZN9__gnu_cxx13new_allocatorISt13_Rb_tree_nodeISt4pairIKNSt7__cxx1112basic_stringIcSt11char_traitsIcESaIcEEEN7testing8internal34TypeParameterizedTestSuiteRegistry30TypeParameterizedTestSuiteInfoEEEEC1Ev
000000000006846c W _ZN9__gnu_cxx13new_allocatorISt13_Rb_tree_nodeISt4pairIKNSt7__cxx1112basic_stringIcSt11char_traitsIcESaIcEEEN7testing8internal34TypeParameterizedTestSuiteRegistry30TypeParameterizedTestSuiteInfoEEEEC2Ev
00000000000618bc W _ZN9__gnu_cxx13new_allocatorISt13_Rb_tree_nodeISt4pairIKNSt7__cxx1112basic_stringIcSt11char_traitsIcESaIcEEEN7testing8internal34TypeParameterizedTestSuiteRegistry30TypeParameterizedTestSuiteInfoEEEED1Ev
00000000000618bc W _ZN9__gnu_cxx13new_allocatorISt13_Rb_tree_nodeISt4pairIKNSt7__cxx1112basic_stringIcSt11char_traitsIcESaIcEEEN7testing8internal34TypeParameterizedTestSuiteRegistry30TypeParameterizedTestSuiteInfoEEEED2Ev
000000000007019a W _ZN9__gnu_cxx13new_allocatorISt13_Rb_tree_nodeISt4pairIKNSt7__cxx1112basic_stringIcSt11char_traitsIcESaIcEEEmEEE10deallocateEPSB_m
0000000000070176 W _ZN9__gnu_cxx13new_allocatorISt13_Rb_tree_nodeISt4pairIKNSt7__cxx1112basic_stringIcSt11char_traitsIcESaIcEEEmEEE7destroyISA_EEvPT_
000000000006ffcc W _ZN9__gnu_cxx13new_allocatorISt13_Rb_tree_nodeISt4pairIKNSt7__cxx1112basic_stringIcSt11char_traitsIcESaIcEEEmEEE8allocateEmPKv
0000000000070066 W _ZN9__gnu_cxx13new_allocatorISt13_Rb_tree_nodeISt4pairIKNSt7__cxx1112basic_stringIcSt11char_traitsIcESaIcEEEmEEE9constructISA_JRKSt21piecewise_construct_tSt5tupleIJRS9_EESH_IJEEEEEvPT_DpOT0_
000000000006615a W _ZN9__gnu_cxx13new_allocatorISt13_Rb_tree_nodeISt4pairIKNSt7__cxx1112basic_stringIcSt11char_traitsIcESaIcEEEmEEEC1Ev
000000000006615a W _ZN9__gnu_cxx13new_allocatorISt13_Rb_tree_nodeISt4pairIKNSt7__cxx1112basic_stringIcSt11char_traitsIcESaIcEEEmEEEC2Ev
000000000005ec90 W _ZN9__gnu_cxx13new_allocatorISt13_Rb_tree_nodeISt4pairIKNSt7__cxx1112basic_stringIcSt11char_traitsIcESaIcEEEmEEED1Ev
000000000005ec90 W _ZN9__gnu_cxx13new_allocatorISt13_Rb_tree_nodeISt4pairIKNSt7__cxx1112basic_stringIcSt11char_traitsIcESaIcEEEmEEED2Ev
000000000006d80a W _ZN9__gnu_cxx13new_allocatorISt6vectorIN7testing8internal13edit_distance8EditTypeESaIS5_EEE10deallocateEPS7_m
000000000006fe5c W _ZN9__gnu_cxx13new_allocatorISt6vectorIN7testing8internal13edit_distance8EditTypeESaIS5_EEE8allocateEmPKv
000000000006a59e W _ZN9__gnu_cxx13new_allocatorISt6vectorIN7testing8internal13edit_distance8EditTypeESaIS5_EEEC1ERKS8_
000000000005e28a W _ZN9__gnu_cxx13new_allocatorISt6vectorIN7testing8internal13edit_distance8EditTypeESaIS5_EEEC1Ev
000000000006a59e W _ZN9__gnu_cxx13new_allocatorISt6vectorIN7testing8internal13edit_distance8EditTypeESaIS5_EEEC2ERKS8_
000000000005e28a W _ZN9__gnu_cxx13new_allocatorISt6vectorIN7testing8internal13edit_distance8EditTypeESaIS5_EEEC2Ev
000000000005e29a W _ZN9__gnu_cxx13new_allocatorISt6vectorIN7testing8internal13edit_distance8EditTypeESaIS5_EEED1Ev
000000000005e29a W _ZN9__gnu_cxx13new_allocatorISt6vectorIN7testing8internal13edit_distance8EditTypeESaIS5_EEED2Ev
000000000006d624 W _ZN9__gnu_cxx13new_allocatorISt6vectorIdSaIdEEE10deallocateEPS3_m
000000000006fcf2 W _ZN9__gnu_cxx13new_allocatorISt6vectorIdSaIdEEE8allocateEmPKv
000000000006a400 W _ZN9__gnu_cxx13new_allocatorISt6vectorIdSaIdEEEC1ERKS4_
000000000005dee2 W _ZN9__gnu_cxx13new_allocatorISt6vectorIdSaIdEEEC1Ev
000000000006a400 W _ZN9__gnu_cxx13new_allocatorISt6vectorIdSaIdEEEC2ERKS4_
000000000005dee2 W _ZN9__gnu_cxx13new_allocatorISt6vectorIdSaIdEEEC2Ev
000000000005def2 W _ZN9__gnu_cxx13new_allocatorISt6vectorIdSaIdEEED1Ev
000000000005def2 W _ZN9__gnu_cxx13new_allocatorISt6vectorIdSaIdEEED2Ev
000000000006d530 W _ZN9__gnu_cxx13new_allocatorIdE10deallocateEPdm
000000000006fc00 W _ZN9__gnu_cxx13new_allocatorIdE8allocateEmPKv
000000000006a2f2 W _ZN9__gnu_cxx13new_allocatorIdEC1ERKS1_
000000000005dce0 W _ZN9__gnu_cxx13new_allocatorIdEC1Ev
000000000006a2f2 W _ZN9__gnu_cxx13new_allocatorIdEC2ERKS1_
000000000005dce0 W _ZN9__gnu_cxx13new_allocatorIdEC2Ev
000000000005dcf0 W _ZN9__gnu_cxx13new_allocatorIdED1Ev
000000000005dcf0 W _ZN9__gnu_cxx13new_allocatorIdED2Ev
000000000006b738 W _ZN9__gnu_cxx13new_allocatorIiE10deallocateEPim
00000000000706a0 W _ZN9__gnu_cxx13new_allocatorIiE8allocateEmPKv
000000000006b80a W _ZN9__gnu_cxx13new_allocatorIiE9constructIiJiEEEvPT_DpOT0_
0000000000067206 W _ZN9__gnu_cxx13new_allocatorIiEC1Ev
0000000000067206 W _ZN9__gnu_cxx13new_allocatorIiEC2Ev
0000000000060318 W _ZN9__gnu_cxx13new_allocatorIiED1Ev
0000000000060318 W _ZN9__gnu_cxx13new_allocatorIiED2Ev
000000000006ad00 W _ZN9__gnu_cxx13new_allocatorImE10deallocateEPmm
000000000007026c W _ZN9__gnu_cxx13new_allocatorImE8allocateEmPKv
000000000006ad48 W _ZN9__gnu_cxx13new_allocatorImE9constructImJmEEEvPT_DpOT0_
00000000000660ee W _ZN9__gnu_cxx13new_allocatorImEC1Ev
00000000000660ee W _ZN9__gnu_cxx13new_allocatorImEC2Ev
000000000005ebe6 W _ZN9__gnu_cxx13new_allocatorImED1Ev
000000000005ebe6 W _ZN9__gnu_cxx13new_allocatorImED2Ev
0000000000072f1b W _ZN9__gnu_cxx14__alloc_traitsISaIN7testing8internal13edit_distance8EditTypeEES4_E17_S_select_on_copyERKS5_
000000000005dc93 W _ZN9__gnu_cxx14__alloc_traitsISaINSt7__cxx1112basic_stringIcSt11char_traitsIcESaIcEEEES6_E10_S_on_swapERS7_S9_
000000000005c461 W _ZN9__gnu_cxx14__alloc_traitsISaINSt7__cxx1112basic_stringIcSt11char_traitsIcESaIcEEEES6_E17_S_select_on_copyERKS7_
000000000005b231 W _ZN9__gnu_cxx14__alloc_traitsISaIcEcE17_S_select_on_copyERKS1_
0000000000072db5 W _ZN9__gnu_cxx14__alloc_traitsISaIdEdE17_S_select_on_copyERKS1_
000000000006f7e4 W _ZN9__gnu_cxx16__aligned_bufferINSt7__cxx1112basic_stringIcSt11char_traitsIcESaIcEEEE6_M_ptrEv
0000000000071812 W _ZN9__gnu_cxx16__aligned_bufferINSt7__cxx1112basic_stringIcSt11char_traitsIcESaIcEEEE7_M_addrEv
000000000006f4aa W _ZN9__gnu_cxx16__aligned_membufINSt7__cxx1112basic_stringIcSt11char_traitsIcESaIcEEEE6_M_ptrEv
00000000000716b2 W _ZN9__gnu_cxx16__aligned_membufINSt7__cxx1112basic_stringIcSt11char_traitsIcESaIcEEEE7_M_addrEv
00000000000646e8 W _ZN9__gnu_cxx16__aligned_membufISt4pairIKNSt7__cxx1112basic_stringIcSt11char_traitsIcESaIcEEEN7testing8internal34TypeParameterizedTestSuiteRegistry30TypeParameterizedTestSuiteInfoEEE6_M_ptrEv
0000000000069c6e W _ZN9__gnu_cxx16__aligned_membufISt4pairIKNSt7__cxx1112basic_stringIcSt11char_traitsIcESaIcEEEN7testing8internal34TypeParameterizedTestSuiteRegistry30TypeParameterizedTestSuiteInfoEEE7_M_addrEv
0000000000065a40 W _ZN9__gnu_cxx16__aligned_membufISt4pairIKNSt7__cxx1112basic_stringIcSt11char_traitsIcESaIcEEEmEE6_M_ptrEv
000000000006a81a W _ZN9__gnu_cxx16__aligned_membufISt4pairIKNSt7__cxx1112basic_stringIcSt11char_traitsIcESaIcEEEmEE7_M_addrEv
000000000006b02e W _ZN9__gnu_cxx16__aligned_membufISt4pairIcPKcEE6_M_ptrEv
000000000006dc54 W _ZN9__gnu_cxx16__aligned_membufISt4pairIcPKcEE7_M_addrEv
000000000006287b W _ZN9__gnu_cxx17__is_null_pointerIKcEEbPT_
0000000000062b59 W _ZN9__gnu_cxx17__is_null_pointerIKwEEbPT_
000000000006dfae W _ZN9__gnu_cxx17__is_null_pointerINS_17__normal_iteratorIPKcNSt7__cxx1112basic_stringIcSt11char_traitsIcESaIcEEEEEEEbT_
0000000000067024 W _ZN9__gnu_cxx17__normal_iteratorIPKN7testing14TestPartResultESt6vectorIS2_SaIS2_EEEC1ERKS4_
0000000000067024 W _ZN9__gnu_cxx17__normal_iteratorIPKN7testing14TestPartResultESt6vectorIS2_SaIS2_EEEC2ERKS4_
000000000005fe08 W _ZN9__gnu_cxx17__normal_iteratorIPKN7testing14TestPartResultESt6vectorIS2_SaIS2_EEEppEv
000000000005f068 W _ZN9__gnu_cxx17__normal_iteratorIPKN7testing8internal13edit_distance8EditTypeESt6vectorIS4_SaIS4_EEEC1ERKS6_
000000000005f068 W _ZN9__gnu_cxx17__normal_iteratorIPKN7testing8internal13edit_distance8EditTypeESt6vectorIS4_SaIS4_EEEC2ERKS6_
00000000000562e6 W _ZN9__gnu_cxx17__normal_iteratorIPKN7testing8internal13edit_distance8EditTypeESt6vectorIS4_SaIS4_EEEppEv
0000000000067ebe W _ZN9__gnu_cxx17__normal_iteratorIPKN7testing8internal9TraceInfoESt6vectorIS3_SaIS3_EEEC1ERKS5_
0000000000067ebe W _ZN9__gnu_cxx17__normal_iteratorIPKN7testing8internal9TraceInfoESt6vectorIS3_SaIS3_EEEC2ERKS5_
000000000005c55e W _ZN9__gnu_cxx17__normal_iteratorIPKNSt7__cxx1112basic_stringIcSt11char_traitsIcESaIcEEESt6vectorIS6_SaIS6_EEEC1ERKS8_
00000000000542ca W _ZN9__gnu_cxx17__normal_iteratorIPKNSt7__cxx1112basic_stringIcSt11char_traitsIcESaIcEEESt6vectorIS6_SaIS6_EEEC1IPS6_EERKNS0_IT_NS_11__enable_ifIXsrSt10__are_sameISF_SE_E7__valueESB_E6__typeEEE
000000000005c55e W _ZN9__gnu_cxx17__normal_iteratorIPKNSt7__cxx1112basic_stringIcSt11char_traitsIcESaIcEEESt6vectorIS6_SaIS6_EEEC2ERKS8_
00000000000542ca W _ZN9__gnu_cxx17__normal_iteratorIPKNSt7__cxx1112basic_stringIcSt11char_traitsIcESaIcEEESt6vectorIS6_SaIS6_EEEC2IPS6_EERKNS0_IT_NS_11__enable_ifIXsrSt10__are_sameISF_SE_E7__valueESB_E6__typeEEE
0000000000054388 W _ZN9__gnu_cxx17__normal_iteratorIPKNSt7__cxx1112basic_stringIcSt11char_traitsIcESaIcEEESt6vectorIS6_SaIS6_EEEppEv
000000000006862c W _ZN9__gnu_cxx17__normal_iteratorIPKPN7testing11EnvironmentESt6vectorIS3_SaIS3_EEEC1ERKS5_
000000000006862c W _ZN9__gnu_cxx17__normal_iteratorIPKPN7testing11EnvironmentESt6vectorIS3_SaIS3_EEEC2ERKS5_
000000000006868c W _ZN9__gnu_cxx17__normal_iteratorIPKPN7testing11EnvironmentESt6vectorIS3_SaIS3_EEEppEv
000000000006793a W _ZN9__gnu_cxx17__normal_iteratorIPKPN7testing17TestEventListenerESt6vectorIS3_SaIS3_EEEC1ERKS5_
0000000000058e12 W _ZN9__gnu_cxx17__normal_iteratorIPKPN7testing17TestEventListenerESt6vectorIS3_SaIS3_EEEC1IPS3_EERKNS0_IT_NS_11__enable_ifIXsrSt10__are_sameISC_SB_E7__valueES8_E6__typeEEE
000000000006793a W _ZN9__gnu_cxx17__normal_iteratorIPKPN7testing17TestEventListenerESt6vectorIS3_SaIS3_EEEC2ERKS5_
0000000000058e12 W _ZN9__gnu_cxx17__normal_iteratorIPKPN7testing17TestEventListenerESt6vectorIS3_SaIS3_EEEC2IPS3_EERKNS0_IT_NS_11__enable_ifIXsrSt10__are_sameISC_SB_E7__valueES8_E6__typeEEE
000000000006799a W _ZN9__gnu_cxx17__normal_iteratorIPKPN7testing17TestEventListenerESt6vectorIS3_SaIS3_EEEppEv
0000000000067166 W _ZN9__gnu_cxx17__normal_iteratorIPKPN7testing8TestInfoESt6vectorIS3_SaIS3_EEEC1ERKS5_
0000000000067166 W _ZN9__gnu_cxx17__normal_iteratorIPKPN7testing8TestInfoESt6vectorIS3_SaIS3_EEEC2ERKS5_
00000000000601b0 W _ZN9__gnu_cxx17__normal_iteratorIPKPN7testing8TestInfoESt6vectorIS3_SaIS3_EEEppEv
0000000000060d04 W _ZN9__gnu_cxx17__normal_iteratorIPKPN7testing9TestSuiteESt6vectorIS3_SaIS3_EEEC1ERKS5_
0000000000059f84 W _ZN9__gnu_cxx17__normal_iteratorIPKPN7testing9TestSuiteESt6vectorIS3_SaIS3_EEEC1IPS3_EERKNS0_IT_NS_11__enable_ifIXsrSt10__are_sameISC_SB_E7__valueES8_E6__typeEEE
0000000000060d04 W _ZN9__gnu_cxx17__normal_iteratorIPKPN7testing9TestSuiteESt6vectorIS3_SaIS3_EEEC2ERKS5_
0000000000059f84 W _ZN9__gnu_cxx17__normal_iteratorIPKPN7testing9TestSuiteESt6vectorIS3_SaIS3_EEEC2IPS3_EERKNS0_IT_NS_11__enable_ifIXsrSt10__are_sameISC_SB_E7__valueES8_E6__typeEEE
0000000000058fb2 W _ZN9__gnu_cxx17__normal_iteratorIPKPN7testing9TestSuiteESt6vectorIS3_SaIS3_EEEppEv
0000000000051268 W _ZN9__gnu_cxx17__normal_iteratorIPKcNSt7__cxx1112basic_stringIcSt11char_traitsIcESaIcEEEEC1IPcEERKNS0_IT_NS_11__enable_ifIXsrSt10__are_sameISC_SB_E7__valueES8_E6__typeEEE
0000000000051268 W _ZN9__gnu_cxx17__normal_iteratorIPKcNSt7__cxx1112basic_stringIcSt11char_traitsIcESaIcEEEEC2IPcEERKNS0_IT_NS_11__enable_ifIXsrSt10__are_sameISC_SB_E7__valueES8_E6__typeEEE
00000000000531c4 W _ZN9__gnu_cxx17__normal_iteratorIPKcNSt7__cxx1112basic_stringIcSt11char_traitsIcESaIcEEEEppEv
0000000000073612 W _ZN9__gnu_cxx17__normal_iteratorIPKdSt6vectorIdSaIdEEEC1ERKS2_
0000000000073612 W _ZN9__gnu_cxx17__normal_iteratorIPKdSt6vectorIdSaIdEEEC2ERKS2_
000000000005f76a W _ZN9__gnu_cxx17__normal_iteratorIPN7testing12TestPropertyESt6vectorIS2_SaIS2_EEEC1ERKS3_
000000000005f76a W _ZN9__gnu_cxx17__normal_iteratorIPN7testing12TestPropertyESt6vectorIS2_SaIS2_EEEC2ERKS3_
000000000006b33c W _ZN9__gnu_cxx17__normal_iteratorIPN7testing12TestPropertyESt6vectorIS2_SaIS2_EEEppEv
00000000000636c2 W _ZN9__gnu_cxx17__normal_iteratorIPN7testing14TestPartResultESt6vectorIS2_SaIS2_EEEC1ERKS3_
00000000000636c2 W _ZN9__gnu_cxx17__normal_iteratorIPN7testing14TestPartResultESt6vectorIS2_SaIS2_EEEC2ERKS3_
000000000005e704 W _ZN9__gnu_cxx17__normal_iteratorIPN7testing8internal13edit_distance8EditTypeESt6vectorIS4_SaIS4_EEEC1ERKS5_
000000000005e704 W _ZN9__gnu_cxx17__normal_iteratorIPN7testing8internal13edit_distance8EditTypeESt6vectorIS4_SaIS4_EEEC2ERKS5_
0000000000065854 W _ZN9__gnu_cxx17__normal_iteratorIPN7testing8internal13edit_distance8EditTypeESt6vectorIS4_SaIS4_EEEmmEv
00000000000658fa W _ZN9__gnu_cxx17__normal_iteratorIPN7testing8internal13edit_distance8EditTypeESt6vectorIS4_SaIS4_EEEppEv
0000000000067fc8 W _ZN9__gnu_cxx17__normal_iteratorIPN7testing8internal9TraceInfoESt6vectorIS3_SaIS3_EEEC1ERKS4_
0000000000067fc8 W _ZN9__gnu_cxx17__normal_iteratorIPN7testing8internal9TraceInfoESt6vectorIS3_SaIS3_EEEC2ERKS4_
000000000005cb2c W _ZN9__gnu_cxx17__normal_iteratorIPNSt7__cxx1112basic_stringIcSt11char_traitsIcESaIcEEESt6vectorIS6_SaIS6_EEEC1ERKS7_
000000000005cb2c W _ZN9__gnu_cxx17__normal_iteratorIPNSt7__cxx1112basic_stringIcSt11char_traitsIcESaIcEEESt6vectorIS6_SaIS6_EEEC2ERKS7_
0000000000064866 W _ZN9__gnu_cxx17__normal_iteratorIPNSt7__cxx1112basic_stringIcSt11char_traitsIcESaIcEEESt6vectorIS6_SaIS6_EEEmmEv
0000000000064842 W _ZN9__gnu_cxx17__normal_iteratorIPNSt7__cxx1112basic_stringIcSt11char_traitsIcESaIcEEESt6vectorIS6_SaIS6_EEEppEv
0000000000067cea W _ZN9__gnu_cxx17__normal_iteratorIPPN7testing11EnvironmentESt6vectorIS3_SaIS3_EEEC1ERKS4_
0000000000067cea W _ZN9__gnu_cxx17__normal_iteratorIPPN7testing11EnvironmentESt6vectorIS3_SaIS3_EEEC2ERKS4_
0000000000062534 W _ZN9__gnu_cxx17__normal_iteratorIPPN7testing11EnvironmentESt6vectorIS3_SaIS3_EEEmmEv
0000000000060b62 W _ZN9__gnu_cxx17__normal_iteratorIPPN7testing17TestEventListenerESt6vectorIS3_SaIS3_EEEC1ERKS4_
0000000000060b62 W _ZN9__gnu_cxx17__normal_iteratorIPPN7testing17TestEventListenerESt6vectorIS3_SaIS3_EEEC2ERKS4_
00000000000606b4 W _ZN9__gnu_cxx17__normal_iteratorIPPN7testing8TestInfoESt6vectorIS3_SaIS3_EEEC1ERKS4_
00000000000606b4 W _ZN9__gnu_cxx17__normal_iteratorIPPN7testing8TestInfoESt6vectorIS3_SaIS3_EEEC2ERKS4_
0000000000070822 W _ZN9__gnu_cxx17__normal_iteratorIPPN7testing8TestInfoESt6vectorIS3_SaIS3_EEEmmEv
0000000000070d4c W _ZN9__gnu_cxx17__normal_iteratorIPPN7testing8TestInfoESt6vectorIS3_SaIS3_EEEpLEl
000000000006e332 W _ZN9__gnu_cxx17__normal_iteratorIPPN7testing8TestInfoESt6vectorIS3_SaIS3_EEEppEv
000000000005b768 W _ZN9__gnu_cxx17__normal_iteratorIPPN7testing8internal30ParameterizedTestSuiteInfoBaseESt6vectorIS4_SaIS4_EEEC1ERKS5_
000000000005b768 W _ZN9__gnu_cxx17__normal_iteratorIPPN7testing8internal30ParameterizedTestSuiteInfoBaseESt6vectorIS4_SaIS4_EEEC2ERKS5_
0000000000051db0 W _ZN9__gnu_cxx17__normal_iteratorIPPN7testing8internal30ParameterizedTestSuiteInfoBaseESt6vectorIS4_SaIS4_EEEppEv
0000000000061fe4 W _ZN9__gnu_cxx17__normal_iteratorIPPN7testing9TestSuiteESt6vectorIS3_SaIS3_EEEC1ERKS4_
0000000000061fe4 W _ZN9__gnu_cxx17__normal_iteratorIPPN7testing9TestSuiteESt6vectorIS3_SaIS3_EEEC2ERKS4_
0000000000061fc0 W _ZN9__gnu_cxx17__normal_iteratorIPPN7testing9TestSuiteESt6vectorIS3_SaIS3_EEEmmEv
000000000005a4f4 W _ZN9__gnu_cxx17__normal_iteratorIPPN7testing9TestSuiteESt6vectorIS3_SaIS3_EEEppEv
000000000005af6c W _ZN9__gnu_cxx17__normal_iteratorIPcNSt7__cxx1112basic_stringIcSt11char_traitsIcESaIcEEEEC1ERKS1_
000000000005af6c W _ZN9__gnu_cxx17__normal_iteratorIPcNSt7__cxx1112basic_stringIcSt11char_traitsIcESaIcEEEEC2ERKS1_
000000000005122e W _ZN9__gnu_cxx17__normal_iteratorIPcNSt7__cxx1112basic_stringIcSt11char_traitsIcESaIcEEEEmmEv
0000000000069346 W _ZN9__gnu_cxx17__normal_iteratorIPcNSt7__cxx1112basic_stringIcSt11char_traitsIcESaIcEEEEpLEl
0000000000053330 W _ZN9__gnu_cxx17__normal_iteratorIPcNSt7__cxx1112basic_stringIcSt11char_traitsIcESaIcEEEEppEi
000000000006b84c W _ZN9__gnu_cxx17__normal_iteratorIPiSt6vectorIiSaIiEEEC1ERKS1_
000000000006b84c W _ZN9__gnu_cxx17__normal_iteratorIPiSt6vectorIiSaIiEEEC2ERKS1_
000000000006ad8c W _ZN9__gnu_cxx17__normal_iteratorIPmSt6vectorImSaImEEEC1ERKS1_
000000000006ad8c W _ZN9__gnu_cxx17__normal_iteratorIPmSt6vectorImSaImEEEC2ERKS1_
0000000000061e56 W _ZN9__gnu_cxx5__ops10_Iter_predIN7testing8internal15TestSuiteNameIsEEC1ERKS5_
00000000000686d8 W _ZN9__gnu_cxx5__ops10_Iter_predIN7testing8internal15TestSuiteNameIsEEC1ES4_
0000000000061e56 W _ZN9__gnu_cxx5__ops10_Iter_predIN7testing8internal15TestSuiteNameIsEEC2ERKS5_
00000000000686d8 W _ZN9__gnu_cxx5__ops10_Iter_predIN7testing8internal15TestSuiteNameIsEEC2ES4_
0000000000059d28 W _ZN9__gnu_cxx5__ops10_Iter_predIN7testing8internal15TestSuiteNameIsEED1Ev
0000000000059d28 W _ZN9__gnu_cxx5__ops10_Iter_predIN7testing8internal15TestSuiteNameIsEED2Ev
000000000006c1e0 W _ZN9__gnu_cxx5__ops10_Iter_predIN7testing8internal15TestSuiteNameIsEEclISt16reverse_iteratorINS_17__normal_iteratorIPPNS2_9TestSuiteESt6vectorISA_SaISA_EEEEEEEbT_
000000000005f830 W _ZN9__gnu_cxx5__ops10_Iter_predIN7testing8internal17TestPropertyKeyIsEEC1ERKS5_
00000000000668ba W _ZN9__gnu_cxx5__ops10_Iter_predIN7testing8internal17TestPropertyKeyIsEEC1ES4_
000000000005f830 W _ZN9__gnu_cxx5__ops10_Iter_predIN7testing8internal17TestPropertyKeyIsEEC2ERKS5_
00000000000668ba W _ZN9__gnu_cxx5__ops10_Iter_predIN7testing8internal17TestPropertyKeyIsEEC2ES4_
0000000000057762 W _ZN9__gnu_cxx5__ops10_Iter_predIN7testing8internal17TestPropertyKeyIsEED1Ev
0000000000057762 W _ZN9__gnu_cxx5__ops10_Iter_predIN7testing8internal17TestPropertyKeyIsEED2Ev
000000000006b306 W _ZN9__gnu_cxx5__ops10_Iter_predIN7testing8internal17TestPropertyKeyIsEEclINS_17__normal_iteratorIPNS2_12TestPropertyESt6vectorIS8_SaIS8_EEEEEEbT_
0000000000048ad4 t _ZN9__gnu_cxx5__ops10_Iter_predIZN7testing8internal12_GLOBAL__N_113IsGlobPatternERKNSt7__cxx1112basic_stringIcSt11char_traitsIcESaIcEEEEUlcE_EC1ESD_
0000000000048ad4 t _ZN9__gnu_cxx5__ops10_Iter_predIZN7testing8internal12_GLOBAL__N_113IsGlobPatternERKNSt7__cxx1112basic_stringIcSt11char_traitsIcESaIcEEEEUlcE_EC2ESD_
0000000000049782 t _ZN9__gnu_cxx5__ops10_Iter_predIZN7testing8internal12_GLOBAL__N_113IsGlobPatternERKNSt7__cxx1112basic_stringIcSt11char_traitsIcESaIcEEEEUlcE_EclINS_17__normal_iteratorIPKcSA_EEEEbT_
0000000000048ca4 t _ZN9__gnu_cxx5__ops10_Iter_predIZNK7testing8internal12_GLOBAL__N_114UnitTestFilter11MatchesNameERKNSt7__cxx1112basic_stringIcSt11char_traitsIcESaIcEEEEUlSD_E_EC1ESE_
0000000000048ca4 t _ZN9__gnu_cxx5__ops10_Iter_predIZNK7testing8internal12_GLOBAL__N_114UnitTestFilter11MatchesNameERKNSt7__cxx1112basic_stringIcSt11char_traitsIcESaIcEEEEUlSD_E_EC2ESE_
00000000000497ba t _ZN9__gnu_cxx5__ops10_Iter_predIZNK7testing8internal12_GLOBAL__N_114UnitTestFilter11MatchesNameERKNSt7__cxx1112basic_stringIcSt11char_traitsIcESaIcEEEEUlSD_E_EclINS_17__normal_iteratorIPSC_St6vectorISB_SaISB_EEEEEEbT_
0000000000061dba W _ZN9__gnu_cxx5__ops11__pred_iterIN7testing8internal15TestSuiteNameIsEEENS0_10_Iter_predIT_EES6_
000000000005f7b6 W _ZN9__gnu_cxx5__ops11__pred_iterIN7testing8internal17TestPropertyKeyIsEEENS0_10_Iter_predIT_EES6_
00000000000482f1 t _ZN9__gnu_cxx5__ops11__pred_iterIZN7testing8internal12_GLOBAL__N_113IsGlobPatternERKNSt7__cxx1112basic_stringIcSt11char_traitsIcESaIcEEEEUlcE_EENS0_10_Iter_predIT_EESF_
000000000004836f t _ZN9__gnu_cxx5__ops11__pred_iterIZNK7testing8internal12_GLOBAL__N_114UnitTestFilter11MatchesNameERKNSt7__cxx1112basic_stringIcSt11char_traitsIcESaIcEEEEUlSD_E_EENS0_10_Iter_predIT_EESG_
000000000004985a t _ZN9__gnu_cxx5__ops14_Iter_comp_valIZN7testing9TestSuite3RunEvEUlPKNS2_8TestInfoES6_E_EC1EONS0_15_Iter_comp_iterIS7_EE
000000000004985a t _ZN9__gnu_cxx5__ops14_Iter_comp_valIZN7testing9TestSuite3RunEvEUlPKNS2_8TestInfoES6_E_EC2EONS0_15_Iter_comp_iterIS7_EE
000000000004987a t _ZN9__gnu_cxx5__ops14_Iter_comp_valIZN7testing9TestSuite3RunEvEUlPKNS2_8TestInfoES6_E_EclINS_17__normal_iteratorIPPS4_St6vectorISB_SaISB_EEEEKSB_EEbT_RT0_
00000000000497fa t _ZN9__gnu_cxx5__ops14_Val_comp_iterIZN7testing9TestSuite3RunEvEUlPKNS2_8TestInfoES6_E_EC1EONS0_15_Iter_comp_iterIS7_EE
00000000000497fa t _ZN9__gnu_cxx5__ops14_Val_comp_iterIZN7testing9TestSuite3RunEvEUlPKNS2_8TestInfoES6_E_EC2EONS0_15_Iter_comp_iterIS7_EE
00000000000498c2 t _ZN9__gnu_cxx5__ops14_Val_comp_iterIZN7testing9TestSuite3RunEvEUlPKNS2_8TestInfoES6_E_EclIKPS4_NS_17__normal_iteratorIPSA_St6vectorISA_SaISA_EEEEEEbRT_T0_
000000000004981a t _ZN9__gnu_cxx5__ops14_Val_comp_iterIZN7testing9TestSuite3RunEvEUlPKNS2_8TestInfoES6_E_EclIPS4_NS_17__normal_iteratorIPSA_St6vectorISA_SaISA_EEEEEEbRT_T0_
000000000004807e t _ZN9__gnu_cxx5__ops15_Iter_comp_iterIZN7testing9TestSuite3RunEvEUlPKNS2_8TestInfoES6_E_EC1ES7_
000000000004807e t _ZN9__gnu_cxx5__ops15_Iter_comp_iterIZN7testing9TestSuite3RunEvEUlPKNS2_8TestInfoES6_E_EC2ES7_
00000000000494b6 t _ZN9__gnu_cxx5__ops15_Iter_comp_iterIZN7testing9TestSuite3RunEvEUlPKNS2_8TestInfoES6_E_EclINS_17__normal_iteratorIPPS4_St6vectorISB_SaISB_EEEESC_EEbT_T0_
0000000000048526 t _ZN9__gnu_cxx5__ops15_Iter_comp_iterIZN7testing9TestSuite3RunEvEUlPKNS2_8TestInfoES6_E_EclINS_17__normal_iteratorIPPS4_St6vectorISB_SaISB_EEEESG_EEbT_T0_
00000000000495fc t _ZN9__gnu_cxx5__ops15_Iter_comp_iterIZN7testing9TestSuite3RunEvEUlPKNS2_8TestInfoES6_E_EclIPPS4_NS_17__normal_iteratorISB_St6vectorISA_SaISA_EEEEEEbT_T0_
0000000000049a0c t _ZN9__gnu_cxx5__ops15_Iter_comp_iterIZN7testing9TestSuite3RunEvEUlPKNS2_8TestInfoES6_E_EclIPPS4_SB_EEbT_T0_
0000000000048fa9 t _ZN9__gnu_cxx5__ops15__iter_comp_valIZN7testing9TestSuite3RunEvEUlPKNS2_8TestInfoES6_E_EENS0_14_Iter_comp_valIT_EENS0_15_Iter_comp_iterIS9_EE
0000000000048e77 t _ZN9__gnu_cxx5__ops15__val_comp_iterIZN7testing9TestSuite3RunEvEUlPKNS2_8TestInfoES6_E_EENS0_14_Val_comp_iterIT_EENS0_15_Iter_comp_iterIS9_EE
0000000000066e5c W _ZN9__gnu_cxx5__ops16_Iter_equals_valIKNSt7__cxx1112basic_stringIcSt11char_traitsIcESaIcEEEEC1ERS8_
0000000000066e5c W _ZN9__gnu_cxx5__ops16_Iter_equals_valIKNSt7__cxx1112basic_stringIcSt11char_traitsIcESaIcEEEEC2ERS8_
000000000006b460 W _ZN9__gnu_cxx5__ops16_Iter_equals_valIKNSt7__cxx1112basic_stringIcSt11char_traitsIcESaIcEEEEclINS_17__normal_iteratorIPS8_St6vectorIS7_SaIS7_EEEEEEbT_
0000000000047e7f t _ZN9__gnu_cxx5__ops16__iter_comp_iterIZN7testing9TestSuite3RunEvEUlPKNS2_8TestInfoES6_E_EENS0_15_Iter_comp_iterIT_EES9_
000000000005fc3e W _ZN9__gnu_cxx5__ops17__iter_equals_valIKNSt7__cxx1112basic_stringIcSt11char_traitsIcESaIcEEEEENS0_16_Iter_equals_valIT_EERSA_
00000000000760e4 r _ZN9__gnu_cxxL21__default_lock_policyE
00000000000778c0 r _ZN9__gnu_cxxL21__default_lock_policyE
000000000007c850 r _ZN9__gnu_cxxL21__default_lock_policyE
000000000005630a W _ZN9__gnu_cxxeqIPKN7testing8internal13edit_distance8EditTypeESt6vectorIS4_SaIS4_EEEEbRKNS_17__normal_iteratorIT_T0_EESF_
000000000006101c W _ZN9__gnu_cxxeqIPKN7testing8internal9TraceInfoESt6vectorIS3_SaIS3_EEEEbRKNS_17__normal_iteratorIT_T0_EESE_
000000000005cebc W _ZN9__gnu_cxxeqIPKNSt7__cxx1112basic_stringIcSt11char_traitsIcESaIcEEESt6vectorIS6_SaIS6_EEEEbRKNS_17__normal_iteratorIT_T0_EESH_
000000000006205b W _ZN9__gnu_cxxeqIPKPN7testing9TestSuiteEPS3_St6vectorIS3_SaIS3_EEEEbRKNS_17__normal_iteratorIT_T1_EERKNSA_IT0_SC_EE
0000000000064706 W _ZN9__gnu_cxxeqIPKcNSt7__cxx1112basic_stringIcSt11char_traitsIcESaIcEEEEEbRKNS_17__normal_iteratorIT_T0_EESE_
0000000000057854 W _ZN9__gnu_cxxeqIPN7testing12TestPropertyESt6vectorIS2_SaIS2_EEEEbRKNS_17__normal_iteratorIT_T0_EESC_
0000000000065814 W _ZN9__gnu_cxxeqIPN7testing8internal13edit_distance8EditTypeESt6vectorIS4_SaIS4_EEEEbRKNS_17__normal_iteratorIT_T0_EESE_
0000000000064803 W _ZN9__gnu_cxxeqIPNSt7__cxx1112basic_stringIcSt11char_traitsIcESaIcEEESt6vectorIS6_SaIS6_EEEEbRKNS_17__normal_iteratorIT_T0_EESG_
000000000006c391 W _ZN9__gnu_cxxeqIPPN7testing11EnvironmentESt6vectorIS3_SaIS3_EEEEbRKNS_17__normal_iteratorIT_T0_EESD_
0000000000067728 W _ZN9__gnu_cxxeqIPPN7testing8TestInfoESt6vectorIS3_SaIS3_EEEEbRKNS_17__normal_iteratorIT_T0_EESD_
0000000000068a9d W _ZN9__gnu_cxxeqIPPN7testing9TestSuiteESt6vectorIS3_SaIS3_EEEEbRKNS_17__normal_iteratorIT_T0_EESD_
0000000000053395 W _ZN9__gnu_cxxeqIPcNSt7__cxx1112basic_stringIcSt11char_traitsIcESaIcEEEEEbRKNS_17__normal_iteratorIT_T0_EESD_
0000000000065878 W _ZN9__gnu_cxxltIPN7testing8internal13edit_distance8EditTypeESt6vectorIS4_SaIS4_EEEEbRKNS_17__normal_iteratorIT_T0_EESE_
0000000000056349 W _ZN9__gnu_cxxmiIPKN7testing8internal13edit_distance8EditTypeESt6vectorIS4_SaIS4_EEEENS_17__normal_iteratorIT_T0_E15difference_typeERKSD_SG_
000000000006961b W _ZN9__gnu_cxxmiIPKNSt7__cxx1112basic_stringIcSt11char_traitsIcESaIcEEESt6vectorIS6_SaIS6_EEEENS_17__normal_iteratorIT_T0_E15difference_typeERKSF_SI_
0000000000060be2 W _ZN9__gnu_cxxmiIPKPN7testing17TestEventListenerESt6vectorIS3_SaIS3_EEEENS_17__normal_iteratorIT_T0_E15difference_typeERKSC_SF_
0000000000062018 W _ZN9__gnu_cxxmiIPKPN7testing9TestSuiteEPS3_St6vectorIS3_SaIS3_EEEEDTmicldtfp_4baseEcldtfp0_4baseEERKNS_17__normal_iteratorIT_T1_EERKNSB_IT0_SD_EE
0000000000062124 W _ZN9__gnu_cxxmiIPKPN7testing9TestSuiteESt6vectorIS3_SaIS3_EEEENS_17__normal_iteratorIT_T0_E15difference_typeERKSC_SF_
00000000000531e8 W _ZN9__gnu_cxxmiIPKcNSt7__cxx1112basic_stringIcSt11char_traitsIcESaIcEEEEENS_17__normal_iteratorIT_T0_E15difference_typeERKSC_SF_
0000000000066c8b W _ZN9__gnu_cxxmiIPN7testing12TestPropertyESt6vectorIS2_SaIS2_EEEENS_17__normal_iteratorIT_T0_E15difference_typeERKSA_SD_
0000000000063820 W _ZN9__gnu_cxxmiIPN7testing14TestPartResultESt6vectorIS2_SaIS2_EEEENS_17__normal_iteratorIT_T0_E15difference_typeERKSA_SD_
0000000000065751 W _ZN9__gnu_cxxmiIPN7testing8internal13edit_distance8EditTypeESt6vectorIS4_SaIS4_EEEENS_17__normal_iteratorIT_T0_E15difference_typeERKSC_SF_
0000000000068126 W _ZN9__gnu_cxxmiIPN7testing8internal9TraceInfoESt6vectorIS3_SaIS3_EEEENS_17__normal_iteratorIT_T0_E15difference_typeERKSB_SE_
00000000000631bf W _ZN9__gnu_cxxmiIPNSt7__cxx1112basic_stringIcSt11char_traitsIcESaIcEEESt6vectorIS6_SaIS6_EEEENS_17__normal_iteratorIT_T0_E15difference_typeERKSE_SH_
0000000000067dfb W _ZN9__gnu_cxxmiIPPN7testing11EnvironmentESt6vectorIS3_SaIS3_EEEENS_17__normal_iteratorIT_T0_E15difference_typeERKSB_SE_
0000000000067b19 W _ZN9__gnu_cxxmiIPPN7testing17TestEventListenerESt6vectorIS3_SaIS3_EEEENS_17__normal_iteratorIT_T0_E15difference_typeERKSB_SE_
00000000000673b7 W _ZN9__gnu_cxxmiIPPN7testing8TestInfoESt6vectorIS3_SaIS3_EEEENS_17__normal_iteratorIT_T0_E15difference_typeERKSB_SE_
0000000000068cff W _ZN9__gnu_cxxmiIPPN7testing9TestSuiteESt6vectorIS3_SaIS3_EEEENS_17__normal_iteratorIT_T0_E15difference_typeERKSB_SE_
000000000006b9aa W _ZN9__gnu_cxxmiIPiSt6vectorIiSaIiEEEENS_17__normal_iteratorIT_T0_E15difference_typeERKS8_SB_
000000000006aeea W _ZN9__gnu_cxxmiIPmSt6vectorImSaImEEEENS_17__normal_iteratorIT_T0_E15difference_typeERKS8_SB_
000000000005fdc8 W _ZN9__gnu_cxxneIPKN7testing14TestPartResultESt6vectorIS2_SaIS2_EEEEbRKNS_17__normal_iteratorIT_T0_EESD_
0000000000056290 W _ZN9__gnu_cxxneIPKN7testing8internal13edit_distance8EditTypeESt6vectorIS4_SaIS4_EEEEbRKNS_17__normal_iteratorIT_T0_EESF_
0000000000054348 W _ZN9__gnu_cxxneIPKNSt7__cxx1112basic_stringIcSt11char_traitsIcESaIcEEEPS6_St6vectorIS6_SaIS6_EEEEbRKNS_17__normal_iteratorIT_T1_EERKNSD_IT0_SF_EE
0000000000057ad7 W _ZN9__gnu_cxxneIPKNSt7__cxx1112basic_stringIcSt11char_traitsIcESaIcEEESt6vectorIS6_SaIS6_EEEEbRKNS_17__normal_iteratorIT_T0_EESH_
000000000006864d W _ZN9__gnu_cxxneIPKPN7testing11EnvironmentESt6vectorIS3_SaIS3_EEEEbRKNS_17__normal_iteratorIT_T0_EESE_
000000000006795b W _ZN9__gnu_cxxneIPKPN7testing17TestEventListenerESt6vectorIS3_SaIS3_EEEEbRKNS_17__normal_iteratorIT_T0_EESE_
0000000000060170 W _ZN9__gnu_cxxneIPKPN7testing8TestInfoESt6vectorIS3_SaIS3_EEEEbRKNS_17__normal_iteratorIT_T0_EESE_
0000000000058f72 W _ZN9__gnu_cxxneIPKPN7testing9TestSuiteESt6vectorIS3_SaIS3_EEEEbRKNS_17__normal_iteratorIT_T0_EESE_
000000000005316e W _ZN9__gnu_cxxneIPKcNSt7__cxx1112basic_stringIcSt11char_traitsIcESaIcEEEEEbRKNS_17__normal_iteratorIT_T0_EESE_
00000000000532f0 W _ZN9__gnu_cxxneIPKcPcNSt7__cxx1112basic_stringIcSt11char_traitsIcESaIcEEEEEbRKNS_17__normal_iteratorIT_T1_EERKNSA_IT0_SC_EE
0000000000067c06 W _ZN9__gnu_cxxneIPPN7testing17TestEventListenerESt6vectorIS3_SaIS3_EEEEbRKNS_17__normal_iteratorIT_T0_EESD_
000000000006e2f3 W _ZN9__gnu_cxxneIPPN7testing8TestInfoESt6vectorIS3_SaIS3_EEEEbRKNS_17__normal_iteratorIT_T0_EESD_
0000000000051d70 W _ZN9__gnu_cxxneIPPN7testing8internal30ParameterizedTestSuiteInfoBaseESt6vectorIS4_SaIS4_EEEEbRKNS_17__normal_iteratorIT_T0_EESE_
000000000005a4b4 W _ZN9__gnu_cxxneIPPN7testing9TestSuiteESt6vectorIS3_SaIS3_EEEEbRKNS_17__normal_iteratorIT_T0_EESD_
00000000000511ef W _ZN9__gnu_cxxneIPcNSt7__cxx1112basic_stringIcSt11char_traitsIcESaIcEEEEEbRKNS_17__normal_iteratorIT_T0_EESD_
000000000004c3e6 W _ZNK7testing10TestResult12elapsed_timeEv
000000000002f556 T _ZNK7testing10TestResult15GetTestPropertyEi
000000000003017e T _ZNK7testing10TestResult15HasFatalFailureEv
000000000004c3fc W _ZNK7testing10TestResult15start_timestampEv
000000000004c452 W _ZNK7testing10TestResult16death_test_countEv
0000000000030200 T _ZNK7testing10TestResult16total_part_countEv
000000000002f4fc T _ZNK7testing10TestResult17GetTestPartResultEi
00000000000301ce T _ZNK7testing10TestResult18HasNonfatalFailureEv
0000000000030222 T _ZNK7testing10TestResult19test_property_countEv
0000000000030102 T _ZNK7testing10TestResult6FailedEv
000000000004c3a2 W _ZNK7testing10TestResult6PassedEv
00000000000300b2 T _ZNK7testing10TestResult7SkippedEv
000000000004c334 W _ZNK7testing12TestProperty3keyEv
000000000004c352 W _ZNK7testing12TestProperty5valueEv
000000000001d3ce T _ZNK7testing14ExitedWithCodeclEi
000000000001d424 T _ZNK7testing14KilledBySignalclEi
000000000004bfde W _ZNK7testing14TestPartResult11line_numberEv
000000000004c06c W _ZNK7testing14TestPartResult14fatally_failedEv
000000000004c052 W _ZNK7testing14TestPartResult17nonfatally_failedEv
000000000004bf8c W _ZNK7testing14TestPartResult4typeEv
000000000004c086 W _ZNK7testing14TestPartResult6failedEv
000000000004c016 W _ZNK7testing14TestPartResult7messageEv
000000000004c038 W _ZNK7testing14TestPartResult7skippedEv
000000000004bff4 W _ZNK7testing14TestPartResult7summaryEv
000000000004bfa0 W _ZNK7testing14TestPartResult9file_nameEv
0000000000015206 W _ZNK7testing15AssertionResult15failure_messageEv
00000000000151ba W _ZNK7testing15AssertionResult7messageEv
00000000000151a4 W _ZNK7testing15AssertionResultcvbEv
000000000001d162 T _ZNK7testing15AssertionResultntEv
0000000000040116 T _ZNK7testing18TestEventListeners22EventForwardingEnabledEv
0000000000026ed2 T _ZNK7testing19TestPartResultArray17GetTestPartResultEi
0000000000026f42 T _ZNK7testing19TestPartResultArray4sizeEv
000000000004bc58 W _ZNK7testing25MatcherDescriberInterface18DescribeNegationToEPSo
000000000002b702 T _ZNK7testing7Message9GetStringB5cxx11Ev
000000000004c5b4 W _ZNK7testing8TestInfo10should_runEv
000000000004c4ce W _ZNK7testing8TestInfo10type_paramEv
000000000004c518 W _ZNK7testing8TestInfo11value_paramEv
000000000004c5ce W _ZNK7testing8TestInfo13is_reportableEv
000000000004c48e W _ZNK7testing8TestInfo15test_suite_nameEv
000000000004c59a W _ZNK7testing8TestInfo19is_in_another_shardEv
000000000004c562 W _ZNK7testing8TestInfo4fileEv
000000000004c584 W _ZNK7testing8TestInfo4lineEv
000000000004c4ac W _ZNK7testing8TestInfo4nameEv
000000000004c60a W _ZNK7testing8TestInfo6resultEv
0000000000040544 T _ZNK7testing8UnitTest11GetTestCaseEi
0000000000040ddc T _ZNK7testing8UnitTest11random_seedEv
0000000000040512 T _ZNK7testing8UnitTest12GetTestSuiteEi
00000000000404a0 T _ZNK7testing8UnitTest12elapsed_timeEv
000000000004047a T _ZNK7testing8UnitTest15start_timestampEv
000000000004042e T _ZNK7testing8UnitTest16total_test_countEv
0000000000040cf4 T _ZNK7testing8UnitTest17current_test_caseEv
0000000000040d68 T _ZNK7testing8UnitTest17current_test_infoEv
0000000000040396 T _ZNK7testing8UnitTest17failed_test_countEv
0000000000040454 T _ZNK7testing8UnitTest17test_to_run_countEv
0000000000040576 T _ZNK7testing8UnitTest18ad_hoc_test_resultEv
0000000000040c80 T _ZNK7testing8UnitTest18current_test_suiteEv
0000000000040370 T _ZNK7testing8UnitTest18skipped_test_countEv
00000000000403e2 T _ZNK7testing8UnitTest19disabled_test_countEv
0000000000040c5a T _ZNK7testing8UnitTest20original_working_dirEv
0000000000040408 T _ZNK7testing8UnitTest21reportable_test_countEv
000000000004034a T _ZNK7testing8UnitTest21successful_test_countEv
00000000000402fe T _ZNK7testing8UnitTest21total_test_case_countEv
00000000000402d8 T _ZNK7testing8UnitTest22failed_test_case_countEv
0000000000040324 T _ZNK7testing8UnitTest22test_case_to_run_countEv
0000000000040266 T _ZNK7testing8UnitTest22total_test_suite_countEv
0000000000040240 T _ZNK7testing8UnitTest23failed_test_suite_countEv
000000000004028c T _ZNK7testing8UnitTest23test_suite_to_run_countEv
00000000000402b2 T _ZNK7testing8UnitTest26successful_test_case_countEv
000000000004021a T _ZNK7testing8UnitTest27successful_test_suite_countEv
00000000000403bc T _ZNK7testing8UnitTest30reportable_disabled_test_countEv
000000000004cbdc W _ZNK7testing8UnitTest4implEv
00000000000404ec T _ZNK7testing8UnitTest6FailedEv
00000000000404c6 T _ZNK7testing8UnitTest6PassedEv
00000000000755da W _ZNK7testing8internal11MatcherBaseINSt7__cxx1112basic_stringIcSt11char_traitsIcESaIcEEEE10DescribeToEPSo
00000000000756c2 W _ZNK7testing8internal11MatcherBaseINSt7__cxx1112basic_stringIcSt11char_traitsIcESaIcEEEE18DescribeNegationToEPSo
0000000000062bd4 W _ZNK7testing8internal11MatcherBaseINSt7__cxx1112basic_stringIcSt11char_traitsIcESaIcEEEE8IsSharedEv
0000000000052a94 W _ZNK7testing8internal11MatcherBaseIRKNSt7__cxx1112basic_stringIcSt11char_traitsIcESaIcEEEE10DescribeToEPSo
000000000005bc74 W _ZNK7testing8internal11MatcherBaseIRKNSt7__cxx1112basic_stringIcSt11char_traitsIcESaIcEEEE15MatchAndExplainES9_PNS_19MatchResultListenerE
00000000000757aa W _ZNK7testing8internal11MatcherBaseIRKNSt7__cxx1112basic_stringIcSt11char_traitsIcESaIcEEEE18DescribeNegationToEPSo
0000000000052a02 W _ZNK7testing8internal11MatcherBaseIRKNSt7__cxx1112basic_stringIcSt11char_traitsIcESaIcEEEE7MatchesES9_
0000000000062b9c W _ZNK7testing8internal11MatcherBaseIRKNSt7__cxx1112basic_stringIcSt11char_traitsIcESaIcEEEE8IsSharedEv
000000000007540a W _ZNK7testing8internal11MatcherBaseIRKSt17basic_string_viewIcSt11char_traitsIcEEE10DescribeToEPSo
00000000000754f2 W _ZNK7testing8internal11MatcherBaseIRKSt17basic_string_viewIcSt11char_traitsIcEEE18DescribeNegationToEPSo
0000000000062c0c W _ZNK7testing8internal11MatcherBaseIRKSt17basic_string_viewIcSt11char_traitsIcEEE8IsSharedEv
000000000007523a W _ZNK7testing8internal11MatcherBaseISt17basic_string_viewIcSt11char_traitsIcEEE10DescribeToEPSo
0000000000075322 W _ZNK7testing8internal11MatcherBaseISt17basic_string_viewIcSt11char_traitsIcEEE18DescribeNegationToEPSo
0000000000062c44 W _ZNK7testing8internal11MatcherBaseISt17basic_string_viewIcSt11char_traitsIcEEE8IsSharedEv
0000000000064d68 W _ZNK7testing8internal11ThreadLocalIPNS_31TestPartResultReporterInterfaceEE16GetOrCreateValueEv
0000000000075200 W _ZNK7testing8internal11ThreadLocalIPNS_31TestPartResultReporterInterfaceEE26InstanceValueHolderFactory13MakeNewHolderEv
0000000000055124 W _ZNK7testing8internal11ThreadLocalIPNS_31TestPartResultReporterInterfaceEE3getEv
000000000005dab0 W _ZNK7testing8internal11ThreadLocalIPNS_31TestPartResultReporterInterfaceEE7pointerEv
000000000005b952 W _ZNK7testing8internal11ThreadLocalISt6vectorINS0_9TraceInfoESaIS3_EEE16GetOrCreateValueEv
00000000000751d0 W _ZNK7testing8internal11ThreadLocalISt6vectorINS0_9TraceInfoESaIS3_EEE25DefaultValueHolderFactory13MakeNewHolderEv
0000000000027db2 T _ZNK7testing8internal12AssertHelperaSERKNS_7MessageE
000000000004d424 W _ZNK7testing8internal12UnitTestImpl11GetTestCaseEi
000000000004d856 W _ZNK7testing8internal12UnitTestImpl11random_seedEv
000000000004d3c4 W _ZNK7testing8internal12UnitTestImpl12GetTestSuiteEi
000000000004d342 W _ZNK7testing8internal12UnitTestImpl12elapsed_timeEv
000000000004d328 W _ZNK7testing8internal12UnitTestImpl15start_timestampEv
000000000004d886 W _ZNK7testing8internal12UnitTestImpl16catch_exceptionsEv
000000000002b07e T _ZNK7testing8internal12UnitTestImpl16total_test_countEv
000000000004d784 W _ZNK7testing8internal12UnitTestImpl17current_test_infoEv
000000000002af86 T _ZNK7testing8internal12UnitTestImpl17failed_test_countEv
000000000002b0bc T _ZNK7testing8internal12UnitTestImpl17test_to_run_countEv
000000000004d4c2 W _ZNK7testing8internal12UnitTestImpl18ad_hoc_test_resultEv
000000000004d750 W _ZNK7testing8internal12UnitTestImpl18current_test_suiteEv
000000000002af48 T _ZNK7testing8internal12UnitTestImpl18skipped_test_countEv
000000000002b002 T _ZNK7testing8internal12UnitTestImpl19disabled_test_countEv
000000000002b040 T _ZNK7testing8internal12UnitTestImpl21reportable_test_countEv
000000000002af0a T _ZNK7testing8internal12UnitTestImpl21successful_test_countEv
000000000002aeb8 T _ZNK7testing8internal12UnitTestImpl22total_test_suite_countEv
000000000002ae8a T _ZNK7testing8internal12UnitTestImpl23failed_test_suite_countEv
000000000002aedc T _ZNK7testing8internal12UnitTestImpl23test_suite_to_run_countEv
000000000002ae5c T _ZNK7testing8internal12UnitTestImpl27successful_test_suite_countEv
000000000004d80e W _ZNK7testing8internal12UnitTestImpl28internal_run_death_test_flagEv
000000000002afc4 T _ZNK7testing8internal12UnitTestImpl30reportable_disabled_test_countEv
000000000004d37e W _ZNK7testing8internal12UnitTestImpl6FailedEv
000000000004d35c W _ZNK7testing8internal12UnitTestImpl6PassedEv
0000000000029c08 t _ZNK7testing8internal12_GLOBAL__N_114UnitTestFilter11MatchesNameERKNSt7__cxx1112basic_stringIcSt11char_traitsIcESaIcEEE
000000000002a194 t _ZNK7testing8internal12_GLOBAL__N_133PositiveAndNegativeUnitTestFilter11MatchesNameERKNSt7__cxx1112basic_stringIcSt11char_traitsIcESaIcEEE
000000000002a0c0 t _ZNK7testing8internal12_GLOBAL__N_133PositiveAndNegativeUnitTestFilter11MatchesTestERKNSt7__cxx1112basic_stringIcSt11char_traitsIcESaIcEEESA_
000000000004f22a W _ZNK7testing8internal13DeathTestImpl6statusEv
000000000004f25c W _ZNK7testing8internal13DeathTestImpl7outcomeEv
000000000004f28e W _ZNK7testing8internal13DeathTestImpl7read_fdEv
000000000004f1f4 W _ZNK7testing8internal13DeathTestImpl7spawnedEv
000000000004f2c0 W _ZNK7testing8internal13DeathTestImpl8write_fdEv
000000000004f1de W _ZNK7testing8internal13DeathTestImpl9statementEv
0000000000015cb0 W _ZNK7testing8internal13FloatingPointIdE12AlmostEqualsERKS2_
0000000000016032 W _ZNK7testing8internal13FloatingPointIdE13exponent_bitsEv
0000000000016054 W _ZNK7testing8internal13FloatingPointIdE13fraction_bitsEv
0000000000015eac W _ZNK7testing8internal13FloatingPointIdE6is_nanEv
000000000005f1e6 W _ZNK7testing8internal13FloatingPointIfE12AlmostEqualsERKS2_
000000000006b1b8 W _ZNK7testing8internal13FloatingPointIfE13exponent_bitsEv
000000000006b1d2 W _ZNK7testing8internal13FloatingPointIfE13fraction_bitsEv
0000000000066744 W _ZNK7testing8internal13FloatingPointIfE6is_nanEv
000000000002c762 t _ZNK7testing8internal13edit_distance12_GLOBAL__N_14Hunk11PrintHeaderEPSo
000000000002c664 t _ZNK7testing8internal13edit_distance12_GLOBAL__N_14Hunk9has_editsEv
000000000006f0fe W _ZNK7testing8internal14ComparisonBaseINS0_9EqMatcherINSt7__cxx1112basic_stringIcSt11char_traitsIcESaIcEEEEES8_St8equal_toIvEE10DescribeToEPSo
000000000006f03a W _ZNK7testing8internal14ComparisonBaseINS0_9EqMatcherINSt7__cxx1112basic_stringIcSt11char_traitsIcESaIcEEEEES8_St8equal_toIvEE15MatchAndExplainIS8_EEbRKT_PSo
000000000006f29a W _ZNK7testing8internal14ComparisonBaseINS0_9EqMatcherINSt7__cxx1112basic_stringIcSt11char_traitsIcESaIcEEEEES8_St8equal_toIvEE15MatchAndExplainISt17basic_string_viewIcS6_EEEbRKT_PSo
000000000006f09a W _ZNK7testing8internal14ComparisonBaseINS0_9EqMatcherINSt7__cxx1112basic_stringIcSt11char_traitsIcESaIcEEEEES8_St8equal_toIvEE18DescribeNegationToEPSo
0000000000050c14 W _ZNK7testing8internal15TestSuiteNameIsclEPKNS_9TestSuiteE
00000000000505b8 W _ZNK7testing8internal17TestEventRepeater18forwarding_enabledEv
000000000004d2f2 W _ZNK7testing8internal17TestPropertyKeyIsclERKNS_12TestPropertyE
000000000004bde8 W _ZNK7testing8internal24InternalRunDeathTestFlag4fileB5cxx11Ev
000000000004bdfa W _ZNK7testing8internal24InternalRunDeathTestFlag4lineEv
000000000004be10 W _ZNK7testing8internal24InternalRunDeathTestFlag5indexEv
000000000004be26 W _ZNK7testing8internal24InternalRunDeathTestFlag8write_fdEv
000000000002333e T _ZNK7testing8internal8FilePath11IsDirectoryEv
00000000000234e2 T _ZNK7testing8internal8FilePath12CreateFolderEv
0000000000023236 T _ZNK7testing8internal8FilePath14IsAbsolutePathEv
0000000000022af6 T _ZNK7testing8internal8FilePath14RemoveFileNameEv
000000000002310a T _ZNK7testing8internal8FilePath15DirectoryExistsEv
00000000000231c6 T _ZNK7testing8internal8FilePath15IsRootDirectoryEv
0000000000022730 T _ZNK7testing8internal8FilePath15RemoveExtensionEPKc
0000000000022906 T _ZNK7testing8internal8FilePath19CalculateRootLengthEv
00000000000229d6 T _ZNK7testing8internal8FilePath19RemoveDirectoryNameEv
000000000002308e T _ZNK7testing8internal8FilePath21FileOrDirectoryExistsEv
00000000000228d2 T _ZNK7testing8internal8FilePath21FindLastPathSeparatorEv
000000000002352a T _ZNK7testing8internal8FilePath27RemoveTrailingPathSeparatorEv
00000000000233a8 T _ZNK7testing8internal8FilePath28CreateDirectoriesRecursivelyEv
000000000004b7b2 W _ZNK7testing8internal8FilePath5c_strEv
000000000004b7a0 W _ZNK7testing8internal8FilePath6stringB5cxx11Ev
000000000004b7d0 W _ZNK7testing8internal8FilePath7IsEmptyEv
000000000004c6d8 W _ZNK7testing9TestSuite10should_runEv
000000000004c68e W _ZNK7testing9TestSuite10type_paramEv
0000000000031d64 T _ZNK7testing9TestSuite11GetTestInfoEi
000000000004c756 W _ZNK7testing9TestSuite12elapsed_timeEv
000000000004c7b4 W _ZNK7testing9TestSuite14test_info_listEv
000000000004c770 W _ZNK7testing9TestSuite15start_timestampEv
0000000000031a6c T _ZNK7testing9TestSuite16total_test_countEv
0000000000031990 T _ZNK7testing9TestSuite17failed_test_countEv
0000000000031a40 T _ZNK7testing9TestSuite17test_to_run_countEv
000000000004c786 W _ZNK7testing9TestSuite18ad_hoc_test_resultEv
0000000000031964 T _ZNK7testing9TestSuite18skipped_test_countEv
00000000000319e8 T _ZNK7testing9TestSuite19disabled_test_countEv
0000000000031a14 T _ZNK7testing9TestSuite21reportable_test_countEv
0000000000031938 T _ZNK7testing9TestSuite21successful_test_countEv
00000000000319bc T _ZNK7testing9TestSuite30reportable_disabled_test_countEv
000000000004c66c W _ZNK7testing9TestSuite4nameEv
000000000004c710 W _ZNK7testing9TestSuite6FailedEv
000000000004c6ee W _ZNK7testing9TestSuite6PassedEv
000000000006de1e W _ZNK9__gnu_cxx13new_allocatorIN7testing12TestPropertyEE11_M_max_sizeEv
0000000000071dda W _ZNK9__gnu_cxx13new_allocatorIN7testing12TestPropertyEE8max_sizeEv
000000000006cc02 W _ZNK9__gnu_cxx13new_allocatorIN7testing14TestPartResultEE11_M_max_sizeEv
0000000000071638 W _ZNK9__gnu_cxx13new_allocatorIN7testing14TestPartResultEE8max_sizeEv
000000000006d924 W _ZNK9__gnu_cxx13new_allocatorIN7testing8internal13edit_distance8EditTypeEE11_M_max_sizeEv
000000000006d72c W _ZNK9__gnu_cxx13new_allocatorIN7testing8internal13edit_distance8EditTypeEE8max_sizeEv
000000000006e9ec W _ZNK9__gnu_cxx13new_allocatorIN7testing8internal9TraceInfoEE11_M_max_sizeEv
0000000000072422 W _ZNK9__gnu_cxx13new_allocatorIN7testing8internal9TraceInfoEE8max_sizeEv
0000000000069e16 W _ZNK9__gnu_cxx13new_allocatorINSt7__cxx1112basic_stringIcSt11char_traitsIcESaIcEEEE11_M_max_sizeEv
000000000006d0a2 W _ZNK9__gnu_cxx13new_allocatorINSt7__cxx1112basic_stringIcSt11char_traitsIcESaIcEEEE8max_sizeEv
0000000000074726 W _ZNK9__gnu_cxx13new_allocatorINSt8__detail10_Hash_nodeINSt7__cxx1112basic_stringIcSt11char_traitsIcESaIcEEELb1EEEE11_M_max_sizeEv
000000000006e88c W _ZNK9__gnu_cxx13new_allocatorIPN7testing11EnvironmentEE11_M_max_sizeEv
0000000000072404 W _ZNK9__gnu_cxx13new_allocatorIPN7testing11EnvironmentEE8max_sizeEv
000000000006e698 W _ZNK9__gnu_cxx13new_allocatorIPN7testing17TestEventListenerEE11_M_max_sizeEv
0000000000072382 W _ZNK9__gnu_cxx13new_allocatorIPN7testing17TestEventListenerEE8max_sizeEv
000000000006e0dc W _ZNK9__gnu_cxx13new_allocatorIPN7testing8TestInfoEE11_M_max_sizeEv
0000000000071f3e W _ZNK9__gnu_cxx13new_allocatorIPN7testing8TestInfoEE8max_sizeEv
000000000006ed8c W _ZNK9__gnu_cxx13new_allocatorIPN7testing9TestSuiteEE11_M_max_sizeEv
00000000000725a4 W _ZNK9__gnu_cxx13new_allocatorIPN7testing9TestSuiteEE8max_sizeEv
0000000000074a96 W _ZNK9__gnu_cxx13new_allocatorIPNSt8__detail15_Hash_node_baseEE11_M_max_sizeEv
0000000000070338 W _ZNK9__gnu_cxx13new_allocatorISt10_List_nodeISt4pairIcPKcEEE11_M_max_sizeEv
00000000000729e4 W _ZNK9__gnu_cxx13new_allocatorISt13_Rb_tree_nodeINSt7__cxx1112basic_stringIcSt11char_traitsIcESaIcEEEEE11_M_max_sizeEv
000000000006f682 W _ZNK9__gnu_cxx13new_allocatorISt13_Rb_tree_nodeISt4pairIKNSt7__cxx1112basic_stringIcSt11char_traitsIcESaIcEEEN7testing8internal34TypeParameterizedTestSuiteRegistry30TypeParameterizedTestSuiteInfoEEEE11_M_max_sizeEv
000000000006ffb4 W _ZNK9__gnu_cxx13new_allocatorISt13_Rb_tree_nodeISt4pairIKNSt7__cxx1112basic_stringIcSt11char_traitsIcESaIcEEEmEEE11_M_max_sizeEv
000000000006fe44 W _ZNK9__gnu_cxx13new_allocatorISt6vectorIN7testing8internal13edit_distance8EditTypeESaIS5_EEE11_M_max_sizeEv
000000000006d7be W _ZNK9__gnu_cxx13new_allocatorISt6vectorIN7testing8internal13edit_distance8EditTypeESaIS5_EEE8max_sizeEv
000000000006fcda W _ZNK9__gnu_cxx13new_allocatorISt6vectorIdSaIdEEE11_M_max_sizeEv
000000000006d5d8 W _ZNK9__gnu_cxx13new_allocatorISt6vectorIdSaIdEEE8max_sizeEv
000000000006fbe8 W _ZNK9__gnu_cxx13new_allocatorIdE11_M_max_sizeEv
000000000006d4e4 W _ZNK9__gnu_cxx13new_allocatorIdE8max_sizeEv
0000000000070688 W _ZNK9__gnu_cxx13new_allocatorIiE11_M_max_sizeEv
0000000000073070 W _ZNK9__gnu_cxx13new_allocatorIiE8max_sizeEv
0000000000070254 W _ZNK9__gnu_cxx13new_allocatorImE11_M_max_sizeEv
0000000000072ff0 W _ZNK9__gnu_cxx13new_allocatorImE8max_sizeEv
000000000006fb96 W _ZNK9__gnu_cxx16__aligned_bufferINSt7__cxx1112basic_stringIcSt11char_traitsIcESaIcEEEE6_M_ptrEv
0000000000071980 W _ZNK9__gnu_cxx16__aligned_bufferINSt7__cxx1112basic_stringIcSt11char_traitsIcESaIcEEEE7_M_addrEv
000000000006f520 W _ZNK9__gnu_cxx16__aligned_membufINSt7__cxx1112basic_stringIcSt11char_traitsIcESaIcEEEE6_M_ptrEv
00000000000716c4 W _ZNK9__gnu_cxx16__aligned_membufINSt7__cxx1112basic_stringIcSt11char_traitsIcESaIcEEEE7_M_addrEv
0000000000062b26 W _ZNK9__gnu_cxx16__aligned_membufISt4pairIKNSt7__cxx1112basic_stringIcSt11char_traitsIcESaIcEEEN7testing8internal12CodeLocationEEE6_M_ptrEv
0000000000068fb0 W _ZNK9__gnu_cxx16__aligned_membufISt4pairIKNSt7__cxx1112basic_stringIcSt11char_traitsIcESaIcEEEN7testing8internal12CodeLocationEEE7_M_addrEv
000000000006cef4 W _ZNK9__gnu_cxx16__aligned_membufISt4pairIKNSt7__cxx1112basic_stringIcSt11char_traitsIcESaIcEEEN7testing8internal34TypeParameterizedTestSuiteRegistry30TypeParameterizedTestSuiteInfoEEE6_M_ptrEv
000000000006f770 W _ZNK9__gnu_cxx16__aligned_membufISt4pairIKNSt7__cxx1112basic_stringIcSt11char_traitsIcESaIcEEEN7testing8internal34TypeParameterizedTestSuiteRegistry30TypeParameterizedTestSuiteInfoEEE7_M_addrEv
000000000006db50 W _ZNK9__gnu_cxx16__aligned_membufISt4pairIKNSt7__cxx1112basic_stringIcSt11char_traitsIcESaIcEEEmEE6_M_ptrEv
0000000000070144 W _ZNK9__gnu_cxx16__aligned_membufISt4pairIKNSt7__cxx1112basic_stringIcSt11char_traitsIcESaIcEEEmEE7_M_addrEv
00000000000665fe W _ZNK9__gnu_cxx16__aligned_membufISt4pairIcPKcEE6_M_ptrEv
000000000006b18e W _ZNK9__gnu_cxx16__aligned_membufISt4pairIcPKcEE7_M_addrEv
0000000000067046 W _ZNK9__gnu_cxx17__normal_iteratorIPKN7testing14TestPartResultESt6vectorIS2_SaIS2_EEE4baseEv
000000000005fe2c W _ZNK9__gnu_cxx17__normal_iteratorIPKN7testing14TestPartResultESt6vectorIS2_SaIS2_EEEdeEv
000000000005f08a W _ZNK9__gnu_cxx17__normal_iteratorIPKN7testing8internal13edit_distance8EditTypeESt6vectorIS4_SaIS4_EEE4baseEv
00000000000562d0 W _ZNK9__gnu_cxx17__normal_iteratorIPKN7testing8internal13edit_distance8EditTypeESt6vectorIS4_SaIS4_EEEdeEv
00000000000561da W _ZNK9__gnu_cxx17__normal_iteratorIPKN7testing8internal13edit_distance8EditTypeESt6vectorIS4_SaIS4_EEEplEl
0000000000067ee0 W _ZNK9__gnu_cxx17__normal_iteratorIPKN7testing8internal9TraceInfoESt6vectorIS3_SaIS3_EEE4baseEv
000000000005cb60 W _ZNK9__gnu_cxx17__normal_iteratorIPKNSt7__cxx1112basic_stringIcSt11char_traitsIcESaIcEEESt6vectorIS6_SaIS6_EEE4baseEv
00000000000543ac W _ZNK9__gnu_cxx17__normal_iteratorIPKNSt7__cxx1112basic_stringIcSt11char_traitsIcESaIcEEESt6vectorIS6_SaIS6_EEEdeEv
000000000006c1ce W _ZNK9__gnu_cxx17__normal_iteratorIPKPN7testing11EnvironmentESt6vectorIS3_SaIS3_EEE4baseEv
00000000000686b0 W _ZNK9__gnu_cxx17__normal_iteratorIPKPN7testing11EnvironmentESt6vectorIS3_SaIS3_EEEdeEv
0000000000067bf4 W _ZNK9__gnu_cxx17__normal_iteratorIPKPN7testing17TestEventListenerESt6vectorIS3_SaIS3_EEE4baseEv
00000000000679be W _ZNK9__gnu_cxx17__normal_iteratorIPKPN7testing17TestEventListenerESt6vectorIS3_SaIS3_EEEdeEv
0000000000067188 W _ZNK9__gnu_cxx17__normal_iteratorIPKPN7testing8TestInfoESt6vectorIS3_SaIS3_EEE4baseEv
00000000000601d4 W _ZNK9__gnu_cxx17__normal_iteratorIPKPN7testing8TestInfoESt6vectorIS3_SaIS3_EEEdeEv
0000000000060d26 W _ZNK9__gnu_cxx17__normal_iteratorIPKPN7testing9TestSuiteESt6vectorIS3_SaIS3_EEE4baseEv
0000000000058fd6 W _ZNK9__gnu_cxx17__normal_iteratorIPKPN7testing9TestSuiteESt6vectorIS3_SaIS3_EEEdeEv
000000000005c1a6 W _ZNK9__gnu_cxx17__normal_iteratorIPKcNSt7__cxx1112basic_stringIcSt11char_traitsIcESaIcEEEE4baseEv
00000000000531ae W _ZNK9__gnu_cxx17__normal_iteratorIPKcNSt7__cxx1112basic_stringIcSt11char_traitsIcESaIcEEEEdeEv
0000000000074848 W _ZNK9__gnu_cxx17__normal_iteratorIPKdSt6vectorIdSaIdEEE4baseEv
000000000005f906 W _ZNK9__gnu_cxx17__normal_iteratorIPN7testing12TestPropertyESt6vectorIS2_SaIS2_EEE4baseEv
000000000006dd8e W _ZNK9__gnu_cxx17__normal_iteratorIPN7testing12TestPropertyESt6vectorIS2_SaIS2_EEEdeEv
0000000000057914 W _ZNK9__gnu_cxx17__normal_iteratorIPN7testing12TestPropertyESt6vectorIS2_SaIS2_EEEptEv
00000000000638e2 W _ZNK9__gnu_cxx17__normal_iteratorIPN7testing14TestPartResultESt6vectorIS2_SaIS2_EEE4baseEv
0000000000065802 W _ZNK9__gnu_cxx17__normal_iteratorIPN7testing8internal13edit_distance8EditTypeESt6vectorIS4_SaIS4_EEE4baseEv
000000000006a780 W _ZNK9__gnu_cxx17__normal_iteratorIPN7testing8internal13edit_distance8EditTypeESt6vectorIS4_SaIS4_EEEdeEv
00000000000681e8 W _ZNK9__gnu_cxx17__normal_iteratorIPN7testing8internal9TraceInfoESt6vectorIS3_SaIS3_EEE4baseEv
000000000005cb4e W _ZNK9__gnu_cxx17__normal_iteratorIPNSt7__cxx1112basic_stringIcSt11char_traitsIcESaIcEEESt6vectorIS6_SaIS6_EEE4baseEv
000000000005d822 W _ZNK9__gnu_cxx17__normal_iteratorIPNSt7__cxx1112basic_stringIcSt11char_traitsIcESaIcEEESt6vectorIS6_SaIS6_EEEdeEv
0000000000069758 W _ZNK9__gnu_cxx17__normal_iteratorIPNSt7__cxx1112basic_stringIcSt11char_traitsIcESaIcEEESt6vectorIS6_SaIS6_EEEmiEl
00000000000733bc W _ZNK9__gnu_cxx17__normal_iteratorIPNSt7__cxx1112basic_stringIcSt11char_traitsIcESaIcEEESt6vectorIS6_SaIS6_EEEplEl
0000000000067eac W _ZNK9__gnu_cxx17__normal_iteratorIPPN7testing11EnvironmentESt6vectorIS3_SaIS3_EEE4baseEv
0000000000068e1c W _ZNK9__gnu_cxx17__normal_iteratorIPPN7testing11EnvironmentESt6vectorIS3_SaIS3_EEEdeEv
0000000000060b84 W _ZNK9__gnu_cxx17__normal_iteratorIPPN7testing17TestEventListenerESt6vectorIS3_SaIS3_EEE4baseEv
0000000000058dac W _ZNK9__gnu_cxx17__normal_iteratorIPPN7testing17TestEventListenerESt6vectorIS3_SaIS3_EEEplEl
0000000000067468 W _ZNK9__gnu_cxx17__normal_iteratorIPPN7testing8TestInfoESt6vectorIS3_SaIS3_EEE4baseEv
000000000006e356 W _ZNK9__gnu_cxx17__normal_iteratorIPPN7testing8TestInfoESt6vectorIS3_SaIS3_EEEdeEv
00000000000720ea W _ZNK9__gnu_cxx17__normal_iteratorIPPN7testing8TestInfoESt6vectorIS3_SaIS3_EEEmiEl
000000000006bc56 W _ZNK9__gnu_cxx17__normal_iteratorIPPN7testing8TestInfoESt6vectorIS3_SaIS3_EEEplEl
000000000005b78a W _ZNK9__gnu_cxx17__normal_iteratorIPPN7testing8internal30ParameterizedTestSuiteInfoBaseESt6vectorIS4_SaIS4_EEE4baseEv
0000000000051dd4 W _ZNK9__gnu_cxx17__normal_iteratorIPPN7testing8internal30ParameterizedTestSuiteInfoBaseESt6vectorIS4_SaIS4_EEEdeEv
0000000000062006 W _ZNK9__gnu_cxx17__normal_iteratorIPPN7testing9TestSuiteESt6vectorIS3_SaIS3_EEE4baseEv
000000000005a518 W _ZNK9__gnu_cxx17__normal_iteratorIPPN7testing9TestSuiteESt6vectorIS3_SaIS3_EEEdeEv
0000000000059f1e W _ZNK9__gnu_cxx17__normal_iteratorIPPN7testing9TestSuiteESt6vectorIS3_SaIS3_EEEplEl
000000000005af8e W _ZNK9__gnu_cxx17__normal_iteratorIPcNSt7__cxx1112basic_stringIcSt11char_traitsIcESaIcEEEE4baseEv
0000000000051252 W _ZNK9__gnu_cxx17__normal_iteratorIPcNSt7__cxx1112basic_stringIcSt11char_traitsIcESaIcEEEEdeEv
000000000006ba5c W _ZNK9__gnu_cxx17__normal_iteratorIPiSt6vectorIiSaIiEEE4baseEv
000000000006bad8 W _ZNK9__gnu_cxx17__normal_iteratorIPiSt6vectorIiSaIiEEEdeEv
000000000006ba6e W _ZNK9__gnu_cxx17__normal_iteratorIPiSt6vectorIiSaIiEEEmiEl
000000000006af9c W _ZNK9__gnu_cxx17__normal_iteratorIPmSt6vectorImSaImEEE4baseEv
000000000006b018 W _ZNK9__gnu_cxx17__normal_iteratorIPmSt6vectorImSaImEEEdeEv
000000000006afae W _ZNK9__gnu_cxx17__normal_iteratorIPmSt6vectorImSaImEEEmiEl
0000000000069ff2 W _ZNKSt10_HashtableINSt7__cxx1112basic_stringIcSt11char_traitsIcESaIcEEES5_SaIS5_ENSt8__detail9_IdentityESt8equal_toIS5_ESt4hashIS5_ENS7_18_Mod_range_hashingENS7_20_Default_ranged_hashENS7_20_Prime_rehash_policyENS7_17_Hashtable_traitsILb1ELb1ELb1EEEE12_M_find_nodeEmRKS5_m
000000000006a158 W _ZNKSt10_HashtableINSt7__cxx1112basic_stringIcSt11char_traitsIcESaIcEEES5_SaIS5_ENSt8__detail9_IdentityESt8equal_toIS5_ESt4hashIS5_ENS7_18_Mod_range_hashingENS7_20_Default_ranged_hashENS7_20_Prime_rehash_policyENS7_17_Hashtable_traitsILb1ELb1ELb1EEEE15_M_bucket_indexERKNS7_16_Hash_node_valueIS5_Lb1EEE
0000000000069fc0 W _ZNKSt10_HashtableINSt7__cxx1112basic_stringIcSt11char_traitsIcESaIcEEES5_SaIS5_ENSt8__detail9_IdentityESt8equal_toIS5_ESt4hashIS5_ENS7_18_Mod_range_hashingENS7_20_Default_ranged_hashENS7_20_Prime_rehash_policyENS7_17_Hashtable_traitsILb1ELb1ELb1EEEE15_M_bucket_indexEm
000000000006d2ba W _ZNKSt10_HashtableINSt7__cxx1112basic_stringIcSt11char_traitsIcESaIcEEES5_SaIS5_ENSt8__detail9_IdentityESt8equal_toIS5_ESt4hashIS5_ENS7_18_Mod_range_hashingENS7_20_Default_ranged_hashENS7_20_Prime_rehash_policyENS7_17_Hashtable_traitsILb1ELb1ELb1EEEE19_M_find_before_nodeEmRKS5_m
0000000000069cf0 W _ZNKSt10_HashtableINSt7__cxx1112basic_stringIcSt11char_traitsIcESaIcEEES5_SaIS5_ENSt8__detail9_IdentityESt8equal_toIS5_ESt4hashIS5_ENS7_18_Mod_range_hashingENS7_20_Default_ranged_hashENS7_20_Prime_rehash_policyENS7_17_Hashtable_traitsILb1ELb1ELb1EEEE21_M_uses_single_bucketEPPNS7_15_Hash_node_baseE
0000000000064c30 W _ZNKSt10_HashtableINSt7__cxx1112basic_stringIcSt11char_traitsIcESaIcEEES5_SaIS5_ENSt8__detail9_IdentityESt8equal_toIS5_ESt4hashIS5_ENS7_18_Mod_range_hashingENS7_20_Default_ranged_hashENS7_20_Prime_rehash_policyENS7_17_Hashtable_traitsILb1ELb1ELb1EEEE21_M_uses_single_bucketEv
0000000000064b14 W _ZNKSt10_HashtableINSt7__cxx1112basic_stringIcSt11char_traitsIcESaIcEEES5_SaIS5_ENSt8__detail9_IdentityESt8equal_toIS5_ESt4hashIS5_ENS7_18_Mod_range_hashingENS7_20_Default_ranged_hashENS7_20_Prime_rehash_policyENS7_17_Hashtable_traitsILb1ELb1ELb1EEEE4findERKS5_
000000000005d7bc W _ZNKSt10_HashtableINSt7__cxx1112basic_stringIcSt11char_traitsIcESaIcEEES5_SaIS5_ENSt8__detail9_IdentityESt8equal_toIS5_ESt4hashIS5_ENS7_18_Mod_range_hashingENS7_20_Default_ranged_hashENS7_20_Prime_rehash_policyENS7_17_Hashtable_traitsILb1ELb1ELb1EEEE5countERKS5_
0000000000064756 W _ZNKSt10_HashtableINSt7__cxx1112basic_stringIcSt11char_traitsIcESaIcEEES5_SaIS5_ENSt8__detail9_IdentityESt8equal_toIS5_ESt4hashIS5_ENS7_18_Mod_range_hashingENS7_20_Default_ranged_hashENS7_20_Prime_rehash_policyENS7_17_Hashtable_traitsILb1ELb1ELb1EEEE8_M_beginEv
000000000005ef7e W _ZNKSt10_List_nodeISt4pairIcPKcEE9_M_valptrEv
0000000000068f6e W _ZNKSt10_Select1stISt4pairIKNSt7__cxx1112basic_stringIcSt11char_traitsIcESaIcEEEN7testing8internal12CodeLocationEEEclERKSB_
0000000000069bca W _ZNKSt10_Select1stISt4pairIKNSt7__cxx1112basic_stringIcSt11char_traitsIcESaIcEEEN7testing8internal34TypeParameterizedTestSuiteRegistry30TypeParameterizedTestSuiteInfoEEEclERKSC_
000000000006ac6e W _ZNKSt10_Select1stISt4pairIKNSt7__cxx1112basic_stringIcSt11char_traitsIcESaIcEEEmEEclERKS8_
0000000000052e6a W _ZNKSt10unique_ptrIA_PcSt14default_deleteIS1_EE3getEv
0000000000052cb0 W _ZNKSt10unique_ptrIA_PcSt14default_deleteIS1_EEixEm
000000000005b7c0 W _ZNKSt10unique_ptrIKNSt7__cxx1112basic_stringIcSt11char_traitsIcESaIcEEESt14default_deleteIS6_EE3getEv
000000000005b79c W _ZNKSt10unique_ptrIKNSt7__cxx1112basic_stringIcSt11char_traitsIcESaIcEEESt14default_deleteIS6_EEcvbEv
0000000000051e0c W _ZNKSt10unique_ptrIKNSt7__cxx1112basic_stringIcSt11char_traitsIcESaIcEEESt14default_deleteIS6_EEptEv
000000000006d4a8 W _ZNKSt10unique_ptrIN7testing8internal11ThreadLocalIPNS0_31TestPartResultReporterInterfaceEE18ValueHolderFactoryESt14default_deleteIS6_EE3getEv
000000000006a298 W _ZNKSt10unique_ptrIN7testing8internal11ThreadLocalIPNS0_31TestPartResultReporterInterfaceEE18ValueHolderFactoryESt14default_deleteIS6_EEptEv
000000000006913a W _ZNKSt10unique_ptrIN7testing8internal11ThreadLocalISt6vectorINS1_9TraceInfoESaIS4_EEE18ValueHolderFactoryESt14default_deleteIS8_EE3getEv
0000000000062e6a W _ZNKSt10unique_ptrIN7testing8internal11ThreadLocalISt6vectorINS1_9TraceInfoESaIS4_EEE18ValueHolderFactoryESt14default_deleteIS8_EEptEv
0000000000052254 W _ZNKSt10unique_ptrIN7testing8internal16DeathTestFactoryESt14default_deleteIS2_EE3getEv
000000000005bc1a W _ZNKSt10unique_ptrIN7testing8internal17StreamingListener20AbstractSocketWriterESt14default_deleteIS3_EE3getEv
000000000005232e W _ZNKSt10unique_ptrIN7testing8internal17StreamingListener20AbstractSocketWriterESt14default_deleteIS3_EEptEv
0000000000052236 W _ZNKSt10unique_ptrIN7testing8internal24InternalRunDeathTestFlagESt14default_deleteIS2_EE3getEv
0000000000061d4e W _ZNKSt10unique_ptrIN7testing8internal24InternalRunDeathTestFlagESt14default_deleteIS2_EEcvbEv
0000000000015b42 W _ZNKSt10unique_ptrINSt7__cxx1112basic_stringIcSt11char_traitsIcESaIcEEESt14default_deleteIS5_EE3getEv
0000000000015b1e W _ZNKSt10unique_ptrINSt7__cxx1112basic_stringIcSt11char_traitsIcESaIcEEESt14default_deleteIS5_EEcvbEv
0000000000051e2a W _ZNKSt10unique_ptrINSt7__cxx1112basic_stringIcSt11char_traitsIcESaIcEEESt14default_deleteIS5_EEdeEv
000000000001546a W _ZNKSt10unique_ptrINSt7__cxx1112basic_stringIcSt11char_traitsIcESaIcEEESt14default_deleteIS5_EEptEv
000000000005538a W _ZNKSt10unique_ptrINSt7__cxx1118basic_stringstreamIcSt11char_traitsIcESaIcEEESt14default_deleteIS5_EE3getEv
00000000000512ea W _ZNKSt10unique_ptrINSt7__cxx1118basic_stringstreamIcSt11char_traitsIcESaIcEEESt14default_deleteIS5_EEdeEv
000000000006de0c W _ZNKSt12_Vector_baseIN7testing12TestPropertyESaIS1_EE19_M_get_Tp_allocatorEv
000000000006cbf0 W _ZNKSt12_Vector_baseIN7testing14TestPartResultESaIS1_EE19_M_get_Tp_allocatorEv
000000000006d912 W _ZNKSt12_Vector_baseIN7testing8internal13edit_distance8EditTypeESaIS3_EE19_M_get_Tp_allocatorEv
000000000006e9da W _ZNKSt12_Vector_baseIN7testing8internal9TraceInfoESaIS2_EE19_M_get_Tp_allocatorEv
0000000000064baa W _ZNKSt12_Vector_baseINSt7__cxx1112basic_stringIcSt11char_traitsIcESaIcEEESaIS5_EE13get_allocatorEv
000000000005c4b2 W _ZNKSt12_Vector_baseINSt7__cxx1112basic_stringIcSt11char_traitsIcESaIcEEESaIS5_EE19_M_get_Tp_allocatorEv
000000000006e87a W _ZNKSt12_Vector_baseIPN7testing11EnvironmentESaIS2_EE19_M_get_Tp_allocatorEv
000000000006e686 W _ZNKSt12_Vector_baseIPN7testing17TestEventListenerESaIS2_EE19_M_get_Tp_allocatorEv
000000000006e0ca W _ZNKSt12_Vector_baseIPN7testing8TestInfoESaIS2_EE19_M_get_Tp_allocatorEv
000000000006ed7a W _ZNKSt12_Vector_baseIPN7testing9TestSuiteESaIS2_EE19_M_get_Tp_allocatorEv
0000000000072e06 W _ZNKSt12_Vector_baseIdSaIdEE19_M_get_Tp_allocatorEv
0000000000070676 W _ZNKSt12_Vector_baseIiSaIiEE19_M_get_Tp_allocatorEv
0000000000070242 W _ZNKSt12_Vector_baseImSaImEE19_M_get_Tp_allocatorEv
000000000006cd80 W _ZNKSt13_Rb_tree_nodeINSt7__cxx1112basic_stringIcSt11char_traitsIcESaIcEEEE9_M_valptrEv
000000000005b3e0 W _ZNKSt13_Rb_tree_nodeISt4pairIKNSt7__cxx1112basic_stringIcSt11char_traitsIcESaIcEEEN7testing8internal12CodeLocationEEE9_M_valptrEv
0000000000069ba8 W _ZNKSt13_Rb_tree_nodeISt4pairIKNSt7__cxx1112basic_stringIcSt11char_traitsIcESaIcEEEN7testing8internal34TypeParameterizedTestSuiteRegistry30TypeParameterizedTestSuiteInfoEEE9_M_valptrEv
000000000006ac4c W _ZNKSt13_Rb_tree_nodeISt4pairIKNSt7__cxx1112basic_stringIcSt11char_traitsIcESaIcEEEmEE9_M_valptrEv
                 U _ZNKSt13runtime_error4whatEv@GLIBCXX_3.4
0000000000054c8a W _ZNKSt13unordered_setINSt7__cxx1112basic_stringIcSt11char_traitsIcESaIcEEESt4hashIS5_ESt8equal_toIS5_ESaIS5_EE5countERKS5_
000000000005bdec W _ZNKSt14default_deleteIA_PcEclIS0_EENSt9enable_ifIXsrSt14is_convertibleIPA_T_PS1_E5valueEvE4typeEPS6_
000000000006002e W _ZNKSt14default_deleteIKNSt7__cxx1112basic_stringIcSt11char_traitsIcESaIcEEEEclEPS6_
0000000000068322 W _ZNKSt14default_deleteIN7testing8internal11ThreadLocalIPNS0_31TestPartResultReporterInterfaceEE18ValueHolderFactoryEEclEPS6_
00000000000685fc W _ZNKSt14default_deleteIN7testing8internal11ThreadLocalISt6vectorINS1_9TraceInfoESaIS4_EEE18ValueHolderFactoryEEclEPS8_
000000000005fecc W _ZNKSt14default_deleteIN7testing8internal14GTestFlagSaverEEclEPS2_
0000000000061a80 W _ZNKSt14default_deleteIN7testing8internal16DeathTestFactoryEEclEPS2_
000000000005bbea W _ZNKSt14default_deleteIN7testing8internal17StreamingListener20AbstractSocketWriterEEclEPS3_
00000000000619bc W _ZNKSt14default_deleteIN7testing8internal24InternalRunDeathTestFlagEEclEPS2_
0000000000015bae W _ZNKSt14default_deleteINSt7__cxx1112basic_stringIcSt11char_traitsIcESaIcEEEEclEPS5_
0000000000015aee W _ZNKSt14default_deleteINSt7__cxx1118basic_stringstreamIcSt11char_traitsIcESaIcEEEEclEPS5_
0000000000062ca6 W _ZNKSt15__uniq_ptr_implIKNSt7__cxx1112basic_stringIcSt11char_traitsIcESaIcEEESt14default_deleteIS6_EE6_M_ptrEv
000000000006fbb4 W _ZNKSt15__uniq_ptr_implIN7testing8internal11ThreadLocalIPNS0_31TestPartResultReporterInterfaceEE18ValueHolderFactoryESt14default_deleteIS6_EE6_M_ptrEv
000000000006c44a W _ZNKSt15__uniq_ptr_implIN7testing8internal11ThreadLocalISt6vectorINS1_9TraceInfoESaIS4_EEE18ValueHolderFactoryESt14default_deleteIS8_EE6_M_ptrEv
000000000005bb3e W _ZNKSt15__uniq_ptr_implIN7testing8internal16DeathTestFactoryESt14default_deleteIS2_EE6_M_ptrEv
0000000000062f3e W _ZNKSt15__uniq_ptr_implIN7testing8internal17StreamingListener20AbstractSocketWriterESt14default_deleteIS3_EE6_M_ptrEv
000000000005bb1c W _ZNKSt15__uniq_ptr_implIN7testing8internal24InternalRunDeathTestFlagESt14default_deleteIS2_EE6_M_ptrEv
0000000000015d54 W _ZNKSt15__uniq_ptr_implINSt7__cxx1112basic_stringIcSt11char_traitsIcESaIcEEESt14default_deleteIS5_EE6_M_ptrEv
000000000005dcbe W _ZNKSt15__uniq_ptr_implINSt7__cxx1118basic_stringstreamIcSt11char_traitsIcESaIcEEESt14default_deleteIS5_EE6_M_ptrEv
000000000005c152 W _ZNKSt15__uniq_ptr_implIPcSt14default_deleteIA_S0_EE6_M_ptrEv
000000000005ae7e W _ZNKSt16initializer_listIPKcE3endEv
000000000006278e W _ZNKSt16initializer_listIPKcE4sizeEv
000000000005ae68 W _ZNKSt16initializer_listIPKcE5beginEv
000000000006c37c W _ZNKSt16reverse_iteratorIN9__gnu_cxx17__normal_iteratorIPPN7testing11EnvironmentESt6vectorIS4_SaIS4_EEEEE4baseEv
0000000000062558 W _ZNKSt16reverse_iteratorIN9__gnu_cxx17__normal_iteratorIPPN7testing11EnvironmentESt6vectorIS4_SaIS4_EEEEEdeEv
0000000000068a88 W _ZNKSt16reverse_iteratorIN9__gnu_cxx17__normal_iteratorIPPN7testing9TestSuiteESt6vectorIS4_SaIS4_EEEEE4baseEv
0000000000059e7e W _ZNKSt16reverse_iteratorIN9__gnu_cxx17__normal_iteratorIPPN7testing9TestSuiteESt6vectorIS4_SaIS4_EEEEEdeEv
00000000000548a2 W _ZNKSt17_Rb_tree_iteratorISt4pairIKNSt7__cxx1112basic_stringIcSt11char_traitsIcESaIcEEEN7testing8internal34TypeParameterizedTestSuiteRegistry30TypeParameterizedTestSuiteInfoEEEdeEv
0000000000054836 W _ZNKSt17_Rb_tree_iteratorISt4pairIKNSt7__cxx1112basic_stringIcSt11char_traitsIcESaIcEEEN7testing8internal34TypeParameterizedTestSuiteRegistry30TypeParameterizedTestSuiteInfoEEEptEv
000000000005e9b2 W _ZNKSt17_Rb_tree_iteratorISt4pairIKNSt7__cxx1112basic_stringIcSt11char_traitsIcESaIcEEEmEEdeEv
0000000000055b5e W _ZNKSt17_Rb_tree_iteratorISt4pairIKNSt7__cxx1112basic_stringIcSt11char_traitsIcESaIcEEEmEEptEv
00000000000678b8 W _ZNKSt17_Temporary_bufferIN9__gnu_cxx17__normal_iteratorIPPN7testing8TestInfoESt6vectorIS4_SaIS4_EEEES4_E4sizeEv
0000000000062b44 W _ZNKSt17basic_string_viewIcSt11char_traitsIcEE4sizeEv
00000000000727a2 W _ZNKSt17basic_string_viewIcSt11char_traitsIcEE7compareES2_
00000000000666be W _ZNKSt20_List_const_iteratorISt4pairIcPKcEE13_M_const_castEv
00000000000560e2 W _ZNKSt20_List_const_iteratorISt4pairIcPKcEEptEv
0000000000051602 W _ZNKSt23_Rb_tree_const_iteratorISt4pairIKNSt7__cxx1112basic_stringIcSt11char_traitsIcESaIcEEEN7testing8internal12CodeLocationEEEptEv
000000000006a954 W _ZNKSt23_Rb_tree_const_iteratorISt4pairIKNSt7__cxx1112basic_stringIcSt11char_traitsIcESaIcEEEmEE13_M_const_castEv
0000000000051558 W _ZNKSt3mapINSt7__cxx1112basic_stringIcSt11char_traitsIcESaIcEEEN7testing8internal12CodeLocationESt4lessIvESaISt4pairIKS5_S8_EEE5countERSC_
0000000000055b80 W _ZNKSt3mapINSt7__cxx1112basic_stringIcSt11char_traitsIcESaIcEEEmSt4lessIS5_ESaISt4pairIKS5_mEEE4sizeEv
000000000005e98c W _ZNKSt3mapINSt7__cxx1112basic_stringIcSt11char_traitsIcESaIcEEEmSt4lessIS5_ESaISt4pairIKS5_mEEE8key_compEv
00000000000546fa W _ZNKSt3setINSt7__cxx1112basic_stringIcSt11char_traitsIcESaIcEEESt4lessIS5_ESaIS5_EE3endEv
00000000000546d0 W _ZNKSt3setINSt7__cxx1112basic_stringIcSt11char_traitsIcESaIcEEESt4lessIS5_ESaIS5_EE4findERKS5_
00000000000543c2 W _ZNKSt3setINSt7__cxx1112basic_stringIcSt11char_traitsIcESaIcEEESt4lessIS5_ESaIS5_EE5countERKS5_
000000000004a618 W _ZNKSt4hashINSt7__cxx1112basic_stringIcSt11char_traitsIcESaIcEEEEclERKS5_
000000000005e9d4 W _ZNKSt4lessINSt7__cxx1112basic_stringIcSt11char_traitsIcESaIcEEEEclERKS5_S8_
0000000000052dc6 W _ZNKSt4lessIPKvEclES1_S1_
0000000000062aa0 W _ZNKSt4lessIvEclIRKNSt7__cxx1112basic_stringIcSt11char_traitsIcESaIcEEES9_EEDTltcl7forwardIT_Efp_Ecl7forwardIT0_Efp0_EEOSA_OSB_
000000000005daec W _ZNKSt6chrono10time_pointINS_3_V212steady_clockENS_8durationIlSt5ratioILl1ELl1000000000EEEEE16time_since_epochEv
0000000000051136 W _ZNKSt6chrono10time_pointINS_3_V212system_clockENS_8durationIlSt5ratioILl1ELl1000000000EEEEE16time_since_epochEv
000000000005af16 W _ZNKSt6chrono10time_pointINS_3_V212system_clockENS_8durationIlSt5ratioILl1ELl1EEEEE16time_since_epochEv
000000000004a91c W _ZNKSt6chrono8durationIlSt5ratioILl1ELl1000000000EEE5countEv
00000000000552ac W _ZNKSt6chrono8durationIlSt5ratioILl1ELl1000EEE5countEv
000000000005114c W _ZNKSt6chrono8durationIlSt5ratioILl1ELl1EEE5countEv
0000000000066b9c W _ZNKSt6vectorIN7testing12TestPropertyESaIS1_EE12_M_check_lenEmPKc
000000000005f678 W _ZNKSt6vectorIN7testing12TestPropertyESaIS1_EE14_M_range_checkEm
0000000000057636 W _ZNKSt6vectorIN7testing12TestPropertyESaIS1_EE2atEm
0000000000057c24 W _ZNKSt6vectorIN7testing12TestPropertyESaIS1_EE4sizeEv
000000000006b360 W _ZNKSt6vectorIN7testing12TestPropertyESaIS1_EE8max_sizeEv
000000000005f6d0 W _ZNKSt6vectorIN7testing12TestPropertyESaIS1_EEixEm
00000000000636e4 W _ZNKSt6vectorIN7testing14TestPartResultESaIS1_EE12_M_check_lenEmPKc
000000000005f620 W _ZNKSt6vectorIN7testing14TestPartResultESaIS1_EE14_M_range_checkEm
00000000000575fa W _ZNKSt6vectorIN7testing14TestPartResultESaIS1_EE2atEm
000000000005fd78 W _ZNKSt6vectorIN7testing14TestPartResultESaIS1_EE3endEv
0000000000054176 W _ZNKSt6vectorIN7testing14TestPartResultESaIS1_EE4sizeEv
000000000005fd2c W _ZNKSt6vectorIN7testing14TestPartResultESaIS1_EE5beginEv
000000000006965e W _ZNKSt6vectorIN7testing14TestPartResultESaIS1_EE8max_sizeEv
0000000000054148 W _ZNKSt6vectorIN7testing14TestPartResultESaIS1_EEixEm
0000000000065662 W _ZNKSt6vectorIN7testing8internal13edit_distance8EditTypeESaIS3_EE12_M_check_lenEmPKc
0000000000056240 W _ZNKSt6vectorIN7testing8internal13edit_distance8EditTypeESaIS3_EE3endEv
0000000000056142 W _ZNKSt6vectorIN7testing8internal13edit_distance8EditTypeESaIS3_EE4sizeEv
000000000005618e W _ZNKSt6vectorIN7testing8internal13edit_distance8EditTypeESaIS3_EE5beginEv
000000000006a6f6 W _ZNKSt6vectorIN7testing8internal13edit_distance8EditTypeESaIS3_EE8max_sizeEv
000000000005616a W _ZNKSt6vectorIN7testing8internal13edit_distance8EditTypeESaIS3_EEixEm
0000000000067fea W _ZNKSt6vectorIN7testing8internal9TraceInfoESaIS2_EE12_M_check_lenEmPKc
0000000000060fcc W _ZNKSt6vectorIN7testing8internal9TraceInfoESaIS2_EE3endEv
000000000005910e W _ZNKSt6vectorIN7testing8internal9TraceInfoESaIS2_EE4sizeEv
0000000000060f80 W _ZNKSt6vectorIN7testing8internal9TraceInfoESaIS2_EE5beginEv
000000000005906c W _ZNKSt6vectorIN7testing8internal9TraceInfoESaIS2_EE5emptyEv
000000000006bed4 W _ZNKSt6vectorIN7testing8internal9TraceInfoESaIS2_EE8max_sizeEv
00000000000630d0 W _ZNKSt6vectorINSt7__cxx1112basic_stringIcSt11char_traitsIcESaIcEEESaIS5_EE12_M_check_lenEmPKc
0000000000053a52 W _ZNKSt6vectorINSt7__cxx1112basic_stringIcSt11char_traitsIcESaIcEEESaIS5_EE3endEv
000000000007336c W _ZNKSt6vectorINSt7__cxx1112basic_stringIcSt11char_traitsIcESaIcEEESaIS5_EE4cendEv
0000000000052bb6 W _ZNKSt6vectorINSt7__cxx1112basic_stringIcSt11char_traitsIcESaIcEEESaIS5_EE4sizeEv
0000000000053a06 W _ZNKSt6vectorINSt7__cxx1112basic_stringIcSt11char_traitsIcESaIcEEESaIS5_EE5beginEv
00000000000545bc W _ZNKSt6vectorINSt7__cxx1112basic_stringIcSt11char_traitsIcESaIcEEESaIS5_EE5emptyEv
0000000000073320 W _ZNKSt6vectorINSt7__cxx1112basic_stringIcSt11char_traitsIcESaIcEEESaIS5_EE6cbeginEv
000000000005d53c W _ZNKSt6vectorINSt7__cxx1112basic_stringIcSt11char_traitsIcESaIcEEESaIS5_EE8capacityEv
000000000005d516 W _ZNKSt6vectorINSt7__cxx1112basic_stringIcSt11char_traitsIcESaIcEEESaIS5_EE8max_sizeEv
0000000000055e3e W _ZNKSt6vectorINSt7__cxx1112basic_stringIcSt11char_traitsIcESaIcEEESaIS5_EEixEm
0000000000067d0c W _ZNKSt6vectorIPN7testing11EnvironmentESaIS2_EE12_M_check_lenEmPKc
0000000000061c9e W _ZNKSt6vectorIPN7testing11EnvironmentESaIS2_EE3endEv
000000000006be48 W _ZNKSt6vectorIPN7testing11EnvironmentESaIS2_EE4sizeEv
0000000000061c52 W _ZNKSt6vectorIPN7testing11EnvironmentESaIS2_EE5beginEv
000000000006be22 W _ZNKSt6vectorIPN7testing11EnvironmentESaIS2_EE8max_sizeEv
0000000000067a2a W _ZNKSt6vectorIPN7testing17TestEventListenerESaIS2_EE12_M_check_lenEmPKc
000000000006086a W _ZNKSt6vectorIPN7testing17TestEventListenerESaIS2_EE3endEv
0000000000058d14 W _ZNKSt6vectorIPN7testing17TestEventListenerESaIS2_EE4sizeEv
000000000006081e W _ZNKSt6vectorIPN7testing17TestEventListenerESaIS2_EE5beginEv
0000000000060b96 W _ZNKSt6vectorIPN7testing17TestEventListenerESaIS2_EE6cbeginEv
000000000006bd04 W _ZNKSt6vectorIPN7testing17TestEventListenerESaIS2_EE8max_sizeEv
00000000000672c8 W _ZNKSt6vectorIPN7testing8TestInfoESaIS2_EE12_M_check_lenEmPKc
0000000000060120 W _ZNKSt6vectorIPN7testing8TestInfoESaIS2_EE3endEv
00000000000584fc W _ZNKSt6vectorIPN7testing8TestInfoESaIS2_EE4sizeEv
00000000000600d4 W _ZNKSt6vectorIPN7testing8TestInfoESaIS2_EE5beginEv
000000000006b780 W _ZNKSt6vectorIPN7testing8TestInfoESaIS2_EE8max_sizeEv
0000000000057d08 W _ZNKSt6vectorIPN7testing8TestInfoESaIS2_EEixEm
0000000000068c10 W _ZNKSt6vectorIPN7testing9TestSuiteESaIS2_EE12_M_check_lenEmPKc
0000000000058f22 W _ZNKSt6vectorIPN7testing9TestSuiteESaIS2_EE3endEv
0000000000054624 W _ZNKSt6vectorIPN7testing9TestSuiteESaIS2_EE4sizeEv
0000000000058ed6 W _ZNKSt6vectorIPN7testing9TestSuiteESaIS2_EE5beginEv
00000000000620d8 W _ZNKSt6vectorIPN7testing9TestSuiteESaIS2_EE6cbeginEv
000000000006c2f2 W _ZNKSt6vectorIPN7testing9TestSuiteESaIS2_EE8max_sizeEv
000000000005214a W _ZNKSt6vectorIPN7testing9TestSuiteESaIS2_EEixEm
00000000000557f8 W _ZNKSt6vectorIS_IdSaIdEESaIS1_EE4sizeEv
0000000000072e64 W _ZNKSt6vectorIdSaIdEE3endEv
00000000000558d4 W _ZNKSt6vectorIdSaIdEE4sizeEv
0000000000072e18 W _ZNKSt6vectorIdSaIdEE5beginEv
000000000006b86e W _ZNKSt6vectorIiSaIiEE12_M_check_lenEmPKc
00000000000587e0 W _ZNKSt6vectorIiSaIiEE4sizeEv
000000000006e1c0 W _ZNKSt6vectorIiSaIiEE8max_sizeEv
000000000005b8ce W _ZNKSt6vectorIiSaIiEEixEm
000000000006adae W _ZNKSt6vectorImSaImEE12_M_check_lenEmPKc
00000000000553a8 W _ZNKSt6vectorImSaImEE4sizeEv
000000000006dbca W _ZNKSt6vectorImSaImEE8max_sizeEv
00000000000558fc W _ZNKSt6vectorImSaImEEixEm
000000000006670e W _ZNKSt7__cxx1110_List_baseISt4pairIcPKcESaIS4_EE11_M_get_sizeEv
0000000000050f78 W _ZNKSt7__cxx1112basic_stringIDiSt11char_traitsIDiESaIDiEE4dataEv
00000000000540b2 W _ZNKSt7__cxx1112basic_stringIDiSt11char_traitsIDiESaIDiEE4sizeEv
000000000005aece W _ZNKSt7__cxx1112basic_stringIDiSt11char_traitsIDiESaIDiEE7_M_dataEv
0000000000050f5a W _ZNKSt7__cxx1112basic_stringIDsSt11char_traitsIDsESaIDsEE4dataEv
000000000005409c W _ZNKSt7__cxx1112basic_stringIDsSt11char_traitsIDsESaIDsEE4sizeEv
000000000005aeb8 W _ZNKSt7__cxx1112basic_stringIDsSt11char_traitsIDsESaIDsEE7_M_dataEv
                 U _ZNKSt7__cxx1112basic_stringIcSt11char_traitsIcESaIcEE13get_allocatorEv@GLIBCXX_3.4.21
                 U _ZNKSt7__cxx1112basic_stringIcSt11char_traitsIcESaIcEE3endEv@GLIBCXX_3.4.21
                 U _ZNKSt7__cxx1112basic_stringIcSt11char_traitsIcESaIcEE4dataEv@GLIBCXX_3.4.21
                 U _ZNKSt7__cxx1112basic_stringIcSt11char_traitsIcESaIcEE4findERKS4_m@GLIBCXX_3.4.21
                 U _ZNKSt7__cxx1112basic_stringIcSt11char_traitsIcESaIcEE4findEcm@GLIBCXX_3.4.21
                 U _ZNKSt7__cxx1112basic_stringIcSt11char_traitsIcESaIcEE4sizeEv@GLIBCXX_3.4.21
                 U _ZNKSt7__cxx1112basic_stringIcSt11char_traitsIcESaIcEE5beginEv@GLIBCXX_3.4.21
                 U _ZNKSt7__cxx1112basic_stringIcSt11char_traitsIcESaIcEE5c_strEv@GLIBCXX_3.4.21
                 U _ZNKSt7__cxx1112basic_stringIcSt11char_traitsIcESaIcEE5emptyEv@GLIBCXX_3.4.21
                 U _ZNKSt7__cxx1112basic_stringIcSt11char_traitsIcESaIcEE6cbeginEv@GLIBCXX_3.4.21
                 U _ZNKSt7__cxx1112basic_stringIcSt11char_traitsIcESaIcEE6lengthEv@GLIBCXX_3.4.21
                 U _ZNKSt7__cxx1112basic_stringIcSt11char_traitsIcESaIcEE6substrEmm@GLIBCXX_3.4.21
                 U _ZNKSt7__cxx1112basic_stringIcSt11char_traitsIcESaIcEE7_M_dataEv@GLIBCXX_3.4.21
                 U _ZNKSt7__cxx1112basic_stringIcSt11char_traitsIcESaIcEE7compareEPKc@GLIBCXX_3.4.21
                 U _ZNKSt7__cxx1112basic_stringIcSt11char_traitsIcESaIcEE7compareERKS4_@GLIBCXX_3.4.21
                 U _ZNKSt7__cxx1112basic_stringIcSt11char_traitsIcESaIcEE8capacityEv@GLIBCXX_3.4.21
                 U _ZNKSt7__cxx1112basic_stringIcSt11char_traitsIcESaIcEEcvSt17basic_string_viewIcS2_EEv@GLIBCXX_3.4.26
                 U _ZNKSt7__cxx1112basic_stringIcSt11char_traitsIcESaIcEEixEm@GLIBCXX_3.4.21
                 U _ZNKSt7__cxx1112basic_stringIwSt11char_traitsIwESaIwEE4dataEv@GLIBCXX_3.4.21
                 U _ZNKSt7__cxx1112basic_stringIwSt11char_traitsIwESaIwEE4findERKS4_m@GLIBCXX_3.4.21
                 U _ZNKSt7__cxx1112basic_stringIwSt11char_traitsIwESaIwEE4sizeEv@GLIBCXX_3.4.21
                 U _ZNKSt7__cxx1112basic_stringIwSt11char_traitsIwESaIwEE5c_strEv@GLIBCXX_3.4.21
                 U _ZNKSt7__cxx1112basic_stringIwSt11char_traitsIwESaIwEE6lengthEv@GLIBCXX_3.4.21
                 U _ZNKSt7__cxx1112basic_stringIwSt11char_traitsIwESaIwEE7_M_dataEv@GLIBCXX_3.4.21
                 U _ZNKSt7__cxx1118basic_stringstreamIcSt11char_traitsIcESaIcEE3strEv@GLIBCXX_3.4.21
                 U _ZNKSt7__cxx1119basic_ostringstreamIcSt11char_traitsIcESaIcEE3strEv@GLIBCXX_3.4.21
000000000006661c W _ZNKSt7__cxx114listISt4pairIcPKcESaIS4_EE5emptyEv
00000000000699be W _ZNKSt8_Rb_treeINSt7__cxx1112basic_stringIcSt11char_traitsIcESaIcEEES5_St9_IdentityIS5_ESt4lessIS5_ESaIS5_EE11_Alloc_nodeclIRKS5_EEPSt13_Rb_tree_nodeIS5_EOT_
0000000000069a0a W _ZNKSt8_Rb_treeINSt7__cxx1112basic_stringIcSt11char_traitsIcESaIcEEES5_St9_IdentityIS5_ESt4lessIS5_ESaIS5_EE11_Alloc_nodeclIS5_EEPSt13_Rb_tree_nodeIS5_EOT_
0000000000063c36 W _ZNKSt8_Rb_treeINSt7__cxx1112basic_stringIcSt11char_traitsIcESaIcEEES5_St9_IdentityIS5_ESt4lessIS5_ESaIS5_EE14_M_lower_boundEPKSt13_Rb_tree_nodeIS5_EPKSt18_Rb_tree_node_baseRKS5_
000000000005cc48 W _ZNKSt8_Rb_treeINSt7__cxx1112basic_stringIcSt11char_traitsIcESaIcEEES5_St9_IdentityIS5_ESt4lessIS5_ESaIS5_EE3endEv
000000000005cb72 W _ZNKSt8_Rb_treeINSt7__cxx1112basic_stringIcSt11char_traitsIcESaIcEEES5_St9_IdentityIS5_ESt4lessIS5_ESaIS5_EE4findERKS5_
0000000000063c20 W _ZNKSt8_Rb_treeINSt7__cxx1112basic_stringIcSt11char_traitsIcESaIcEEES5_St9_IdentityIS5_ESt4lessIS5_ESaIS5_EE6_M_endEv
0000000000063c0a W _ZNKSt8_Rb_treeINSt7__cxx1112basic_stringIcSt11char_traitsIcESaIcEEES5_St9_IdentityIS5_ESt4lessIS5_ESaIS5_EE8_M_beginEv
0000000000063bf4 W _ZNKSt8_Rb_treeINSt7__cxx1112basic_stringIcSt11char_traitsIcESaIcEEES5_St9_IdentityIS5_ESt4lessIS5_ESaIS5_EE9_M_mbeginEv
0000000000062984 W _ZNKSt8_Rb_treeINSt7__cxx1112basic_stringIcSt11char_traitsIcESaIcEEESt4pairIKS5_N7testing8internal12CodeLocationEESt10_Select1stISB_ESt4lessIvESaISB_EE14_M_lower_boundEPKSt13_Rb_tree_nodeISB_EPKSt18_Rb_tree_node_baseRS7_
000000000005b36a W _ZNKSt8_Rb_treeINSt7__cxx1112basic_stringIcSt11char_traitsIcESaIcEEESt4pairIKS5_N7testing8internal12CodeLocationEESt10_Select1stISB_ESt4lessIvESaISB_EE3endEv
000000000005b294 W _ZNKSt8_Rb_treeINSt7__cxx1112basic_stringIcSt11char_traitsIcESaIcEEESt4pairIKS5_N7testing8internal12CodeLocationEESt10_Select1stISB_ESt4lessIvESaISB_EE4findERS7_
000000000006296e W _ZNKSt8_Rb_treeINSt7__cxx1112basic_stringIcSt11char_traitsIcESaIcEEESt4pairIKS5_N7testing8internal12CodeLocationEESt10_Select1stISB_ESt4lessIvESaISB_EE6_M_endEv
0000000000062958 W _ZNKSt8_Rb_treeINSt7__cxx1112basic_stringIcSt11char_traitsIcESaIcEEESt4pairIKS5_N7testing8internal12CodeLocationEESt10_Select1stISB_ESt4lessIvESaISB_EE8_M_beginEv
00000000000684a8 W _ZNKSt8_Rb_treeINSt7__cxx1112basic_stringIcSt11char_traitsIcESaIcEEESt4pairIKS5_N7testing8internal34TypeParameterizedTestSuiteRegistry30TypeParameterizedTestSuiteInfoEESt10_Select1stISC_ESt4lessIS5_ESaISC_EE9_M_mbeginEv
000000000005e926 W _ZNKSt8_Rb_treeINSt7__cxx1112basic_stringIcSt11char_traitsIcESaIcEEESt4pairIKS5_mESt10_Select1stIS8_ESt4lessIS5_ESaIS8_EE4sizeEv
0000000000065aae W _ZNKSt8_Rb_treeINSt7__cxx1112basic_stringIcSt11char_traitsIcESaIcEEESt4pairIKS5_mESt10_Select1stIS8_ESt4lessIS5_ESaIS8_EE8key_compEv
0000000000066196 W _ZNKSt8_Rb_treeINSt7__cxx1112basic_stringIcSt11char_traitsIcESaIcEEESt4pairIKS5_mESt10_Select1stIS8_ESt4lessIS5_ESaIS8_EE9_M_mbeginEv
0000000000073d06 W _ZNKSt8__detail10_AllocNodeISaINS_10_Hash_nodeINSt7__cxx1112basic_stringIcSt11char_traitsIcESaIcEEELb1EEEEEclIS7_EEPS8_OT_
0000000000069c80 W _ZNKSt8__detail10_Hash_nodeINSt7__cxx1112basic_stringIcSt11char_traitsIcESaIcEEELb1EE7_M_nextEv
0000000000069f8c W _ZNKSt8__detail15_Hash_code_baseINSt7__cxx1112basic_stringIcSt11char_traitsIcESaIcEEES6_NS_9_IdentityESt4hashIS6_ENS_18_Mod_range_hashingENS_20_Default_ranged_hashELb1EE12_M_hash_codeERKS6_
0000000000074176 W _ZNKSt8__detail15_Hash_code_baseINSt7__cxx1112basic_stringIcSt11char_traitsIcESaIcEEES6_NS_9_IdentityESt4hashIS6_ENS_18_Mod_range_hashingENS_20_Default_ranged_hashELb1EE13_M_store_codeERNS_21_Hash_node_code_cacheILb1EEEm
000000000006d450 W _ZNKSt8__detail15_Hash_code_baseINSt7__cxx1112basic_stringIcSt11char_traitsIcESaIcEEES6_NS_9_IdentityESt4hashIS6_ENS_18_Mod_range_hashingENS_20_Default_ranged_hashELb1EE15_M_bucket_indexERKNS_16_Hash_node_valueIS6_Lb1EEEm
000000000006d266 W _ZNKSt8__detail15_Hash_code_baseINSt7__cxx1112basic_stringIcSt11char_traitsIcESaIcEEES6_NS_9_IdentityESt4hashIS6_ENS_18_Mod_range_hashingENS_20_Default_ranged_hashELb1EE15_M_bucket_indexEmm
000000000006d248 W _ZNKSt8__detail15_Hash_code_baseINSt7__cxx1112basic_stringIcSt11char_traitsIcESaIcEEES6_NS_9_IdentityESt4hashIS6_ENS_18_Mod_range_hashingENS_20_Default_ranged_hashELb1EE7_M_hashEv
000000000006a096 W _ZNKSt8__detail15_Hashtable_baseINSt7__cxx1112basic_stringIcSt11char_traitsIcESaIcEEES6_NS_9_IdentityESt8equal_toIS6_ESt4hashIS6_ENS_18_Mod_range_hashingENS_20_Default_ranged_hashENS_17_Hashtable_traitsILb1ELb1ELb1EEEE5_M_eqEv
000000000006fae6 W _ZNKSt8__detail15_Hashtable_baseINSt7__cxx1112basic_stringIcSt11char_traitsIcESaIcEEES6_NS_9_IdentityESt8equal_toIS6_ESt4hashIS6_ENS_18_Mod_range_hashingENS_20_Default_ranged_hashENS_17_Hashtable_traitsILb1ELb1ELb1EEEE9_M_equalsERKS6_mRKNS_16_Hash_node_valueIS6_Lb1EEE
000000000004b560 W _ZNKSt8__detail18_Mod_range_hashingclEmm
                 U _ZNKSt8__detail20_Prime_rehash_policy14_M_need_rehashEmmm@GLIBCXX_3.4.18
000000000004b5b4 W _ZNKSt8__detail20_Prime_rehash_policy8_M_stateEv
000000000006a0b4 W _ZNKSt8__detail21_Hash_node_value_baseINSt7__cxx1112basic_stringIcSt11char_traitsIcESaIcEEEE4_M_vEv
000000000006d3aa W _ZNKSt8__detail21_Hash_node_value_baseINSt7__cxx1112basic_stringIcSt11char_traitsIcESaIcEEEE9_M_valptrEv
000000000006d398 W _ZNKSt8__detail21_Hashtable_ebo_helperILi0ESt8equal_toINSt7__cxx1112basic_stringIcSt11char_traitsIcESaIcEEEELb1EE7_M_cgetEv
000000000006fad4 W _ZNKSt8__detail21_Hashtable_ebo_helperILi1ESt4hashINSt7__cxx1112basic_stringIcSt11char_traitsIcESaIcEEEELb1EE7_M_cgetEv
000000000006a0d2 W _ZNKSt8__detail9_IdentityclIRKNSt7__cxx1112basic_stringIcSt11char_traitsIcESaIcEEEEEOT_SB_
0000000000073c9c W _ZNKSt8__detail9_IdentityclIRNSt7__cxx1112basic_stringIcSt11char_traitsIcESaIcEEEEEOT_SA_
000000000006a0f4 W _ZNKSt8equal_toINSt7__cxx1112basic_stringIcSt11char_traitsIcESaIcEEEEclERKS5_S8_
000000000007139a W _ZNKSt8equal_toIvEclIRKNSt7__cxx1112basic_stringIcSt11char_traitsIcESaIcEEES9_EEDTeqcl7forwardIT_Efp_Ecl7forwardIT0_Efp0_EEOSA_OSB_
00000000000714f4 W _ZNKSt8equal_toIvEclIRKSt17basic_string_viewIcSt11char_traitsIcEERKNSt7__cxx1112basic_stringIcS4_SaIcEEEEEDTeqcl7forwardIT_Efp_Ecl7forwardIT0_Efp0_EEOSE_OSF_
000000000004a704 W _ZNKSt8ios_base5flagsEv
0000000000063eca W _ZNKSt9_IdentityINSt7__cxx1112basic_stringIcSt11char_traitsIcESaIcEEEEclERKS5_
00000000000640c2 W _ZNKSt9_IdentityINSt7__cxx1112basic_stringIcSt11char_traitsIcESaIcEEEEclERS5_
000000000005f544 W _ZNSaIN7testing12TestPropertyEEC1Ev
000000000005f544 W _ZNSaIN7testing12TestPropertyEEC2Ev
0000000000057540 W _ZNSaIN7testing12TestPropertyEED1Ev
0000000000057540 W _ZNSaIN7testing12TestPropertyEED2Ev
000000000005f468 W _ZNSaIN7testing14TestPartResultEEC1Ev
000000000005f468 W _ZNSaIN7testing14TestPartResultEEC2Ev
000000000005744a W _ZNSaIN7testing14TestPartResultEED1Ev
000000000005744a W _ZNSaIN7testing14TestPartResultEED2Ev
000000000005e7b4 W _ZNSaIN7testing8internal13edit_distance8EditTypeEEC1ERKS3_
00000000000555e4 W _ZNSaIN7testing8internal13edit_distance8EditTypeEEC1Ev
000000000005e7b4 W _ZNSaIN7testing8internal13edit_distance8EditTypeEEC2ERKS3_
00000000000555e4 W _ZNSaIN7testing8internal13edit_distance8EditTypeEEC2Ev
0000000000055604 W _ZNSaIN7testing8internal13edit_distance8EditTypeEED1Ev
0000000000055604 W _ZNSaIN7testing8internal13edit_distance8EditTypeEED2Ev
0000000000075aa0 W _ZNSaIN7testing8internal9TraceInfoEEC1Ev
0000000000075aa0 W _ZNSaIN7testing8internal9TraceInfoEEC2Ev
00000000000759d6 W _ZNSaIN7testing8internal9TraceInfoEED1Ev
00000000000759d6 W _ZNSaIN7testing8internal9TraceInfoEED2Ev
000000000005be56 W _ZNSaINSt7__cxx1112basic_stringIcSt11char_traitsIcESaIcEEEEC1ERKS5_
0000000000053aa2 W _ZNSaINSt7__cxx1112basic_stringIcSt11char_traitsIcESaIcEEEEC1Ev
000000000005be56 W _ZNSaINSt7__cxx1112basic_stringIcSt11char_traitsIcESaIcEEEEC2ERKS5_
0000000000053aa2 W _ZNSaINSt7__cxx1112basic_stringIcSt11char_traitsIcESaIcEEEEC2Ev
0000000000052d54 W _ZNSaINSt7__cxx1112basic_stringIcSt11char_traitsIcESaIcEEEED1Ev
0000000000052d54 W _ZNSaINSt7__cxx1112basic_stringIcSt11char_traitsIcESaIcEEEED2Ev
000000000005d330 W _ZNSaINSt8__detail10_Hash_nodeINSt7__cxx1112basic_stringIcSt11char_traitsIcESaIcEEELb1EEEEC1Ev
000000000005d330 W _ZNSaINSt8__detail10_Hash_nodeINSt7__cxx1112basic_stringIcSt11char_traitsIcESaIcEEELb1EEEEC2Ev
0000000000054904 W _ZNSaINSt8__detail10_Hash_nodeINSt7__cxx1112basic_stringIcSt11char_traitsIcESaIcEEELb1EEEED1Ev
0000000000054904 W _ZNSaINSt8__detail10_Hash_nodeINSt7__cxx1112basic_stringIcSt11char_traitsIcESaIcEEELb1EEEED2Ev
0000000000061648 W _ZNSaIPN7testing11EnvironmentEEC1Ev
0000000000061648 W _ZNSaIPN7testing11EnvironmentEEC2Ev
00000000000595c8 W _ZNSaIPN7testing11EnvironmentEED1Ev
00000000000595c8 W _ZNSaIPN7testing11EnvironmentEED2Ev
0000000000060742 W _ZNSaIPN7testing17TestEventListenerEEC1Ev
0000000000060742 W _ZNSaIPN7testing17TestEventListenerEEC2Ev
0000000000058b8e W _ZNSaIPN7testing17TestEventListenerEED1Ev
0000000000058b8e W _ZNSaIPN7testing17TestEventListenerEED2Ev
00000000000601ea W _ZNSaIPN7testing8TestInfoEEC1Ev
00000000000601ea W _ZNSaIPN7testing8TestInfoEEC2Ev
0000000000058550 W _ZNSaIPN7testing8TestInfoEED1Ev
0000000000058550 W _ZNSaIPN7testing8TestInfoEED2Ev
0000000000061800 W _ZNSaIPN7testing8internal30ParameterizedTestSuiteInfoBaseEEC1Ev
0000000000061800 W _ZNSaIPN7testing8internal30ParameterizedTestSuiteInfoBaseEEC2Ev
0000000000059794 W _ZNSaIPN7testing8internal30ParameterizedTestSuiteInfoBaseEED1Ev
0000000000059794 W _ZNSaIPN7testing8internal30ParameterizedTestSuiteInfoBaseEED2Ev
0000000000061724 W _ZNSaIPN7testing9TestSuiteEEC1Ev
0000000000061724 W _ZNSaIPN7testing9TestSuiteEEC2Ev
00000000000596ae W _ZNSaIPN7testing9TestSuiteEED1Ev
00000000000596ae W _ZNSaIPN7testing9TestSuiteEED2Ev
000000000006d02c W _ZNSaIPNSt8__detail15_Hash_node_baseEEC1INS_10_Hash_nodeINSt7__cxx1112basic_stringIcSt11char_traitsIcESaIcEEELb1EEEEERKSaIT_E
000000000006d02c W _ZNSaIPNSt8__detail15_Hash_node_baseEEC2INS_10_Hash_nodeINSt7__cxx1112basic_stringIcSt11char_traitsIcESaIcEEELb1EEEEERKSaIT_E
000000000006d050 W _ZNSaIPNSt8__detail15_Hash_node_baseEED1Ev
000000000006d050 W _ZNSaIPNSt8__detail15_Hash_node_baseEED2Ev
000000000005ede2 W _ZNSaISt10_List_nodeISt4pairIcPKcEEEC1Ev
000000000005ede2 W _ZNSaISt10_List_nodeISt4pairIcPKcEEEC2Ev
0000000000055ec4 W _ZNSaISt10_List_nodeISt4pairIcPKcEEED1Ev
0000000000055ec4 W _ZNSaISt10_List_nodeISt4pairIcPKcEEED2Ev
000000000005ca64 W _ZNSaISt13_Rb_tree_nodeINSt7__cxx1112basic_stringIcSt11char_traitsIcESaIcEEEEEC1Ev
000000000005ca64 W _ZNSaISt13_Rb_tree_nodeINSt7__cxx1112basic_stringIcSt11char_traitsIcESaIcEEEEEC2Ev
0000000000054220 W _ZNSaISt13_Rb_tree_nodeINSt7__cxx1112basic_stringIcSt11char_traitsIcESaIcEEEEED1Ev
0000000000054220 W _ZNSaISt13_Rb_tree_nodeINSt7__cxx1112basic_stringIcSt11char_traitsIcESaIcEEEEED2Ev
000000000006189c W _ZNSaISt13_Rb_tree_nodeISt4pairIKNSt7__cxx1112basic_stringIcSt11char_traitsIcESaIcEEEN7testing8internal34TypeParameterizedTestSuiteRegistry30TypeParameterizedTestSuiteInfoEEEEC1Ev
000000000006189c W _ZNSaISt13_Rb_tree_nodeISt4pairIKNSt7__cxx1112basic_stringIcSt11char_traitsIcESaIcEEEN7testing8internal34TypeParameterizedTestSuiteRegistry30TypeParameterizedTestSuiteInfoEEEEC2Ev
0000000000059842 W _ZNSaISt13_Rb_tree_nodeISt4pairIKNSt7__cxx1112basic_stringIcSt11char_traitsIcESaIcEEEN7testing8internal34TypeParameterizedTestSuiteRegistry30TypeParameterizedTestSuiteInfoEEEED1Ev
0000000000059842 W _ZNSaISt13_Rb_tree_nodeISt4pairIKNSt7__cxx1112basic_stringIcSt11char_traitsIcESaIcEEEN7testing8internal34TypeParameterizedTestSuiteRegistry30TypeParameterizedTestSuiteInfoEEEED2Ev
000000000005ec70 W _ZNSaISt13_Rb_tree_nodeISt4pairIKNSt7__cxx1112basic_stringIcSt11char_traitsIcESaIcEEEmEEEC1Ev
000000000005ec70 W _ZNSaISt13_Rb_tree_nodeISt4pairIKNSt7__cxx1112basic_stringIcSt11char_traitsIcESaIcEEEmEEEC2Ev
0000000000055de0 W _ZNSaISt13_Rb_tree_nodeISt4pairIKNSt7__cxx1112basic_stringIcSt11char_traitsIcESaIcEEEmEEED1Ev
0000000000055de0 W _ZNSaISt13_Rb_tree_nodeISt4pairIKNSt7__cxx1112basic_stringIcSt11char_traitsIcESaIcEEEmEEED2Ev
0000000000065480 W _ZNSaISt6vectorIN7testing8internal13edit_distance8EditTypeESaIS3_EEEC1ERKS6_
00000000000556ea W _ZNSaISt6vectorIN7testing8internal13edit_distance8EditTypeESaIS3_EEEC1Ev
0000000000065480 W _ZNSaISt6vectorIN7testing8internal13edit_distance8EditTypeESaIS3_EEEC2ERKS6_
00000000000556ea W _ZNSaISt6vectorIN7testing8internal13edit_distance8EditTypeESaIS3_EEEC2Ev
000000000005570a W _ZNSaISt6vectorIN7testing8internal13edit_distance8EditTypeESaIS3_EEED1Ev
000000000005570a W _ZNSaISt6vectorIN7testing8internal13edit_distance8EditTypeESaIS3_EEED2Ev
000000000006516a W _ZNSaISt6vectorIdSaIdEEEC1ERKS2_
00000000000554d6 W _ZNSaISt6vectorIdSaIdEEEC1Ev
000000000006516a W _ZNSaISt6vectorIdSaIdEEEC2ERKS2_
00000000000554d6 W _ZNSaISt6vectorIdSaIdEEEC2Ev
00000000000554f6 W _ZNSaISt6vectorIdSaIdEEED1Ev
00000000000554f6 W _ZNSaISt6vectorIdSaIdEEED2Ev
                 U _ZNSaIcEC1ERKS_@GLIBCXX_3.4
                 U _ZNSaIcEC1Ev@GLIBCXX_3.4
                 U _ZNSaIcED1Ev@GLIBCXX_3.4
                 U _ZNSaIcED2Ev@GLIBCXX_3.4
0000000000064fb6 W _ZNSaIdEC1ERKS_
00000000000553d0 W _ZNSaIdEC1Ev
0000000000064fb6 W _ZNSaIdEC2ERKS_
00000000000553d0 W _ZNSaIdEC2Ev
00000000000553f0 W _ZNSaIdED1Ev
00000000000553f0 W _ZNSaIdED2Ev
00000000000602c6 W _ZNSaIiEC1Ev
00000000000602c6 W _ZNSaIiEC2Ev
0000000000058636 W _ZNSaIiED1Ev
0000000000058636 W _ZNSaIiED2Ev
000000000005eb94 W _ZNSaImEC1Ev
000000000005eb94 W _ZNSaImEC2Ev
0000000000055cea W _ZNSaImED1Ev
0000000000055cea W _ZNSaImED2Ev
                 U _ZNSaIwEC1Ev@GLIBCXX_3.4
                 U _ZNSaIwED1Ev@GLIBCXX_3.4
                 U _ZNSaIwED2Ev@GLIBCXX_3.4
                 U _ZNSirsERm@GLIBCXX_3.4
                 U _ZNSo5writeEPKcl@GLIBCXX_3.4
                 U _ZNSolsEPFRSoS_E@GLIBCXX_3.4
                 U _ZNSolsEPFRSt8ios_baseS0_E@GLIBCXX_3.4
                 U _ZNSolsEPKv@GLIBCXX_3.4
                 U _ZNSolsEd@GLIBCXX_3.4
                 U _ZNSolsEf@GLIBCXX_3.4
                 U _ZNSolsEi@GLIBCXX_3.4
                 U _ZNSolsEj@GLIBCXX_3.4
                 U _ZNSolsEl@GLIBCXX_3.4
                 U _ZNSolsEm@GLIBCXX_3.4
000000000004a5e6 W _ZNSt10_Hash_impl4hashEPKvmm
0000000000073d40 W _ZNSt10_HashtableINSt7__cxx1112basic_stringIcSt11char_traitsIcESaIcEEES5_SaIS5_ENSt8__detail9_IdentityESt8equal_toIS5_ESt4hashIS5_ENS7_18_Mod_range_hashingENS7_20_Default_ranged_hashENS7_20_Prime_rehash_policyENS7_17_Hashtable_traitsILb1ELb1ELb1EEEE12_Scoped_nodeC1EPNS7_10_Hash_nodeIS5_Lb1EEEPNS7_16_Hashtable_allocISaISL_EEE
0000000000073d40 W _ZNSt10_HashtableINSt7__cxx1112basic_stringIcSt11char_traitsIcESaIcEEES5_SaIS5_ENSt8__detail9_IdentityESt8equal_toIS5_ESt4hashIS5_ENS7_18_Mod_range_hashingENS7_20_Default_ranged_hashENS7_20_Prime_rehash_policyENS7_17_Hashtable_traitsILb1ELb1ELb1EEEE12_Scoped_nodeC2EPNS7_10_Hash_nodeIS5_Lb1EEEPNS7_16_Hashtable_allocISaISL_EEE
0000000000073d6e W _ZNSt10_HashtableINSt7__cxx1112basic_stringIcSt11char_traitsIcESaIcEEES5_SaIS5_ENSt8__detail9_IdentityESt8equal_toIS5_ESt4hashIS5_ENS7_18_Mod_range_hashingENS7_20_Default_ranged_hashENS7_20_Prime_rehash_policyENS7_17_Hashtable_traitsILb1ELb1ELb1EEEE12_Scoped_nodeD1Ev
0000000000073d6e W _ZNSt10_HashtableINSt7__cxx1112basic_stringIcSt11char_traitsIcESaIcEEES5_SaIS5_ENSt8__detail9_IdentityESt8equal_toIS5_ESt4hashIS5_ENS7_18_Mod_range_hashingENS7_20_Default_ranged_hashENS7_20_Prime_rehash_policyENS7_17_Hashtable_traitsILb1ELb1ELb1EEEE12_Scoped_nodeD2Ev
0000000000074462 W _ZNSt10_HashtableINSt7__cxx1112basic_stringIcSt11char_traitsIcESaIcEEES5_SaIS5_ENSt8__detail9_IdentityESt8equal_toIS5_ESt4hashIS5_ENS7_18_Mod_range_hashingENS7_20_Default_ranged_hashENS7_20_Prime_rehash_policyENS7_17_Hashtable_traitsILb1ELb1ELb1EEEE13_M_rehash_auxEmSt17integral_constantIbLb1EE
000000000005d936 W _ZNSt10_HashtableINSt7__cxx1112basic_stringIcSt11char_traitsIcESaIcEEES5_SaIS5_ENSt8__detail9_IdentityESt8equal_toIS5_ESt4hashIS5_ENS7_18_Mod_range_hashingENS7_20_Default_ranged_hashENS7_20_Prime_rehash_policyENS7_17_Hashtable_traitsILb1ELb1ELb1EEEE14_M_move_assignEOSI_St17integral_constantIbLb1EE
0000000000064c9a W _ZNSt10_HashtableINSt7__cxx1112basic_stringIcSt11char_traitsIcESaIcEEES5_SaIS5_ENSt8__detail9_IdentityESt8equal_toIS5_ESt4hashIS5_ENS7_18_Mod_range_hashingENS7_20_Default_ranged_hashENS7_20_Prime_rehash_policyENS7_17_Hashtable_traitsILb1ELb1ELb1EEEE16_M_update_bbeginEv
00000000000747f8 W _ZNSt10_HashtableINSt7__cxx1112basic_stringIcSt11char_traitsIcESaIcEEES5_SaIS5_ENSt8__detail9_IdentityESt8equal_toIS5_ESt4hashIS5_ENS7_18_Mod_range_hashingENS7_20_Default_ranged_hashENS7_20_Prime_rehash_policyENS7_17_Hashtable_traitsILb1ELb1ELb1EEEE19_M_allocate_bucketsEm
00000000000647b8 W _ZNSt10_HashtableINSt7__cxx1112basic_stringIcSt11char_traitsIcESaIcEEES5_SaIS5_ENSt8__detail9_IdentityESt8equal_toIS5_ESt4hashIS5_ENS7_18_Mod_range_hashingENS7_20_Default_ranged_hashENS7_20_Prime_rehash_policyENS7_17_Hashtable_traitsILb1ELb1ELb1EEEE21_M_deallocate_bucketsEPPNS7_15_Hash_node_baseEm
000000000005d3ce W _ZNSt10_HashtableINSt7__cxx1112basic_stringIcSt11char_traitsIcESaIcEEES5_SaIS5_ENSt8__detail9_IdentityESt8equal_toIS5_ESt4hashIS5_ENS7_18_Mod_range_hashingENS7_20_Default_ranged_hashENS7_20_Prime_rehash_policyENS7_17_Hashtable_traitsILb1ELb1ELb1EEEE21_M_deallocate_bucketsEv
0000000000073da8 W _ZNSt10_HashtableINSt7__cxx1112basic_stringIcSt11char_traitsIcESaIcEEES5_SaIS5_ENSt8__detail9_IdentityESt8equal_toIS5_ESt4hashIS5_ENS7_18_Mod_range_hashingENS7_20_Default_ranged_hashENS7_20_Prime_rehash_policyENS7_17_Hashtable_traitsILb1ELb1ELb1EEEE21_M_insert_unique_nodeEmmPNS7_10_Hash_nodeIS5_Lb1EEEm
0000000000074198 W _ZNSt10_HashtableINSt7__cxx1112basic_stringIcSt11char_traitsIcESaIcEEES5_SaIS5_ENSt8__detail9_IdentityESt8equal_toIS5_ESt4hashIS5_ENS7_18_Mod_range_hashingENS7_20_Default_ranged_hashENS7_20_Prime_rehash_policyENS7_17_Hashtable_traitsILb1ELb1ELb1EEEE22_M_insert_bucket_beginEmPNS7_10_Hash_nodeIS5_Lb1EEE
000000000005d6a4 W _ZNSt10_HashtableINSt7__cxx1112basic_stringIcSt11char_traitsIcESaIcEEES5_SaIS5_ENSt8__detail9_IdentityESt8equal_toIS5_ESt4hashIS5_ENS7_18_Mod_range_hashingENS7_20_Default_ranged_hashENS7_20_Prime_rehash_policyENS7_17_Hashtable_traitsILb1ELb1ELb1EEEE5beginEv
000000000005d360 W _ZNSt10_HashtableINSt7__cxx1112basic_stringIcSt11char_traitsIcESaIcEEES5_SaIS5_ENSt8__detail9_IdentityESt8equal_toIS5_ESt4hashIS5_ENS7_18_Mod_range_hashingENS7_20_Default_ranged_hashENS7_20_Prime_rehash_policyENS7_17_Hashtable_traitsILb1ELb1ELb1EEEE5clearEv
0000000000064d06 W _ZNSt10_HashtableINSt7__cxx1112basic_stringIcSt11char_traitsIcESaIcEEES5_SaIS5_ENSt8__detail9_IdentityESt8equal_toIS5_ESt4hashIS5_ENS7_18_Mod_range_hashingENS7_20_Default_ranged_hashENS7_20_Prime_rehash_policyENS7_17_Hashtable_traitsILb1ELb1ELb1EEEE8_M_resetEv
0000000000073514 W _ZNSt10_HashtableINSt7__cxx1112basic_stringIcSt11char_traitsIcESaIcEEES5_SaIS5_ENSt8__detail9_IdentityESt8equal_toIS5_ESt4hashIS5_ENS7_18_Mod_range_hashingENS7_20_Default_ranged_hashENS7_20_Prime_rehash_policyENS7_17_Hashtable_traitsILb1ELb1ELb1EEEE9_M_insertIS5_NS7_10_AllocNodeISaINS7_10_Hash_nodeIS5_Lb1EEEEEEEENS7_14_Node_iteratorIS5_Lb1ELb1EEENS7_20_Node_const_iteratorIS5_Lb1ELb1EEEOT_RKT0_St17integral_constantIbLb1EE
00000000000739c2 W _ZNSt10_HashtableINSt7__cxx1112basic_stringIcSt11char_traitsIcESaIcEEES5_SaIS5_ENSt8__detail9_IdentityESt8equal_toIS5_ESt4hashIS5_ENS7_18_Mod_range_hashingENS7_20_Default_ranged_hashENS7_20_Prime_rehash_policyENS7_17_Hashtable_traitsILb1ELb1ELb1EEEE9_M_insertIS5_NS7_10_AllocNodeISaINS7_10_Hash_nodeIS5_Lb1EEEEEEEESt4pairINS7_14_Node_iteratorIS5_Lb1ELb1EEEbEOT_RKT0_St17integral_constantIbLb1EE
0000000000074100 W _ZNSt10_HashtableINSt7__cxx1112basic_stringIcSt11char_traitsIcESaIcEEES5_SaIS5_ENSt8__detail9_IdentityESt8equal_toIS5_ESt4hashIS5_ENS7_18_Mod_range_hashingENS7_20_Default_ranged_hashENS7_20_Prime_rehash_policyENS7_17_Hashtable_traitsILb1ELb1ELb1EEEE9_M_rehashEmRKm
000000000004fd96 W _ZNSt10_HashtableINSt7__cxx1112basic_stringIcSt11char_traitsIcESaIcEEES5_SaIS5_ENSt8__detail9_IdentityESt8equal_toIS5_ESt4hashIS5_ENS7_18_Mod_range_hashingENS7_20_Default_ranged_hashENS7_20_Prime_rehash_policyENS7_17_Hashtable_traitsILb1ELb1ELb1EEEEC1Ev
000000000004fd96 W _ZNSt10_HashtableINSt7__cxx1112basic_stringIcSt11char_traitsIcESaIcEEES5_SaIS5_ENSt8__detail9_IdentityESt8equal_toIS5_ESt4hashIS5_ENS7_18_Mod_range_hashingENS7_20_Default_ranged_hashENS7_20_Prime_rehash_policyENS7_17_Hashtable_traitsILb1ELb1ELb1EEEEC2Ev
0000000000054924 W _ZNSt10_HashtableINSt7__cxx1112basic_stringIcSt11char_traitsIcESaIcEEES5_SaIS5_ENSt8__detail9_IdentityESt8equal_toIS5_ESt4hashIS5_ENS7_18_Mod_range_hashingENS7_20_Default_ranged_hashENS7_20_Prime_rehash_policyENS7_17_Hashtable_traitsILb1ELb1ELb1EEEED1Ev
0000000000054924 W _ZNSt10_HashtableINSt7__cxx1112basic_stringIcSt11char_traitsIcESaIcEEES5_SaIS5_ENSt8__detail9_IdentityESt8equal_toIS5_ESt4hashIS5_ENS7_18_Mod_range_hashingENS7_20_Default_ranged_hashENS7_20_Prime_rehash_policyENS7_17_Hashtable_traitsILb1ELb1ELb1EEEED2Ev
0000000000054d42 W _ZNSt10_HashtableINSt7__cxx1112basic_stringIcSt11char_traitsIcESaIcEEES5_SaIS5_ENSt8__detail9_IdentityESt8equal_toIS5_ESt4hashIS5_ENS7_18_Mod_range_hashingENS7_20_Default_ranged_hashENS7_20_Prime_rehash_policyENS7_17_Hashtable_traitsILb1ELb1ELb1EEEEaSEOSI_
00000000000731bf W _ZNSt10_Head_baseILm0EPKN7testing8internal11MatcherBaseINSt7__cxx1112basic_stringIcSt11char_traitsIcESaIcEEEEELb0EE7_M_headERSC_
00000000000725f0 W _ZNSt10_Head_baseILm0EPKN7testing8internal11MatcherBaseINSt7__cxx1112basic_stringIcSt11char_traitsIcESaIcEEEEELb0EEC1ISB_EEOT_
00000000000725f0 W _ZNSt10_Head_baseILm0EPKN7testing8internal11MatcherBaseINSt7__cxx1112basic_stringIcSt11char_traitsIcESaIcEEEEELb0EEC2ISB_EEOT_
00000000000731ad W _ZNSt10_Head_baseILm0EPKN7testing8internal11MatcherBaseIRKNSt7__cxx1112basic_stringIcSt11char_traitsIcESaIcEEEEELb0EE7_M_headERSE_
00000000000725c2 W _ZNSt10_Head_baseILm0EPKN7testing8internal11MatcherBaseIRKNSt7__cxx1112basic_stringIcSt11char_traitsIcESaIcEEEEELb0EEC1ISD_EEOT_
00000000000725c2 W _ZNSt10_Head_baseILm0EPKN7testing8internal11MatcherBaseIRKNSt7__cxx1112basic_stringIcSt11char_traitsIcESaIcEEEEELb0EEC2ISD_EEOT_
000000000007321c W _ZNSt10_Head_baseILm0EPKN7testing8internal11MatcherBaseIRKSt17basic_string_viewIcSt11char_traitsIcEEEELb0EE7_M_headERSC_
000000000007261e W _ZNSt10_Head_baseILm0EPKN7testing8internal11MatcherBaseIRKSt17basic_string_viewIcSt11char_traitsIcEEEELb0EEC1ISB_EEOT_
000000000007261e W _ZNSt10_Head_baseILm0EPKN7testing8internal11MatcherBaseIRKSt17basic_string_viewIcSt11char_traitsIcEEEELb0EEC2ISB_EEOT_
000000000007322e W _ZNSt10_Head_baseILm0EPKN7testing8internal11MatcherBaseISt17basic_string_viewIcSt11char_traitsIcEEEELb0EE7_M_headERSA_
000000000007264c W _ZNSt10_Head_baseILm0EPKN7testing8internal11MatcherBaseISt17basic_string_viewIcSt11char_traitsIcEEEELb0EEC1IS9_EEOT_
000000000007264c W _ZNSt10_Head_baseILm0EPKN7testing8internal11MatcherBaseISt17basic_string_viewIcSt11char_traitsIcEEEELb0EEC2IS9_EEOT_
0000000000071300 W _ZNSt10_Head_baseILm0EPKNSt7__cxx1112basic_stringIcSt11char_traitsIcESaIcEEELb0EE7_M_headERKS8_
0000000000070545 W _ZNSt10_Head_baseILm0EPKNSt7__cxx1112basic_stringIcSt11char_traitsIcESaIcEEELb0EE7_M_headERS8_
000000000006e00a W _ZNSt10_Head_baseILm0EPKNSt7__cxx1112basic_stringIcSt11char_traitsIcESaIcEEELb0EEC1Ev
000000000006e00a W _ZNSt10_Head_baseILm0EPKNSt7__cxx1112basic_stringIcSt11char_traitsIcESaIcEEELb0EEC2Ev
0000000000073b8a W _ZNSt10_Head_baseILm0EPN7testing8internal11ThreadLocalIPNS0_31TestPartResultReporterInterfaceEE18ValueHolderFactoryELb0EE7_M_headERKS8_
00000000000724ab W _ZNSt10_Head_baseILm0EPN7testing8internal11ThreadLocalIPNS0_31TestPartResultReporterInterfaceEE18ValueHolderFactoryELb0EE7_M_headERS8_
000000000007112c W _ZNSt10_Head_baseILm0EPN7testing8internal11ThreadLocalIPNS0_31TestPartResultReporterInterfaceEE18ValueHolderFactoryELb0EEC1Ev
000000000007112c W _ZNSt10_Head_baseILm0EPN7testing8internal11ThreadLocalIPNS0_31TestPartResultReporterInterfaceEE18ValueHolderFactoryELb0EEC2Ev
0000000000073163 W _ZNSt10_Head_baseILm0EPN7testing8internal11ThreadLocalISt6vectorINS1_9TraceInfoESaIS4_EEE18ValueHolderFactoryELb0EE7_M_headERKSA_
00000000000724fd W _ZNSt10_Head_baseILm0EPN7testing8internal11ThreadLocalISt6vectorINS1_9TraceInfoESaIS4_EEE18ValueHolderFactoryELb0EE7_M_headERSA_
00000000000711f4 W _ZNSt10_Head_baseILm0EPN7testing8internal11ThreadLocalISt6vectorINS1_9TraceInfoESaIS4_EEE18ValueHolderFactoryELb0EEC1Ev
00000000000711f4 W _ZNSt10_Head_baseILm0EPN7testing8internal11ThreadLocalISt6vectorINS1_9TraceInfoESaIS4_EEE18ValueHolderFactoryELb0EEC2Ev
0000000000070505 W _ZNSt10_Head_baseILm0EPN7testing8internal14GTestFlagSaverELb0EE7_M_headERS4_
000000000006df58 W _ZNSt10_Head_baseILm0EPN7testing8internal14GTestFlagSaverELb0EEC1Ev
000000000006df58 W _ZNSt10_Head_baseILm0EPN7testing8internal14GTestFlagSaverELb0EEC2Ev
000000000006ef33 W _ZNSt10_Head_baseILm0EPN7testing8internal16DeathTestFactoryELb0EE7_M_headERKS4_
00000000000711a3 W _ZNSt10_Head_baseILm0EPN7testing8internal16DeathTestFactoryELb0EE7_M_headERS4_
000000000006ebfa W _ZNSt10_Head_baseILm0EPN7testing8internal16DeathTestFactoryELb0EEC1Ev
000000000006ebfa W _ZNSt10_Head_baseILm0EPN7testing8internal16DeathTestFactoryELb0EEC2Ev
0000000000071354 W _ZNSt10_Head_baseILm0EPN7testing8internal17StreamingListener20AbstractSocketWriterELb0EE7_M_headERKS5_
000000000006ef55 W _ZNSt10_Head_baseILm0EPN7testing8internal17StreamingListener20AbstractSocketWriterELb0EE7_M_headERS5_
000000000006c4e6 W _ZNSt10_Head_baseILm0EPN7testing8internal17StreamingListener20AbstractSocketWriterELb0EEC1Ev
000000000006c4e6 W _ZNSt10_Head_baseILm0EPN7testing8internal17StreamingListener20AbstractSocketWriterELb0EEC2Ev
000000000006ef21 W _ZNSt10_Head_baseILm0EPN7testing8internal24InternalRunDeathTestFlagELb0EE7_M_headERKS4_
0000000000071182 W _ZNSt10_Head_baseILm0EPN7testing8internal24InternalRunDeathTestFlagELb0EE7_M_headERS4_
00000000000684de W _ZNSt10_Head_baseILm0EPN7testing8internal24InternalRunDeathTestFlagELb0EEC1Ev
00000000000684de W _ZNSt10_Head_baseILm0EPN7testing8internal24InternalRunDeathTestFlagELb0EEC2Ev
00000000000162e1 W _ZNSt10_Head_baseILm0EPNSt7__cxx1112basic_stringIcSt11char_traitsIcESaIcEEELb0EE7_M_headERKS7_
00000000000161e4 W _ZNSt10_Head_baseILm0EPNSt7__cxx1112basic_stringIcSt11char_traitsIcESaIcEEELb0EE7_M_headERS7_
0000000000069120 W _ZNSt10_Head_baseILm0EPNSt7__cxx1112basic_stringIcSt11char_traitsIcESaIcEEELb0EEC1Ev
0000000000069120 W _ZNSt10_Head_baseILm0EPNSt7__cxx1112basic_stringIcSt11char_traitsIcESaIcEEELb0EEC2Ev
000000000006fbd5 W _ZNSt10_Head_baseILm0EPNSt7__cxx1118basic_stringstreamIcSt11char_traitsIcESaIcEEELb0EE7_M_headERKS7_
0000000000016196 W _ZNSt10_Head_baseILm0EPNSt7__cxx1118basic_stringstreamIcSt11char_traitsIcESaIcEEELb0EE7_M_headERS7_
000000000006c3f0 W _ZNSt10_Head_baseILm0EPNSt7__cxx1118basic_stringstreamIcSt11char_traitsIcESaIcEEELb0EEC1Ev
000000000006c3f0 W _ZNSt10_Head_baseILm0EPNSt7__cxx1118basic_stringstreamIcSt11char_traitsIcESaIcEEELb0EEC2Ev
000000000006f00e W _ZNSt10_Head_baseILm0EPPcLb0EE7_M_headERKS2_
000000000006efde W _ZNSt10_Head_baseILm0EPPcLb0EE7_M_headERS2_
000000000006efc4 W _ZNSt10_Head_baseILm0EPPcLb0EEC1Ev
000000000006efc4 W _ZNSt10_Head_baseILm0EPPcLb0EEC2Ev
000000000007439e W _ZNSt10_Head_baseILm0ERKNSt7__cxx1112basic_stringIcSt11char_traitsIcESaIcEEELb0EE7_M_headERS8_
000000000006a82c W _ZNSt10_Head_baseILm0ERKNSt7__cxx1112basic_stringIcSt11char_traitsIcESaIcEEELb0EEC1ES7_
000000000006a82c W _ZNSt10_Head_baseILm0ERKNSt7__cxx1112basic_stringIcSt11char_traitsIcESaIcEEELb0EEC2ES7_
0000000000073946 W _ZNSt10_Head_baseILm1EPKN7testing8internal9EqMatcherINSt7__cxx1112basic_stringIcSt11char_traitsIcESaIcEEEEELb0EEC1ISB_EEOT_
0000000000073946 W _ZNSt10_Head_baseILm1EPKN7testing8internal9EqMatcherINSt7__cxx1112basic_stringIcSt11char_traitsIcESaIcEEEEELb0EEC2ISB_EEOT_
0000000000071375 W _ZNSt10_Head_baseILm1ESt14default_deleteIA_PcELb1EE7_M_headERS4_
0000000000071366 W _ZNSt10_Head_baseILm1ESt14default_deleteIA_PcELb1EEC1Ev
0000000000071366 W _ZNSt10_Head_baseILm1ESt14default_deleteIA_PcELb1EEC2Ev
0000000000071f2c W _ZNSt10_Head_baseILm1ESt14default_deleteIKNSt7__cxx1112basic_stringIcSt11char_traitsIcESaIcEEEELb1EE7_M_headERS9_
0000000000070536 W _ZNSt10_Head_baseILm1ESt14default_deleteIKNSt7__cxx1112basic_stringIcSt11char_traitsIcESaIcEEEELb1EEC1Ev
0000000000070536 W _ZNSt10_Head_baseILm1ESt14default_deleteIKNSt7__cxx1112basic_stringIcSt11char_traitsIcESaIcEEEELb1EEC2Ev
000000000007313f W _ZNSt10_Head_baseILm1ESt14default_deleteIN7testing8internal11ThreadLocalIPNS1_31TestPartResultReporterInterfaceEE18ValueHolderFactoryEELb1EE7_M_headERS9_
000000000007249c W _ZNSt10_Head_baseILm1ESt14default_deleteIN7testing8internal11ThreadLocalIPNS1_31TestPartResultReporterInterfaceEE18ValueHolderFactoryEELb1EEC1Ev
000000000007249c W _ZNSt10_Head_baseILm1ESt14default_deleteIN7testing8internal11ThreadLocalIPNS1_31TestPartResultReporterInterfaceEE18ValueHolderFactoryEELb1EEC2Ev
0000000000073151 W _ZNSt10_Head_baseILm1ESt14default_deleteIN7testing8internal11ThreadLocalISt6vectorINS2_9TraceInfoESaIS5_EEE18ValueHolderFactoryEELb1EE7_M_headERSB_
00000000000724ee W _ZNSt10_Head_baseILm1ESt14default_deleteIN7testing8internal11ThreadLocalISt6vectorINS2_9TraceInfoESaIS5_EEE18ValueHolderFactoryEELb1EEC1Ev
00000000000724ee W _ZNSt10_Head_baseILm1ESt14default_deleteIN7testing8internal11ThreadLocalISt6vectorINS2_9TraceInfoESaIS5_EEE18ValueHolderFactoryEELb1EEC2Ev
0000000000071f1a W _ZNSt10_Head_baseILm1ESt14default_deleteIN7testing8internal14GTestFlagSaverEELb1EE7_M_headERS5_
00000000000704f6 W _ZNSt10_Head_baseILm1ESt14default_deleteIN7testing8internal14GTestFlagSaverEELb1EEC1Ev
00000000000704f6 W _ZNSt10_Head_baseILm1ESt14default_deleteIN7testing8internal14GTestFlagSaverEELb1EEC2Ev
00000000000724db W _ZNSt10_Head_baseILm1ESt14default_deleteIN7testing8internal16DeathTestFactoryEELb1EE7_M_headERS5_
0000000000071194 W _ZNSt10_Head_baseILm1ESt14default_deleteIN7testing8internal16DeathTestFactoryEELb1EEC1Ev
0000000000071194 W _ZNSt10_Head_baseILm1ESt14default_deleteIN7testing8internal16DeathTestFactoryEELb1EEC2Ev
0000000000071342 W _ZNSt10_Head_baseILm1ESt14default_deleteIN7testing8internal17StreamingListener20AbstractSocketWriterEELb1EE7_M_headERS6_
000000000006ef46 W _ZNSt10_Head_baseILm1ESt14default_deleteIN7testing8internal17StreamingListener20AbstractSocketWriterEELb1EEC1Ev
000000000006ef46 W _ZNSt10_Head_baseILm1ESt14default_deleteIN7testing8internal17StreamingListener20AbstractSocketWriterEELb1EEC2Ev
0000000000071330 W _ZNSt10_Head_baseILm1ESt14default_deleteIN7testing8internal24InternalRunDeathTestFlagEELb1EE7_M_headERS5_
000000000006c0dc W _ZNSt10_Head_baseILm1ESt14default_deleteIN7testing8internal24InternalRunDeathTestFlagEELb1EEC1Ev
000000000006c0dc W _ZNSt10_Head_baseILm1ESt14default_deleteIN7testing8internal24InternalRunDeathTestFlagEELb1EEC2Ev
00000000000161f6 W _ZNSt10_Head_baseILm1ESt14default_deleteINSt7__cxx1112basic_stringIcSt11char_traitsIcESaIcEEEELb1EE7_M_headERS8_
000000000006c43a W _ZNSt10_Head_baseILm1ESt14default_deleteINSt7__cxx1112basic_stringIcSt11char_traitsIcESaIcEEEELb1EEC1Ev
000000000006c43a W _ZNSt10_Head_baseILm1ESt14default_deleteINSt7__cxx1112basic_stringIcSt11char_traitsIcESaIcEEEELb1EEC2Ev
00000000000162cf W _ZNSt10_Head_baseILm1ESt14default_deleteINSt7__cxx1118basic_stringstreamIcSt11char_traitsIcESaIcEEEELb1EE7_M_headERS8_
000000000006ee70 W _ZNSt10_Head_baseILm1ESt14default_deleteINSt7__cxx1118basic_stringstreamIcSt11char_traitsIcESaIcEEEELb1EEC1Ev
000000000006ee70 W _ZNSt10_Head_baseILm1ESt14default_deleteINSt7__cxx1118basic_stringstreamIcSt11char_traitsIcESaIcEEEELb1EEC2Ev
000000000006646a W _ZNSt10_List_nodeISt4pairIcPKcEE9_M_valptrEv
000000000005bdce W _ZNSt10unique_ptrIA_PcSt14default_deleteIS1_EE11get_deleterEv
000000000005bd86 W _ZNSt10unique_ptrIA_PcSt14default_deleteIS1_EEC1IPS0_S3_vbEET_
000000000005bd86 W _ZNSt10unique_ptrIA_PcSt14default_deleteIS1_EEC2IPS0_S3_vbEET_
0000000000052c54 W _ZNSt10unique_ptrIA_PcSt14default_deleteIS1_EED1Ev
0000000000052c54 W _ZNSt10unique_ptrIA_PcSt14default_deleteIS1_EED2Ev
000000000005fffe W _ZNSt10unique_ptrIKNSt7__cxx1112basic_stringIcSt11char_traitsIcESaIcEEESt14default_deleteIS6_EE11get_deleterEv
000000000005811c W _ZNSt10unique_ptrIKNSt7__cxx1112basic_stringIcSt11char_traitsIcESaIcEEESt14default_deleteIS6_EEC1IS8_vEEPS6_
000000000005811c W _ZNSt10unique_ptrIKNSt7__cxx1112basic_stringIcSt11char_traitsIcESaIcEEESt14default_deleteIS6_EEC2IS8_vEEPS6_
0000000000058146 W _ZNSt10unique_ptrIKNSt7__cxx1112basic_stringIcSt11char_traitsIcESaIcEEESt14default_deleteIS6_EED1Ev
0000000000058146 W _ZNSt10unique_ptrIKNSt7__cxx1112basic_stringIcSt11char_traitsIcESaIcEEESt14default_deleteIS6_EED2Ev
00000000000682f2 W _ZNSt10unique_ptrIN7testing8internal11ThreadLocalIPNS0_31TestPartResultReporterInterfaceEE18ValueHolderFactoryESt14default_deleteIS6_EE11get_deleterEv
00000000000615b6 W _ZNSt10unique_ptrIN7testing8internal11ThreadLocalIPNS0_31TestPartResultReporterInterfaceEE18ValueHolderFactoryESt14default_deleteIS6_EEC1IS8_vEEPS6_
00000000000615b6 W _ZNSt10unique_ptrIN7testing8internal11ThreadLocalIPNS0_31TestPartResultReporterInterfaceEE18ValueHolderFactoryESt14default_deleteIS6_EEC2IS8_vEEPS6_
00000000000615e0 W _ZNSt10unique_ptrIN7testing8internal11ThreadLocalIPNS0_31TestPartResultReporterInterfaceEE18ValueHolderFactoryESt14default_deleteIS6_EED1Ev
00000000000615e0 W _ZNSt10unique_ptrIN7testing8internal11ThreadLocalIPNS0_31TestPartResultReporterInterfaceEE18ValueHolderFactoryESt14default_deleteIS6_EED2Ev
00000000000685cc W _ZNSt10unique_ptrIN7testing8internal11ThreadLocalISt6vectorINS1_9TraceInfoESaIS4_EEE18ValueHolderFactoryESt14default_deleteIS8_EE11get_deleterEv
0000000000061bc0 W _ZNSt10unique_ptrIN7testing8internal11ThreadLocalISt6vectorINS1_9TraceInfoESaIS4_EEE18ValueHolderFactoryESt14default_deleteIS8_EEC1ISA_vEEPS8_
0000000000061bc0 W _ZNSt10unique_ptrIN7testing8internal11ThreadLocalISt6vectorINS1_9TraceInfoESaIS4_EEE18ValueHolderFactoryESt14default_deleteIS8_EEC2ISA_vEEPS8_
0000000000061bea W _ZNSt10unique_ptrIN7testing8internal11ThreadLocalISt6vectorINS1_9TraceInfoESaIS4_EEE18ValueHolderFactoryESt14default_deleteIS8_EED1Ev
0000000000061bea W _ZNSt10unique_ptrIN7testing8internal11ThreadLocalISt6vectorINS1_9TraceInfoESaIS4_EEE18ValueHolderFactoryESt14default_deleteIS8_EED2Ev
000000000005fe9c W _ZNSt10unique_ptrIN7testing8internal14GTestFlagSaverESt14default_deleteIS2_EE11get_deleterEv
0000000000057c76 W _ZNSt10unique_ptrIN7testing8internal14GTestFlagSaverESt14default_deleteIS2_EEC1IS4_vEEPS2_
0000000000057c76 W _ZNSt10unique_ptrIN7testing8internal14GTestFlagSaverESt14default_deleteIS2_EEC2IS4_vEEPS2_
0000000000057ca0 W _ZNSt10unique_ptrIN7testing8internal14GTestFlagSaverESt14default_deleteIS2_EED1Ev
0000000000057ca0 W _ZNSt10unique_ptrIN7testing8internal14GTestFlagSaverESt14default_deleteIS2_EED2Ev
0000000000061a50 W _ZNSt10unique_ptrIN7testing8internal16DeathTestFactoryESt14default_deleteIS2_EE11get_deleterEv
00000000000599bc W _ZNSt10unique_ptrIN7testing8internal16DeathTestFactoryESt14default_deleteIS2_EEC1IS4_vEEPS2_
00000000000599bc W _ZNSt10unique_ptrIN7testing8internal16DeathTestFactoryESt14default_deleteIS2_EEC2IS4_vEEPS2_
00000000000599e6 W _ZNSt10unique_ptrIN7testing8internal16DeathTestFactoryESt14default_deleteIS2_EED1Ev
00000000000599e6 W _ZNSt10unique_ptrIN7testing8internal16DeathTestFactoryESt14default_deleteIS2_EED2Ev
000000000005bbba W _ZNSt10unique_ptrIN7testing8internal17StreamingListener20AbstractSocketWriterESt14default_deleteIS3_EE11get_deleterEv
000000000005229c W _ZNSt10unique_ptrIN7testing8internal17StreamingListener20AbstractSocketWriterESt14default_deleteIS3_EEC1IS5_vEEPS3_
000000000005229c W _ZNSt10unique_ptrIN7testing8internal17StreamingListener20AbstractSocketWriterESt14default_deleteIS3_EEC2IS5_vEEPS3_
00000000000522c6 W _ZNSt10unique_ptrIN7testing8internal17StreamingListener20AbstractSocketWriterESt14default_deleteIS3_EED1Ev
00000000000522c6 W _ZNSt10unique_ptrIN7testing8internal17StreamingListener20AbstractSocketWriterESt14default_deleteIS3_EED2Ev
000000000006199e W _ZNSt10unique_ptrIN7testing8internal24InternalRunDeathTestFlagESt14default_deleteIS2_EE11get_deleterEv
00000000000521fc W _ZNSt10unique_ptrIN7testing8internal24InternalRunDeathTestFlagESt14default_deleteIS2_EE5resetEPS2_
0000000000059900 W _ZNSt10unique_ptrIN7testing8internal24InternalRunDeathTestFlagESt14default_deleteIS2_EEC1IS4_vEEv
0000000000059900 W _ZNSt10unique_ptrIN7testing8internal24InternalRunDeathTestFlagESt14default_deleteIS2_EEC2IS4_vEEv
000000000005992a W _ZNSt10unique_ptrIN7testing8internal24InternalRunDeathTestFlagESt14default_deleteIS2_EED1Ev
000000000005992a W _ZNSt10unique_ptrIN7testing8internal24InternalRunDeathTestFlagESt14default_deleteIS2_EED2Ev
0000000000015b7e W _ZNSt10unique_ptrINSt7__cxx1112basic_stringIcSt11char_traitsIcESaIcEEESt14default_deleteIS5_EE11get_deleterEv
000000000005b81a W _ZNSt10unique_ptrINSt7__cxx1112basic_stringIcSt11char_traitsIcESaIcEEESt14default_deleteIS5_EE4swapERS8_
0000000000051e7a W _ZNSt10unique_ptrINSt7__cxx1112basic_stringIcSt11char_traitsIcESaIcEEESt14default_deleteIS5_EEC1IS7_vEEPS5_
000000000005b8a4 W _ZNSt10unique_ptrINSt7__cxx1112basic_stringIcSt11char_traitsIcESaIcEEESt14default_deleteIS5_EEC1IS7_vEEv
0000000000051e7a W _ZNSt10unique_ptrINSt7__cxx1112basic_stringIcSt11char_traitsIcESaIcEEESt14default_deleteIS5_EEC2IS7_vEEPS5_
000000000005b8a4 W _ZNSt10unique_ptrINSt7__cxx1112basic_stringIcSt11char_traitsIcESaIcEEESt14default_deleteIS5_EEC2IS7_vEEv
0000000000015488 W _ZNSt10unique_ptrINSt7__cxx1112basic_stringIcSt11char_traitsIcESaIcEEESt14default_deleteIS5_EED1Ev
0000000000015488 W _ZNSt10unique_ptrINSt7__cxx1112basic_stringIcSt11char_traitsIcESaIcEEESt14default_deleteIS5_EED2Ev
000000000004b400 W _ZNSt10unique_ptrINSt7__cxx1112basic_stringIcSt11char_traitsIcESaIcEEESt14default_deleteIS5_EEaSEOS8_
0000000000015abe W _ZNSt10unique_ptrINSt7__cxx1118basic_stringstreamIcSt11char_traitsIcESaIcEEESt14default_deleteIS5_EE11get_deleterEv
00000000000512c0 W _ZNSt10unique_ptrINSt7__cxx1118basic_stringstreamIcSt11char_traitsIcESaIcEEESt14default_deleteIS5_EEC1IS7_vEEPS5_
00000000000512c0 W _ZNSt10unique_ptrINSt7__cxx1118basic_stringstreamIcSt11char_traitsIcESaIcEEESt14default_deleteIS5_EEC2IS7_vEEPS5_
00000000000153e0 W _ZNSt10unique_ptrINSt7__cxx1118basic_stringstreamIcSt11char_traitsIcESaIcEEESt14default_deleteIS5_EED1Ev
00000000000153e0 W _ZNSt10unique_ptrINSt7__cxx1118basic_stringstreamIcSt11char_traitsIcESaIcEEESt14default_deleteIS5_EED2Ev
000000000007276e W _ZNSt11_Tuple_implILm0EJPKN7testing8internal11MatcherBaseINSt7__cxx1112basic_stringIcSt11char_traitsIcESaIcEEEEEPKNS1_9EqMatcherIS8_EEEE7_M_headERSG_
0000000000072714 W _ZNSt11_Tuple_implILm0EJPKN7testing8internal11MatcherBaseINSt7__cxx1112basic_stringIcSt11char_traitsIcESaIcEEEEEPKNS1_9EqMatcherIS8_EEEEC1ISB_JSF_EvEEOT_DpOT0_
0000000000072714 W _ZNSt11_Tuple_implILm0EJPKN7testing8internal11MatcherBaseINSt7__cxx1112basic_stringIcSt11char_traitsIcESaIcEEEEEPKNS1_9EqMatcherIS8_EEEEC2ISB_JSF_EvEEOT_DpOT0_
00000000000726f2 W _ZNSt11_Tuple_implILm0EJPKN7testing8internal11MatcherBaseIRKNSt7__cxx1112basic_stringIcSt11char_traitsIcESaIcEEEEEPKNS1_9EqMatcherIS8_EEEE7_M_headERSI_
0000000000072698 W _ZNSt11_Tuple_implILm0EJPKN7testing8internal11MatcherBaseIRKNSt7__cxx1112basic_stringIcSt11char_traitsIcESaIcEEEEEPKNS1_9EqMatcherIS8_EEEEC1ISD_JSH_EvEEOT_DpOT0_
0000000000072698 W _ZNSt11_Tuple_implILm0EJPKN7testing8internal11MatcherBaseIRKNSt7__cxx1112basic_stringIcSt11char_traitsIcESaIcEEEEEPKNS1_9EqMatcherIS8_EEEEC2ISD_JSH_EvEEOT_DpOT0_
00000000000728f6 W _ZNSt11_Tuple_implILm0EJPKN7testing8internal11MatcherBaseIRKSt17basic_string_viewIcSt11char_traitsIcEEEEPKNS1_9EqMatcherINSt7__cxx1112basic_stringIcS5_SaIcEEEEEEE7_M_headERSK_
000000000007289c W _ZNSt11_Tuple_implILm0EJPKN7testing8internal11MatcherBaseIRKSt17basic_string_viewIcSt11char_traitsIcEEEEPKNS1_9EqMatcherINSt7__cxx1112basic_stringIcS5_SaIcEEEEEEEC1ISB_JSJ_EvEEOT_DpOT0_
000000000007289c W _ZNSt11_Tuple_implILm0EJPKN7testing8internal11MatcherBaseIRKSt17basic_string_viewIcSt11char_traitsIcEEEEPKNS1_9EqMatcherINSt7__cxx1112basic_stringIcS5_SaIcEEEEEEEC2ISB_JSJ_EvEEOT_DpOT0_
0000000000072972 W _ZNSt11_Tuple_implILm0EJPKN7testing8internal11MatcherBaseISt17basic_string_viewIcSt11char_traitsIcEEEEPKNS1_9EqMatcherINSt7__cxx1112basic_stringIcS5_SaIcEEEEEEE7_M_headERSI_
0000000000072918 W _ZNSt11_Tuple_implILm0EJPKN7testing8internal11MatcherBaseISt17basic_string_viewIcSt11char_traitsIcEEEEPKNS1_9EqMatcherINSt7__cxx1112basic_stringIcS5_SaIcEEEEEEEC1IS9_JSH_EvEEOT_DpOT0_
0000000000072918 W _ZNSt11_Tuple_implILm0EJPKN7testing8internal11MatcherBaseISt17basic_string_viewIcSt11char_traitsIcEEEEPKNS1_9EqMatcherINSt7__cxx1112basic_stringIcS5_SaIcEEEEEEEC2IS9_JSH_EvEEOT_DpOT0_
000000000006eec7 W _ZNSt11_Tuple_implILm0EJPKNSt7__cxx1112basic_stringIcSt11char_traitsIcESaIcEEESt14default_deleteIS6_EEE7_M_headERKSA_
000000000006e024 W _ZNSt11_Tuple_implILm0EJPKNSt7__cxx1112basic_stringIcSt11char_traitsIcESaIcEEESt14default_deleteIS6_EEE7_M_headERSA_
000000000006b688 W _ZNSt11_Tuple_implILm0EJPKNSt7__cxx1112basic_stringIcSt11char_traitsIcESaIcEEESt14default_deleteIS6_EEEC1Ev
000000000006b688 W _ZNSt11_Tuple_implILm0EJPKNSt7__cxx1112basic_stringIcSt11char_traitsIcESaIcEEESt14default_deleteIS6_EEEC2Ev
0000000000073583 W _ZNSt11_Tuple_implILm0EJPN7testing8internal11ThreadLocalIPNS0_31TestPartResultReporterInterfaceEE18ValueHolderFactoryESt14default_deleteIS6_EEE7_M_headERKSA_
0000000000071146 W _ZNSt11_Tuple_implILm0EJPN7testing8internal11ThreadLocalIPNS0_31TestPartResultReporterInterfaceEE18ValueHolderFactoryESt14default_deleteIS6_EEE7_M_headERSA_
000000000006eb54 W _ZNSt11_Tuple_implILm0EJPN7testing8internal11ThreadLocalIPNS0_31TestPartResultReporterInterfaceEE18ValueHolderFactoryESt14default_deleteIS6_EEEC1Ev
000000000006eb54 W _ZNSt11_Tuple_implILm0EJPN7testing8internal11ThreadLocalIPNS0_31TestPartResultReporterInterfaceEE18ValueHolderFactoryESt14default_deleteIS6_EEEC2Ev
0000000000072679 W _ZNSt11_Tuple_implILm0EJPN7testing8internal11ThreadLocalISt6vectorINS1_9TraceInfoESaIS4_EEE18ValueHolderFactoryESt14default_deleteIS8_EEE7_M_headERKSC_
000000000007120e W _ZNSt11_Tuple_implILm0EJPN7testing8internal11ThreadLocalISt6vectorINS1_9TraceInfoESaIS4_EEE18ValueHolderFactoryESt14default_deleteIS8_EEE7_M_headERSC_
000000000006ec50 W _ZNSt11_Tuple_implILm0EJPN7testing8internal11ThreadLocalISt6vectorINS1_9TraceInfoESaIS4_EEE18ValueHolderFactoryESt14default_deleteIS8_EEEC1Ev
000000000006ec50 W _ZNSt11_Tuple_implILm0EJPN7testing8internal11ThreadLocalISt6vectorINS1_9TraceInfoESaIS4_EEE18ValueHolderFactoryESt14default_deleteIS8_EEEC2Ev
000000000006df72 W _ZNSt11_Tuple_implILm0EJPN7testing8internal14GTestFlagSaverESt14default_deleteIS2_EEE7_M_headERS6_
000000000006b49a W _ZNSt11_Tuple_implILm0EJPN7testing8internal14GTestFlagSaverESt14default_deleteIS2_EEEC1Ev
000000000006b49a W _ZNSt11_Tuple_implILm0EJPN7testing8internal14GTestFlagSaverESt14default_deleteIS2_EEEC2Ev
000000000006c4a7 W _ZNSt11_Tuple_implILm0EJPN7testing8internal16DeathTestFactoryESt14default_deleteIS2_EEE7_M_headERKS6_
000000000006ec14 W _ZNSt11_Tuple_implILm0EJPN7testing8internal16DeathTestFactoryESt14default_deleteIS2_EEE7_M_headERS6_
000000000006c10a W _ZNSt11_Tuple_implILm0EJPN7testing8internal16DeathTestFactoryESt14default_deleteIS2_EEEC1Ev
000000000006c10a W _ZNSt11_Tuple_implILm0EJPN7testing8internal16DeathTestFactoryESt14default_deleteIS2_EEEC2Ev
000000000006ef85 W _ZNSt11_Tuple_implILm0EJPN7testing8internal17StreamingListener20AbstractSocketWriterESt14default_deleteIS3_EEE7_M_headERKS7_
000000000006c500 W _ZNSt11_Tuple_implILm0EJPN7testing8internal17StreamingListener20AbstractSocketWriterESt14default_deleteIS3_EEE7_M_headERS7_
00000000000691b2 W _ZNSt11_Tuple_implILm0EJPN7testing8internal17StreamingListener20AbstractSocketWriterESt14default_deleteIS3_EEEC1Ev
00000000000691b2 W _ZNSt11_Tuple_implILm0EJPN7testing8internal17StreamingListener20AbstractSocketWriterESt14default_deleteIS3_EEEC2Ev
000000000006c489 W _ZNSt11_Tuple_implILm0EJPN7testing8internal24InternalRunDeathTestFlagESt14default_deleteIS2_EEE7_M_headERKS6_
000000000006ebbb W _ZNSt11_Tuple_implILm0EJPN7testing8internal24InternalRunDeathTestFlagESt14default_deleteIS2_EEE7_M_headERS6_
0000000000061954 W _ZNSt11_Tuple_implILm0EJPN7testing8internal24InternalRunDeathTestFlagESt14default_deleteIS2_EEEC1Ev
0000000000061954 W _ZNSt11_Tuple_implILm0EJPN7testing8internal24InternalRunDeathTestFlagESt14default_deleteIS2_EEEC2Ev
00000000000161c6 W _ZNSt11_Tuple_implILm0EJPNSt7__cxx1112basic_stringIcSt11char_traitsIcESaIcEEESt14default_deleteIS5_EEE7_M_headERKS9_
000000000001610a W _ZNSt11_Tuple_implILm0EJPNSt7__cxx1112basic_stringIcSt11char_traitsIcESaIcEEESt14default_deleteIS5_EEE7_M_headERS9_
0000000000062d30 W _ZNSt11_Tuple_implILm0EJPNSt7__cxx1112basic_stringIcSt11char_traitsIcESaIcEEESt14default_deleteIS5_EEEC1Ev
0000000000062d30 W _ZNSt11_Tuple_implILm0EJPNSt7__cxx1112basic_stringIcSt11char_traitsIcESaIcEEESt14default_deleteIS5_EEEC2Ev
000000000006d4c6 W _ZNSt11_Tuple_implILm0EJPNSt7__cxx1118basic_stringstreamIcSt11char_traitsIcESaIcEEESt14default_deleteIS5_EEE7_M_headERKS9_
00000000000160b0 W _ZNSt11_Tuple_implILm0EJPNSt7__cxx1118basic_stringstreamIcSt11char_traitsIcESaIcEEESt14default_deleteIS5_EEE7_M_headERS9_
0000000000068f02 W _ZNSt11_Tuple_implILm0EJPNSt7__cxx1118basic_stringstreamIcSt11char_traitsIcESaIcEEESt14default_deleteIS5_EEEC1Ev
0000000000068f02 W _ZNSt11_Tuple_implILm0EJPNSt7__cxx1118basic_stringstreamIcSt11char_traitsIcESaIcEEESt14default_deleteIS5_EEEC2Ev
000000000006c5e0 W _ZNSt11_Tuple_implILm0EJPPcSt14default_deleteIA_S0_EEE7_M_headERKS5_
000000000006c585 W _ZNSt11_Tuple_implILm0EJPPcSt14default_deleteIA_S0_EEE7_M_headERS5_
000000000006c55a W _ZNSt11_Tuple_implILm0EJPPcSt14default_deleteIA_S0_EEEC1Ev
000000000006c55a W _ZNSt11_Tuple_implILm0EJPPcSt14default_deleteIA_S0_EEEC2Ev
0000000000073fb1 W _ZNSt11_Tuple_implILm0EJRKNSt7__cxx1112basic_stringIcSt11char_traitsIcESaIcEEEEE7_M_headERS8_
0000000000071cf2 W _ZNSt11_Tuple_implILm0EJRKNSt7__cxx1112basic_stringIcSt11char_traitsIcESaIcEEEEEC1EOS8_
0000000000065aea W _ZNSt11_Tuple_implILm0EJRKNSt7__cxx1112basic_stringIcSt11char_traitsIcESaIcEEEEEC1ES7_
0000000000071cf2 W _ZNSt11_Tuple_implILm0EJRKNSt7__cxx1112basic_stringIcSt11char_traitsIcESaIcEEEEEC2EOS8_
0000000000065aea W _ZNSt11_Tuple_implILm0EJRKNSt7__cxx1112basic_stringIcSt11char_traitsIcESaIcEEEEEC2ES7_
0000000000073176 W _ZNSt11_Tuple_implILm1EJPKN7testing8internal9EqMatcherINSt7__cxx1112basic_stringIcSt11char_traitsIcESaIcEEEEEEEC1ISB_EEOT_
0000000000073176 W _ZNSt11_Tuple_implILm1EJPKN7testing8internal9EqMatcherINSt7__cxx1112basic_stringIcSt11char_traitsIcESaIcEEEEEEEC2ISB_EEOT_
000000000006eff0 W _ZNSt11_Tuple_implILm1EJSt14default_deleteIA_PcEEE7_M_headERS4_
000000000006efa4 W _ZNSt11_Tuple_implILm1EJSt14default_deleteIA_PcEEEC1Ev
000000000006efa4 W _ZNSt11_Tuple_implILm1EJSt14default_deleteIA_PcEEEC2Ev
0000000000070557 W _ZNSt11_Tuple_implILm1EJSt14default_deleteIKNSt7__cxx1112basic_stringIcSt11char_traitsIcESaIcEEEEEE7_M_headERS9_
000000000006dfea W _ZNSt11_Tuple_implILm1EJSt14default_deleteIKNSt7__cxx1112basic_stringIcSt11char_traitsIcESaIcEEEEEEC1Ev
000000000006dfea W _ZNSt11_Tuple_implILm1EJSt14default_deleteIKNSt7__cxx1112basic_stringIcSt11char_traitsIcESaIcEEEEEEC2Ev
00000000000724bd W _ZNSt11_Tuple_implILm1EJSt14default_deleteIN7testing8internal11ThreadLocalIPNS1_31TestPartResultReporterInterfaceEE18ValueHolderFactoryEEEE7_M_headERS9_
000000000007110c W _ZNSt11_Tuple_implILm1EJSt14default_deleteIN7testing8internal11ThreadLocalIPNS1_31TestPartResultReporterInterfaceEE18ValueHolderFactoryEEEEC1Ev
000000000007110c W _ZNSt11_Tuple_implILm1EJSt14default_deleteIN7testing8internal11ThreadLocalIPNS1_31TestPartResultReporterInterfaceEE18ValueHolderFactoryEEEEC2Ev
000000000007250f W _ZNSt11_Tuple_implILm1EJSt14default_deleteIN7testing8internal11ThreadLocalISt6vectorINS2_9TraceInfoESaIS5_EEE18ValueHolderFactoryEEEE7_M_headERSB_
00000000000711d4 W _ZNSt11_Tuple_implILm1EJSt14default_deleteIN7testing8internal11ThreadLocalISt6vectorINS2_9TraceInfoESaIS5_EEE18ValueHolderFactoryEEEEC1Ev
00000000000711d4 W _ZNSt11_Tuple_implILm1EJSt14default_deleteIN7testing8internal11ThreadLocalISt6vectorINS2_9TraceInfoESaIS5_EEE18ValueHolderFactoryEEEEC2Ev
0000000000070517 W _ZNSt11_Tuple_implILm1EJSt14default_deleteIN7testing8internal14GTestFlagSaverEEEE7_M_headERS5_
000000000006df38 W _ZNSt11_Tuple_implILm1EJSt14default_deleteIN7testing8internal14GTestFlagSaverEEEEC1Ev
000000000006df38 W _ZNSt11_Tuple_implILm1EJSt14default_deleteIN7testing8internal14GTestFlagSaverEEEEC2Ev
00000000000711b5 W _ZNSt11_Tuple_implILm1EJSt14default_deleteIN7testing8internal16DeathTestFactoryEEEE7_M_headERS5_
000000000006ebda W _ZNSt11_Tuple_implILm1EJSt14default_deleteIN7testing8internal16DeathTestFactoryEEEEC1Ev
000000000006ebda W _ZNSt11_Tuple_implILm1EJSt14default_deleteIN7testing8internal16DeathTestFactoryEEEEC2Ev
000000000006ef67 W _ZNSt11_Tuple_implILm1EJSt14default_deleteIN7testing8internal17StreamingListener20AbstractSocketWriterEEEE7_M_headERS6_
000000000006c4c6 W _ZNSt11_Tuple_implILm1EJSt14default_deleteIN7testing8internal17StreamingListener20AbstractSocketWriterEEEEC1Ev
000000000006c4c6 W _ZNSt11_Tuple_implILm1EJSt14default_deleteIN7testing8internal17StreamingListener20AbstractSocketWriterEEEEC2Ev
000000000006ef03 W _ZNSt11_Tuple_implILm1EJSt14default_deleteIN7testing8internal24InternalRunDeathTestFlagEEEE7_M_headERS5_
00000000000684be W _ZNSt11_Tuple_implILm1EJSt14default_deleteIN7testing8internal24InternalRunDeathTestFlagEEEEC1Ev
00000000000684be W _ZNSt11_Tuple_implILm1EJSt14default_deleteIN7testing8internal24InternalRunDeathTestFlagEEEEC2Ev
0000000000016128 W _ZNSt11_Tuple_implILm1EJSt14default_deleteINSt7__cxx1112basic_stringIcSt11char_traitsIcESaIcEEEEEE7_M_headERS8_
0000000000069100 W _ZNSt11_Tuple_implILm1EJSt14default_deleteINSt7__cxx1112basic_stringIcSt11char_traitsIcESaIcEEEEEEC1Ev
0000000000069100 W _ZNSt11_Tuple_implILm1EJSt14default_deleteINSt7__cxx1112basic_stringIcSt11char_traitsIcESaIcEEEEEEC2Ev
00000000000161a8 W _ZNSt11_Tuple_implILm1EJSt14default_deleteINSt7__cxx1118basic_stringstreamIcSt11char_traitsIcESaIcEEEEEE7_M_headERS8_
000000000006c3d0 W _ZNSt11_Tuple_implILm1EJSt14default_deleteINSt7__cxx1118basic_stringstreamIcSt11char_traitsIcESaIcEEEEEEC1Ev
000000000006c3d0 W _ZNSt11_Tuple_implILm1EJSt14default_deleteINSt7__cxx1118basic_stringstreamIcSt11char_traitsIcESaIcEEEEEEC2Ev
000000000006b1a0 W _ZNSt11__alloc_neqISaISt10_List_nodeISt4pairIcPKcEEELb1EE8_S_do_itERKS6_S9_
00000000000749f2 W _ZNSt11__copy_moveILb0ELb1ESt26random_access_iterator_tagE8__copy_mIN7testing8internal13edit_distance8EditTypeEEEPT_PKS7_SA_S8_
000000000007498f W _ZNSt11__copy_moveILb0ELb1ESt26random_access_iterator_tagE8__copy_mIdEEPT_PKS3_S6_S4_
000000000006d1c7 W _ZNSt11__copy_moveILb1ELb0ESt26random_access_iterator_tagE8__copy_mIPNSt7__cxx1112basic_stringIcSt11char_traitsIcESaIcEEESt15insert_iteratorISt13unordered_setIS8_St4hashIS8_ESt8equal_toIS8_ESaIS8_EEEEET0_T_SK_SJ_
000000000006d147 W _ZNSt11__copy_moveILb1ELb0ESt26random_access_iterator_tagE8__copy_mIPNSt7__cxx1112basic_stringIcSt11char_traitsIcESaIcEEESt15insert_iteratorISt6vectorIS8_SaIS8_EEEEET0_T_SG_SF_
00000000000723a0 W _ZNSt11__copy_moveILb1ELb1ESt26random_access_iterator_tagE8__copy_mIPN7testing17TestEventListenerEEEPT_PKS6_S9_S7_
0000000000073837 W _ZNSt11__copy_moveILb1ELb1ESt26random_access_iterator_tagE8__copy_mIPN7testing8TestInfoEEEPT_PKS6_S9_S7_
000000000004a522 W _ZNSt11char_traitsIDiE2eqERKDiS2_
000000000004a545 W _ZNSt11char_traitsIDiE6lengthEPKDi
000000000004a489 W _ZNSt11char_traitsIDsE2eqERKDsS2_
000000000004a4af W _ZNSt11char_traitsIDsE6lengthEPKDs
000000000004a322 W _ZNSt11char_traitsIcE2ltERKcS2_
000000000004a40d W _ZNSt11char_traitsIcE6lengthEPKc
000000000004a349 W _ZNSt11char_traitsIcE7compareEPKcS2_m
000000000004a44b W _ZNSt11char_traitsIwE6lengthEPKw
000000000006b2c8 W _ZNSt12_Destroy_auxILb0EE9__destroyIPN7testing12TestPropertyEEEvT_S5_
000000000006b256 W _ZNSt12_Destroy_auxILb0EE9__destroyIPN7testing14TestPartResultEEEvT_S5_
000000000006ead9 W _ZNSt12_Destroy_auxILb0EE9__destroyIPN7testing8internal9TraceInfoEEEvT_S6_
0000000000069293 W _ZNSt12_Destroy_auxILb0EE9__destroyIPNSt7__cxx1112basic_stringIcSt11char_traitsIcESaIcEEEEEvT_S9_
000000000006a682 W _ZNSt12_Destroy_auxILb0EE9__destroyIPSt6vectorIN7testing8internal13edit_distance8EditTypeESaIS6_EEEEvT_SA_
000000000006a4e4 W _ZNSt12_Destroy_auxILb0EE9__destroyIPSt6vectorIdSaIdEEEEvT_S6_
000000000006a56c W _ZNSt12_Destroy_auxILb1EE9__destroyIPN7testing8internal13edit_distance8EditTypeEEEvT_S7_
000000000006c04b W _ZNSt12_Destroy_auxILb1EE9__destroyIPPN7testing11EnvironmentEEEvT_S6_
000000000006bcf1 W _ZNSt12_Destroy_auxILb1EE9__destroyIPPN7testing17TestEventListenerEEEvT_S6_
000000000006b725 W _ZNSt12_Destroy_auxILb1EE9__destroyIPPN7testing8TestInfoEEEvT_S6_
0000000000068fe6 W _ZNSt12_Destroy_auxILb1EE9__destroyIPPN7testing8internal30ParameterizedTestSuiteInfoBaseEEEvT_S7_
000000000006c093 W _ZNSt12_Destroy_auxILb1EE9__destroyIPPN7testing9TestSuiteEEEvT_S6_
000000000006a3ce W _ZNSt12_Destroy_auxILb1EE9__destroyIPdEEvT_S3_
000000000006b76d W _ZNSt12_Destroy_auxILb1EE9__destroyIPiEEvT_S3_
000000000006ad35 W _ZNSt12_Destroy_auxILb1EE9__destroyIPmEEvT_S3_
0000000000066cce W _ZNSt12_Vector_baseIN7testing12TestPropertyESaIS1_EE11_M_allocateEm
0000000000057514 W _ZNSt12_Vector_baseIN7testing12TestPropertyESaIS1_EE12_Vector_implC1Ev
0000000000057514 W _ZNSt12_Vector_baseIN7testing12TestPropertyESaIS1_EE12_Vector_implC2Ev
00000000000501f4 W _ZNSt12_Vector_baseIN7testing12TestPropertyESaIS1_EE12_Vector_implD1Ev
00000000000501f4 W _ZNSt12_Vector_baseIN7testing12TestPropertyESaIS1_EE12_Vector_implD2Ev
000000000005f5a6 W _ZNSt12_Vector_baseIN7testing12TestPropertyESaIS1_EE13_M_deallocateEPS1_m
000000000005f564 W _ZNSt12_Vector_baseIN7testing12TestPropertyESaIS1_EE17_Vector_impl_dataC1Ev
000000000005f564 W _ZNSt12_Vector_baseIN7testing12TestPropertyESaIS1_EE17_Vector_impl_dataC2Ev
000000000005f5e0 W _ZNSt12_Vector_baseIN7testing12TestPropertyESaIS1_EE19_M_get_Tp_allocatorEv
0000000000050214 W _ZNSt12_Vector_baseIN7testing12TestPropertyESaIS1_EEC1Ev
0000000000050214 W _ZNSt12_Vector_baseIN7testing12TestPropertyESaIS1_EEC2Ev
0000000000057560 W _ZNSt12_Vector_baseIN7testing12TestPropertyESaIS1_EED1Ev
0000000000057560 W _ZNSt12_Vector_baseIN7testing12TestPropertyESaIS1_EED2Ev
0000000000063874 W _ZNSt12_Vector_baseIN7testing14TestPartResultESaIS1_EE11_M_allocateEm
000000000005741e W _ZNSt12_Vector_baseIN7testing14TestPartResultESaIS1_EE12_Vector_implC1Ev
000000000005741e W _ZNSt12_Vector_baseIN7testing14TestPartResultESaIS1_EE12_Vector_implC2Ev
0000000000050194 W _ZNSt12_Vector_baseIN7testing14TestPartResultESaIS1_EE12_Vector_implD1Ev
0000000000050194 W _ZNSt12_Vector_baseIN7testing14TestPartResultESaIS1_EE12_Vector_implD2Ev
000000000005f4ca W _ZNSt12_Vector_baseIN7testing14TestPartResultESaIS1_EE13_M_deallocateEPS1_m
000000000005f488 W _ZNSt12_Vector_baseIN7testing14TestPartResultESaIS1_EE17_Vector_impl_dataC1Ev
000000000005f488 W _ZNSt12_Vector_baseIN7testing14TestPartResultESaIS1_EE17_Vector_impl_dataC2Ev
000000000005f504 W _ZNSt12_Vector_baseIN7testing14TestPartResultESaIS1_EE19_M_get_Tp_allocatorEv
00000000000501b4 W _ZNSt12_Vector_baseIN7testing14TestPartResultESaIS1_EEC1Ev
00000000000501b4 W _ZNSt12_Vector_baseIN7testing14TestPartResultESaIS1_EEC2Ev
000000000005746a W _ZNSt12_Vector_baseIN7testing14TestPartResultESaIS1_EED1Ev
000000000005746a W _ZNSt12_Vector_baseIN7testing14TestPartResultESaIS1_EED2Ev
0000000000065794 W _ZNSt12_Vector_baseIN7testing8internal13edit_distance8EditTypeESaIS3_EE11_M_allocateEm
0000000000065330 W _ZNSt12_Vector_baseIN7testing8internal13edit_distance8EditTypeESaIS3_EE12_Vector_implC1ERKS4_
0000000000055920 W _ZNSt12_Vector_baseIN7testing8internal13edit_distance8EditTypeESaIS3_EE12_Vector_implC1Ev
0000000000065330 W _ZNSt12_Vector_baseIN7testing8internal13edit_distance8EditTypeESaIS3_EE12_Vector_implC2ERKS4_
0000000000055920 W _ZNSt12_Vector_baseIN7testing8internal13edit_distance8EditTypeESaIS3_EE12_Vector_implC2Ev
000000000004ff26 W _ZNSt12_Vector_baseIN7testing8internal13edit_distance8EditTypeESaIS3_EE12_Vector_implD1Ev
000000000004ff26 W _ZNSt12_Vector_baseIN7testing8internal13edit_distance8EditTypeESaIS3_EE12_Vector_implD2Ev
000000000005e4d4 W _ZNSt12_Vector_baseIN7testing8internal13edit_distance8EditTypeESaIS3_EE13_M_deallocateEPS3_m
0000000000065366 W _ZNSt12_Vector_baseIN7testing8internal13edit_distance8EditTypeESaIS3_EE17_M_create_storageEm
000000000005e4a2 W _ZNSt12_Vector_baseIN7testing8internal13edit_distance8EditTypeESaIS3_EE17_Vector_impl_dataC1Ev
000000000005e4a2 W _ZNSt12_Vector_baseIN7testing8internal13edit_distance8EditTypeESaIS3_EE17_Vector_impl_dataC2Ev
000000000005e24a W _ZNSt12_Vector_baseIN7testing8internal13edit_distance8EditTypeESaIS3_EE19_M_get_Tp_allocatorEv
000000000005e1a0 W _ZNSt12_Vector_baseIN7testing8internal13edit_distance8EditTypeESaIS3_EEC1EmRKS4_
000000000004ff46 W _ZNSt12_Vector_baseIN7testing8internal13edit_distance8EditTypeESaIS3_EEC1Ev
000000000005e1a0 W _ZNSt12_Vector_baseIN7testing8internal13edit_distance8EditTypeESaIS3_EEC2EmRKS4_
000000000004ff46 W _ZNSt12_Vector_baseIN7testing8internal13edit_distance8EditTypeESaIS3_EEC2Ev
000000000005594c W _ZNSt12_Vector_baseIN7testing8internal13edit_distance8EditTypeESaIS3_EED1Ev
000000000005594c W _ZNSt12_Vector_baseIN7testing8internal13edit_distance8EditTypeESaIS3_EED2Ev
000000000006817a W _ZNSt12_Vector_baseIN7testing8internal9TraceInfoESaIS2_EE11_M_allocateEm
00000000000759aa W _ZNSt12_Vector_baseIN7testing8internal9TraceInfoESaIS2_EE12_Vector_implC1Ev
00000000000759aa W _ZNSt12_Vector_baseIN7testing8internal9TraceInfoESaIS2_EE12_Vector_implC2Ev
00000000000758b0 W _ZNSt12_Vector_baseIN7testing8internal9TraceInfoESaIS2_EE12_Vector_implD1Ev
00000000000758b0 W _ZNSt12_Vector_baseIN7testing8internal9TraceInfoESaIS2_EE12_Vector_implD2Ev
000000000006823a W _ZNSt12_Vector_baseIN7testing8internal9TraceInfoESaIS2_EE13_M_deallocateEPS2_m
0000000000075ac0 W _ZNSt12_Vector_baseIN7testing8internal9TraceInfoESaIS2_EE17_Vector_impl_dataC1Ev
0000000000075ac0 W _ZNSt12_Vector_baseIN7testing8internal9TraceInfoESaIS2_EE17_Vector_impl_dataC2Ev
00000000000681fa W _ZNSt12_Vector_baseIN7testing8internal9TraceInfoESaIS2_EE19_M_get_Tp_allocatorEv
00000000000758d0 W _ZNSt12_Vector_baseIN7testing8internal9TraceInfoESaIS2_EEC1Ev
00000000000758d0 W _ZNSt12_Vector_baseIN7testing8internal9TraceInfoESaIS2_EEC2Ev
00000000000759f6 W _ZNSt12_Vector_baseIN7testing8internal9TraceInfoESaIS2_EED1Ev
00000000000759f6 W _ZNSt12_Vector_baseIN7testing8internal9TraceInfoESaIS2_EED2Ev
000000000005d564 W _ZNSt12_Vector_baseINSt7__cxx1112basic_stringIcSt11char_traitsIcESaIcEEESaIS5_EE11_M_allocateEm
0000000000063400 W _ZNSt12_Vector_baseINSt7__cxx1112basic_stringIcSt11char_traitsIcESaIcEEESaIS5_EE12_Vector_implC1ERKS6_
0000000000052fba W _ZNSt12_Vector_baseINSt7__cxx1112basic_stringIcSt11char_traitsIcESaIcEEESaIS5_EE12_Vector_implC1Ev
0000000000063400 W _ZNSt12_Vector_baseINSt7__cxx1112basic_stringIcSt11char_traitsIcESaIcEEESaIS5_EE12_Vector_implC2ERKS6_
0000000000052fba W _ZNSt12_Vector_baseINSt7__cxx1112basic_stringIcSt11char_traitsIcESaIcEEESaIS5_EE12_Vector_implC2Ev
000000000004f4ee W _ZNSt12_Vector_baseINSt7__cxx1112basic_stringIcSt11char_traitsIcESaIcEEESaIS5_EE12_Vector_implD1Ev
000000000004f4ee W _ZNSt12_Vector_baseINSt7__cxx1112basic_stringIcSt11char_traitsIcESaIcEEESaIS5_EE12_Vector_implD2Ev
000000000005be90 W _ZNSt12_Vector_baseINSt7__cxx1112basic_stringIcSt11char_traitsIcESaIcEEESaIS5_EE13_M_deallocateEPS5_m
0000000000063436 W _ZNSt12_Vector_baseINSt7__cxx1112basic_stringIcSt11char_traitsIcESaIcEEESaIS5_EE17_M_create_storageEm
0000000000064eda W _ZNSt12_Vector_baseINSt7__cxx1112basic_stringIcSt11char_traitsIcESaIcEEESaIS5_EE17_Vector_impl_data12_M_copy_dataERKS8_
000000000005dc14 W _ZNSt12_Vector_baseINSt7__cxx1112basic_stringIcSt11char_traitsIcESaIcEEESaIS5_EE17_Vector_impl_data12_M_swap_dataERS8_
000000000005c174 W _ZNSt12_Vector_baseINSt7__cxx1112basic_stringIcSt11char_traitsIcESaIcEEESaIS5_EE17_Vector_impl_dataC1Ev
000000000005c174 W _ZNSt12_Vector_baseINSt7__cxx1112basic_stringIcSt11char_traitsIcESaIcEEESaIS5_EE17_Vector_impl_dataC2Ev
000000000005be16 W _ZNSt12_Vector_baseINSt7__cxx1112basic_stringIcSt11char_traitsIcESaIcEEESaIS5_EE19_M_get_Tp_allocatorEv
000000000005c590 W _ZNSt12_Vector_baseINSt7__cxx1112basic_stringIcSt11char_traitsIcESaIcEEESaIS5_EEC1ERKS6_
000000000005c4c4 W _ZNSt12_Vector_baseINSt7__cxx1112basic_stringIcSt11char_traitsIcESaIcEEESaIS5_EEC1EmRKS6_
000000000004f554 W _ZNSt12_Vector_baseINSt7__cxx1112basic_stringIcSt11char_traitsIcESaIcEEESaIS5_EEC1Ev
000000000005c590 W _ZNSt12_Vector_baseINSt7__cxx1112basic_stringIcSt11char_traitsIcESaIcEEESaIS5_EEC2ERKS6_
000000000005c4c4 W _ZNSt12_Vector_baseINSt7__cxx1112basic_stringIcSt11char_traitsIcESaIcEEESaIS5_EEC2EmRKS6_
000000000004f554 W _ZNSt12_Vector_baseINSt7__cxx1112basic_stringIcSt11char_traitsIcESaIcEEESaIS5_EEC2Ev
0000000000052d74 W _ZNSt12_Vector_baseINSt7__cxx1112basic_stringIcSt11char_traitsIcESaIcEEESaIS5_EED1Ev
0000000000052d74 W _ZNSt12_Vector_baseINSt7__cxx1112basic_stringIcSt11char_traitsIcESaIcEEESaIS5_EED2Ev
0000000000067e3e W _ZNSt12_Vector_baseIPN7testing11EnvironmentESaIS2_EE11_M_allocateEm
000000000005959c W _ZNSt12_Vector_baseIPN7testing11EnvironmentESaIS2_EE12_Vector_implC1Ev
000000000005959c W _ZNSt12_Vector_baseIPN7testing11EnvironmentESaIS2_EE12_Vector_implC2Ev
000000000005098e W _ZNSt12_Vector_baseIPN7testing11EnvironmentESaIS2_EE12_Vector_implD1Ev
000000000005098e W _ZNSt12_Vector_baseIPN7testing11EnvironmentESaIS2_EE12_Vector_implD2Ev
00000000000616aa W _ZNSt12_Vector_baseIPN7testing11EnvironmentESaIS2_EE13_M_deallocateEPS2_m
0000000000061668 W _ZNSt12_Vector_baseIPN7testing11EnvironmentESaIS2_EE17_Vector_impl_dataC1Ev
0000000000061668 W _ZNSt12_Vector_baseIPN7testing11EnvironmentESaIS2_EE17_Vector_impl_dataC2Ev
00000000000616e4 W _ZNSt12_Vector_baseIPN7testing11EnvironmentESaIS2_EE19_M_get_Tp_allocatorEv
00000000000509ae W _ZNSt12_Vector_baseIPN7testing11EnvironmentESaIS2_EEC1Ev
00000000000509ae W _ZNSt12_Vector_baseIPN7testing11EnvironmentESaIS2_EEC2Ev
00000000000595e8 W _ZNSt12_Vector_baseIPN7testing11EnvironmentESaIS2_EED1Ev
00000000000595e8 W _ZNSt12_Vector_baseIPN7testing11EnvironmentESaIS2_EED2Ev
0000000000067b5c W _ZNSt12_Vector_baseIPN7testing17TestEventListenerESaIS2_EE11_M_allocateEm
0000000000058b62 W _ZNSt12_Vector_baseIPN7testing17TestEventListenerESaIS2_EE12_Vector_implC1Ev
0000000000058b62 W _ZNSt12_Vector_baseIPN7testing17TestEventListenerESaIS2_EE12_Vector_implC2Ev
0000000000050512 W _ZNSt12_Vector_baseIPN7testing17TestEventListenerESaIS2_EE12_Vector_implD1Ev
0000000000050512 W _ZNSt12_Vector_baseIPN7testing17TestEventListenerESaIS2_EE12_Vector_implD2Ev
00000000000607a4 W _ZNSt12_Vector_baseIPN7testing17TestEventListenerESaIS2_EE13_M_deallocateEPS2_m
0000000000060762 W _ZNSt12_Vector_baseIPN7testing17TestEventListenerESaIS2_EE17_Vector_impl_dataC1Ev
0000000000060762 W _ZNSt12_Vector_baseIPN7testing17TestEventListenerESaIS2_EE17_Vector_impl_dataC2Ev
00000000000607de W _ZNSt12_Vector_baseIPN7testing17TestEventListenerESaIS2_EE19_M_get_Tp_allocatorEv
0000000000050532 W _ZNSt12_Vector_baseIPN7testing17TestEventListenerESaIS2_EEC1Ev
0000000000050532 W _ZNSt12_Vector_baseIPN7testing17TestEventListenerESaIS2_EEC2Ev
0000000000058bae W _ZNSt12_Vector_baseIPN7testing17TestEventListenerESaIS2_EED1Ev
0000000000058bae W _ZNSt12_Vector_baseIPN7testing17TestEventListenerESaIS2_EED2Ev
00000000000673fa W _ZNSt12_Vector_baseIPN7testing8TestInfoESaIS2_EE11_M_allocateEm
0000000000058524 W _ZNSt12_Vector_baseIPN7testing8TestInfoESaIS2_EE12_Vector_implC1Ev
0000000000058524 W _ZNSt12_Vector_baseIPN7testing8TestInfoESaIS2_EE12_Vector_implC2Ev
00000000000502b8 W _ZNSt12_Vector_baseIPN7testing8TestInfoESaIS2_EE12_Vector_implD1Ev
00000000000502b8 W _ZNSt12_Vector_baseIPN7testing8TestInfoESaIS2_EE12_Vector_implD2Ev
000000000006024c W _ZNSt12_Vector_baseIPN7testing8TestInfoESaIS2_EE13_M_deallocateEPS2_m
000000000006020a W _ZNSt12_Vector_baseIPN7testing8TestInfoESaIS2_EE17_Vector_impl_dataC1Ev
000000000006020a W _ZNSt12_Vector_baseIPN7testing8TestInfoESaIS2_EE17_Vector_impl_dataC2Ev
0000000000060286 W _ZNSt12_Vector_baseIPN7testing8TestInfoESaIS2_EE19_M_get_Tp_allocatorEv
00000000000502d8 W _ZNSt12_Vector_baseIPN7testing8TestInfoESaIS2_EEC1Ev
00000000000502d8 W _ZNSt12_Vector_baseIPN7testing8TestInfoESaIS2_EEC2Ev
0000000000058570 W _ZNSt12_Vector_baseIPN7testing8TestInfoESaIS2_EED1Ev
0000000000058570 W _ZNSt12_Vector_baseIPN7testing8TestInfoESaIS2_EED2Ev
0000000000059768 W _ZNSt12_Vector_baseIPN7testing8internal30ParameterizedTestSuiteInfoBaseESaIS3_EE12_Vector_implC1Ev
0000000000059768 W _ZNSt12_Vector_baseIPN7testing8internal30ParameterizedTestSuiteInfoBaseESaIS3_EE12_Vector_implC2Ev
0000000000050a4e W _ZNSt12_Vector_baseIPN7testing8internal30ParameterizedTestSuiteInfoBaseESaIS3_EE12_Vector_implD1Ev
0000000000050a4e W _ZNSt12_Vector_baseIPN7testing8internal30ParameterizedTestSuiteInfoBaseESaIS3_EE12_Vector_implD2Ev
0000000000061862 W _ZNSt12_Vector_baseIPN7testing8internal30ParameterizedTestSuiteInfoBaseESaIS3_EE13_M_deallocateEPS3_m
0000000000061820 W _ZNSt12_Vector_baseIPN7testing8internal30ParameterizedTestSuiteInfoBaseESaIS3_EE17_Vector_impl_dataC1Ev
0000000000061820 W _ZNSt12_Vector_baseIPN7testing8internal30ParameterizedTestSuiteInfoBaseESaIS3_EE17_Vector_impl_dataC2Ev
000000000005b728 W _ZNSt12_Vector_baseIPN7testing8internal30ParameterizedTestSuiteInfoBaseESaIS3_EE19_M_get_Tp_allocatorEv
0000000000050a6e W _ZNSt12_Vector_baseIPN7testing8internal30ParameterizedTestSuiteInfoBaseESaIS3_EEC1Ev
0000000000050a6e W _ZNSt12_Vector_baseIPN7testing8internal30ParameterizedTestSuiteInfoBaseESaIS3_EEC2Ev
00000000000597b4 W _ZNSt12_Vector_baseIPN7testing8internal30ParameterizedTestSuiteInfoBaseESaIS3_EED1Ev
00000000000597b4 W _ZNSt12_Vector_baseIPN7testing8internal30ParameterizedTestSuiteInfoBaseESaIS3_EED2Ev
0000000000068d42 W _ZNSt12_Vector_baseIPN7testing9TestSuiteESaIS2_EE11_M_allocateEm
0000000000059682 W _ZNSt12_Vector_baseIPN7testing9TestSuiteESaIS2_EE12_Vector_implC1Ev
0000000000059682 W _ZNSt12_Vector_baseIPN7testing9TestSuiteESaIS2_EE12_Vector_implC2Ev
00000000000509ee W _ZNSt12_Vector_baseIPN7testing9TestSuiteESaIS2_EE12_Vector_implD1Ev
00000000000509ee W _ZNSt12_Vector_baseIPN7testing9TestSuiteESaIS2_EE12_Vector_implD2Ev
0000000000061786 W _ZNSt12_Vector_baseIPN7testing9TestSuiteESaIS2_EE13_M_deallocateEPS2_m
0000000000061744 W _ZNSt12_Vector_baseIPN7testing9TestSuiteESaIS2_EE17_Vector_impl_dataC1Ev
0000000000061744 W _ZNSt12_Vector_baseIPN7testing9TestSuiteESaIS2_EE17_Vector_impl_dataC2Ev
00000000000617c0 W _ZNSt12_Vector_baseIPN7testing9TestSuiteESaIS2_EE19_M_get_Tp_allocatorEv
0000000000050a0e W _ZNSt12_Vector_baseIPN7testing9TestSuiteESaIS2_EEC1Ev
0000000000050a0e W _ZNSt12_Vector_baseIPN7testing9TestSuiteESaIS2_EEC2Ev
00000000000596ce W _ZNSt12_Vector_baseIPN7testing9TestSuiteESaIS2_EED1Ev
00000000000596ce W _ZNSt12_Vector_baseIPN7testing9TestSuiteESaIS2_EED2Ev
000000000006a5e4 W _ZNSt12_Vector_baseISt6vectorIN7testing8internal13edit_distance8EditTypeESaIS4_EESaIS6_EE11_M_allocateEm
00000000000654aa W _ZNSt12_Vector_baseISt6vectorIN7testing8internal13edit_distance8EditTypeESaIS4_EESaIS6_EE12_Vector_implC1ERKS7_
00000000000654aa W _ZNSt12_Vector_baseISt6vectorIN7testing8internal13edit_distance8EditTypeESaIS4_EESaIS6_EE12_Vector_implC2ERKS7_
000000000005e330 W _ZNSt12_Vector_baseISt6vectorIN7testing8internal13edit_distance8EditTypeESaIS4_EESaIS6_EE12_Vector_implD1Ev
000000000005e330 W _ZNSt12_Vector_baseISt6vectorIN7testing8internal13edit_distance8EditTypeESaIS4_EESaIS6_EE12_Vector_implD2Ev
0000000000065544 W _ZNSt12_Vector_baseISt6vectorIN7testing8internal13edit_distance8EditTypeESaIS4_EESaIS6_EE13_M_deallocateEPS6_m
00000000000654e0 W _ZNSt12_Vector_baseISt6vectorIN7testing8internal13edit_distance8EditTypeESaIS4_EESaIS6_EE17_M_create_storageEm
000000000006a5b2 W _ZNSt12_Vector_baseISt6vectorIN7testing8internal13edit_distance8EditTypeESaIS4_EESaIS6_EE17_Vector_impl_dataC1Ev
000000000006a5b2 W _ZNSt12_Vector_baseISt6vectorIN7testing8internal13edit_distance8EditTypeESaIS4_EESaIS6_EE17_Vector_impl_dataC2Ev
000000000005e462 W _ZNSt12_Vector_baseISt6vectorIN7testing8internal13edit_distance8EditTypeESaIS4_EESaIS6_EE19_M_get_Tp_allocatorEv
000000000005e350 W _ZNSt12_Vector_baseISt6vectorIN7testing8internal13edit_distance8EditTypeESaIS4_EESaIS6_EEC1EmRKS7_
000000000005e350 W _ZNSt12_Vector_baseISt6vectorIN7testing8internal13edit_distance8EditTypeESaIS4_EESaIS6_EEC2EmRKS7_
000000000005e3b6 W _ZNSt12_Vector_baseISt6vectorIN7testing8internal13edit_distance8EditTypeESaIS4_EESaIS6_EED1Ev
000000000005e3b6 W _ZNSt12_Vector_baseISt6vectorIN7testing8internal13edit_distance8EditTypeESaIS4_EESaIS6_EED2Ev
000000000006a446 W _ZNSt12_Vector_baseISt6vectorIdSaIdEESaIS2_EE11_M_allocateEm
0000000000065194 W _ZNSt12_Vector_baseISt6vectorIdSaIdEESaIS2_EE12_Vector_implC1ERKS3_
0000000000065194 W _ZNSt12_Vector_baseISt6vectorIdSaIdEESaIS2_EE12_Vector_implC2ERKS3_
000000000005df88 W _ZNSt12_Vector_baseISt6vectorIdSaIdEESaIS2_EE12_Vector_implD1Ev
000000000005df88 W _ZNSt12_Vector_baseISt6vectorIdSaIdEESaIS2_EE12_Vector_implD2Ev
000000000006522e W _ZNSt12_Vector_baseISt6vectorIdSaIdEESaIS2_EE13_M_deallocateEPS2_m
00000000000651ca W _ZNSt12_Vector_baseISt6vectorIdSaIdEESaIS2_EE17_M_create_storageEm
000000000006a414 W _ZNSt12_Vector_baseISt6vectorIdSaIdEESaIS2_EE17_Vector_impl_dataC1Ev
000000000006a414 W _ZNSt12_Vector_baseISt6vectorIdSaIdEESaIS2_EE17_Vector_impl_dataC2Ev
000000000005e0ba W _ZNSt12_Vector_baseISt6vectorIdSaIdEESaIS2_EE19_M_get_Tp_allocatorEv
000000000005dfa8 W _ZNSt12_Vector_baseISt6vectorIdSaIdEESaIS2_EEC1EmRKS3_
000000000005dfa8 W _ZNSt12_Vector_baseISt6vectorIdSaIdEESaIS2_EEC2EmRKS3_
000000000005e00e W _ZNSt12_Vector_baseISt6vectorIdSaIdEESaIS2_EED1Ev
000000000005e00e W _ZNSt12_Vector_baseISt6vectorIdSaIdEESaIS2_EED2Ev
000000000006a338 W _ZNSt12_Vector_baseIdSaIdEE11_M_allocateEm
0000000000064fe0 W _ZNSt12_Vector_baseIdSaIdEE12_Vector_implC1ERKS0_
0000000000064fe0 W _ZNSt12_Vector_baseIdSaIdEE12_Vector_implC2ERKS0_
000000000005dd86 W _ZNSt12_Vector_baseIdSaIdEE12_Vector_implD1Ev
000000000005dd86 W _ZNSt12_Vector_baseIdSaIdEE12_Vector_implD2Ev
0000000000065070 W _ZNSt12_Vector_baseIdSaIdEE13_M_deallocateEPdm
0000000000065016 W _ZNSt12_Vector_baseIdSaIdEE17_M_create_storageEm
000000000006a306 W _ZNSt12_Vector_baseIdSaIdEE17_Vector_impl_dataC1Ev
000000000006a306 W _ZNSt12_Vector_baseIdSaIdEE17_Vector_impl_dataC2Ev
000000000005dea2 W _ZNSt12_Vector_baseIdSaIdEE19_M_get_Tp_allocatorEv
000000000005dda6 W _ZNSt12_Vector_baseIdSaIdEEC1EmRKS0_
000000000005dda6 W _ZNSt12_Vector_baseIdSaIdEEC2EmRKS0_
000000000005de0c W _ZNSt12_Vector_baseIdSaIdEED1Ev
000000000005de0c W _ZNSt12_Vector_baseIdSaIdEED2Ev
000000000006b9ee W _ZNSt12_Vector_baseIiSaIiEE11_M_allocateEm
000000000005860a W _ZNSt12_Vector_baseIiSaIiEE12_Vector_implC1Ev
000000000005860a W _ZNSt12_Vector_baseIiSaIiEE12_Vector_implC2Ev
0000000000050318 W _ZNSt12_Vector_baseIiSaIiEE12_Vector_implD1Ev
0000000000050318 W _ZNSt12_Vector_baseIiSaIiEE12_Vector_implD2Ev
0000000000060328 W _ZNSt12_Vector_baseIiSaIiEE13_M_deallocateEPim
00000000000602e6 W _ZNSt12_Vector_baseIiSaIiEE17_Vector_impl_dataC1Ev
00000000000602e6 W _ZNSt12_Vector_baseIiSaIiEE17_Vector_impl_dataC2Ev
0000000000060362 W _ZNSt12_Vector_baseIiSaIiEE19_M_get_Tp_allocatorEv
0000000000050338 W _ZNSt12_Vector_baseIiSaIiEEC1Ev
0000000000050338 W _ZNSt12_Vector_baseIiSaIiEEC2Ev
0000000000058656 W _ZNSt12_Vector_baseIiSaIiEED1Ev
0000000000058656 W _ZNSt12_Vector_baseIiSaIiEED2Ev
000000000006af2e W _ZNSt12_Vector_baseImSaImEE11_M_allocateEm
0000000000055cbe W _ZNSt12_Vector_baseImSaImEE12_Vector_implC1Ev
0000000000055cbe W _ZNSt12_Vector_baseImSaImEE12_Vector_implC2Ev
000000000004ff86 W _ZNSt12_Vector_baseImSaImEE12_Vector_implD1Ev
000000000004ff86 W _ZNSt12_Vector_baseImSaImEE12_Vector_implD2Ev
000000000005ebf6 W _ZNSt12_Vector_baseImSaImEE13_M_deallocateEPmm
000000000005ebb4 W _ZNSt12_Vector_baseImSaImEE17_Vector_impl_dataC1Ev
000000000005ebb4 W _ZNSt12_Vector_baseImSaImEE17_Vector_impl_dataC2Ev
000000000005ec30 W _ZNSt12_Vector_baseImSaImEE19_M_get_Tp_allocatorEv
000000000004ffa6 W _ZNSt12_Vector_baseImSaImEEC1Ev
000000000004ffa6 W _ZNSt12_Vector_baseImSaImEEC2Ev
0000000000055d0a W _ZNSt12_Vector_baseImSaImEED1Ev
0000000000055d0a W _ZNSt12_Vector_baseImSaImEED2Ev
000000000006cd02 W _ZNSt13_Rb_tree_nodeINSt7__cxx1112basic_stringIcSt11char_traitsIcESaIcEEEE9_M_valptrEv
000000000005d2be W _ZNSt13_Rb_tree_nodeISt4pairIKNSt7__cxx1112basic_stringIcSt11char_traitsIcESaIcEEEN7testing8internal34TypeParameterizedTestSuiteRegistry30TypeParameterizedTestSuiteInfoEEE9_M_valptrEv
000000000005e904 W _ZNSt13_Rb_tree_nodeISt4pairIKNSt7__cxx1112basic_stringIcSt11char_traitsIcESaIcEEEmEE9_M_valptrEv
0000000000051438 W _ZNSt13__atomic_baseIiEC1Ei
0000000000051438 W _ZNSt13__atomic_baseIiEC2Ei
                 U _ZNSt13runtime_errorC2EPKc@GLIBCXX_3.4.21
                 U _ZNSt13runtime_errorD2Ev@GLIBCXX_3.4
0000000000054bbc W _ZNSt13unordered_setINSt7__cxx1112basic_stringIcSt11char_traitsIcESaIcEEESt4hashIS5_ESt8equal_toIS5_ESaIS5_EE5beginEv
00000000000718fc W _ZNSt13unordered_setINSt7__cxx1112basic_stringIcSt11char_traitsIcESaIcEEESt4hashIS5_ESt8equal_toIS5_ESaIS5_EE6insertENSt8__detail20_Node_const_iteratorIS5_Lb1ELb1EEEOS5_
000000000004fe1e W _ZNSt13unordered_setINSt7__cxx1112basic_stringIcSt11char_traitsIcESaIcEEESt4hashIS5_ESt8equal_toIS5_ESaIS5_EEC1Ev
000000000004fe1e W _ZNSt13unordered_setINSt7__cxx1112basic_stringIcSt11char_traitsIcESaIcEEESt4hashIS5_ESt8equal_toIS5_ESaIS5_EEC2Ev
000000000004fe3e W _ZNSt13unordered_setINSt7__cxx1112basic_stringIcSt11char_traitsIcESaIcEEESt4hashIS5_ESt8equal_toIS5_ESaIS5_EED1Ev
000000000004fe3e W _ZNSt13unordered_setINSt7__cxx1112basic_stringIcSt11char_traitsIcESaIcEEESt4hashIS5_ESt8equal_toIS5_ESaIS5_EED2Ev
000000000004fe5e W _ZNSt13unordered_setINSt7__cxx1112basic_stringIcSt11char_traitsIcESaIcEEESt4hashIS5_ESt8equal_toIS5_ESaIS5_EEaSEOSB_
000000000005ef60 W _ZNSt14_List_iteratorISt4pairIcPKcEEC1EPNSt8__detail15_List_node_baseE
000000000005ef60 W _ZNSt14_List_iteratorISt4pairIcPKcEEC2EPNSt8__detail15_List_node_baseE
                 U _ZNSt14basic_ifstreamIcSt11char_traitsIcEEC1EPKcSt13_Ios_Openmode@GLIBCXX_3.4
                 U _ZNSt14basic_ifstreamIcSt11char_traitsIcEED1Ev@GLIBCXX_3.4
000000000004a896 W _ZNSt14numeric_limitsIdE8infinityEv
000000000006f825 W _ZNSt14pointer_traitsIPNSt8__detail10_Hash_nodeINSt7__cxx1112basic_stringIcSt11char_traitsIcESaIcEEELb1EEEE10pointer_toERS8_
000000000006d00e W _ZNSt14pointer_traitsIPPNSt8__detail15_Hash_node_baseEE10pointer_toERS2_
000000000004a8dc W _ZNSt15_Rb_tree_header8_M_resetEv
000000000004a8b2 W _ZNSt15_Rb_tree_headerC1Ev
000000000004a8b2 W _ZNSt15_Rb_tree_headerC2Ev
000000000006b0b6 W _ZNSt15__allocated_ptrISaISt10_List_nodeISt4pairIcPKcEEEEC1ERS6_PS5_
000000000006b0b6 W _ZNSt15__allocated_ptrISaISt10_List_nodeISt4pairIcPKcEEEEC2ERS6_PS5_
000000000006b0f0 W _ZNSt15__allocated_ptrISaISt10_List_nodeISt4pairIcPKcEEEED1Ev
000000000006b0f0 W _ZNSt15__allocated_ptrISaISt10_List_nodeISt4pairIcPKcEEEED2Ev
000000000006b16c W _ZNSt15__allocated_ptrISaISt10_List_nodeISt4pairIcPKcEEEEaSEDn
00000000000580f2 W _ZNSt15__uniq_ptr_dataIKNSt7__cxx1112basic_stringIcSt11char_traitsIcESaIcEEESt14default_deleteIS6_ELb1ELb1EECI1St15__uniq_ptr_implIS6_S8_EEPS6_
00000000000580f2 W _ZNSt15__uniq_ptr_dataIKNSt7__cxx1112basic_stringIcSt11char_traitsIcESaIcEEESt14default_deleteIS6_ELb1ELb1EECI2St15__uniq_ptr_implIS6_S8_EEPS6_
000000000006158c W _ZNSt15__uniq_ptr_dataIN7testing8internal11ThreadLocalIPNS0_31TestPartResultReporterInterfaceEE18ValueHolderFactoryESt14default_deleteIS6_ELb1ELb1EECI1St15__uniq_ptr_implIS6_S8_EEPS6_
000000000006158c W _ZNSt15__uniq_ptr_dataIN7testing8internal11ThreadLocalIPNS0_31TestPartResultReporterInterfaceEE18ValueHolderFactoryESt14default_deleteIS6_ELb1ELb1EECI2St15__uniq_ptr_implIS6_S8_EEPS6_
0000000000061b96 W _ZNSt15__uniq_ptr_dataIN7testing8internal11ThreadLocalISt6vectorINS1_9TraceInfoESaIS4_EEE18ValueHolderFactoryESt14default_deleteIS8_ELb1ELb1EECI1St15__uniq_ptr_implIS8_SA_EEPS8_
0000000000061b96 W _ZNSt15__uniq_ptr_dataIN7testing8internal11ThreadLocalISt6vectorINS1_9TraceInfoESaIS4_EEE18ValueHolderFactoryESt14default_deleteIS8_ELb1ELb1EECI2St15__uniq_ptr_implIS8_SA_EEPS8_
0000000000057c4c W _ZNSt15__uniq_ptr_dataIN7testing8internal14GTestFlagSaverESt14default_deleteIS2_ELb1ELb1EECI1St15__uniq_ptr_implIS2_S4_EEPS2_
0000000000057c4c W _ZNSt15__uniq_ptr_dataIN7testing8internal14GTestFlagSaverESt14default_deleteIS2_ELb1ELb1EECI2St15__uniq_ptr_implIS2_S4_EEPS2_
0000000000059992 W _ZNSt15__uniq_ptr_dataIN7testing8internal16DeathTestFactoryESt14default_deleteIS2_ELb1ELb1EECI1St15__uniq_ptr_implIS2_S4_EEPS2_
0000000000059992 W _ZNSt15__uniq_ptr_dataIN7testing8internal16DeathTestFactoryESt14default_deleteIS2_ELb1ELb1EECI2St15__uniq_ptr_implIS2_S4_EEPS2_
0000000000052272 W _ZNSt15__uniq_ptr_dataIN7testing8internal17StreamingListener20AbstractSocketWriterESt14default_deleteIS3_ELb1ELb1EECI1St15__uniq_ptr_implIS3_S5_EEPS3_
0000000000052272 W _ZNSt15__uniq_ptr_dataIN7testing8internal17StreamingListener20AbstractSocketWriterESt14default_deleteIS3_ELb1ELb1EECI2St15__uniq_ptr_implIS3_S5_EEPS3_
00000000000598e0 W _ZNSt15__uniq_ptr_dataIN7testing8internal24InternalRunDeathTestFlagESt14default_deleteIS2_ELb1ELb1EECI1St15__uniq_ptr_implIS2_S4_EEv
00000000000598e0 W _ZNSt15__uniq_ptr_dataIN7testing8internal24InternalRunDeathTestFlagESt14default_deleteIS2_ELb1ELb1EECI2St15__uniq_ptr_implIS2_S4_EEv
0000000000051e50 W _ZNSt15__uniq_ptr_dataINSt7__cxx1112basic_stringIcSt11char_traitsIcESaIcEEESt14default_deleteIS5_ELb1ELb1EECI1St15__uniq_ptr_implIS5_S7_EEPS5_
000000000005b884 W _ZNSt15__uniq_ptr_dataINSt7__cxx1112basic_stringIcSt11char_traitsIcESaIcEEESt14default_deleteIS5_ELb1ELb1EECI1St15__uniq_ptr_implIS5_S7_EEv
0000000000051e50 W _ZNSt15__uniq_ptr_dataINSt7__cxx1112basic_stringIcSt11char_traitsIcESaIcEEESt14default_deleteIS5_ELb1ELb1EECI2St15__uniq_ptr_implIS5_S7_EEPS5_
000000000005b884 W _ZNSt15__uniq_ptr_dataINSt7__cxx1112basic_stringIcSt11char_traitsIcESaIcEEESt14default_deleteIS5_ELb1ELb1EECI2St15__uniq_ptr_implIS5_S7_EEv
000000000004b3d2 W _ZNSt15__uniq_ptr_dataINSt7__cxx1112basic_stringIcSt11char_traitsIcESaIcEEESt14default_deleteIS5_ELb1ELb1EEaSEOS8_
0000000000051296 W _ZNSt15__uniq_ptr_dataINSt7__cxx1118basic_stringstreamIcSt11char_traitsIcESaIcEEESt14default_deleteIS5_ELb1ELb1EECI1St15__uniq_ptr_implIS5_S7_EEPS5_
0000000000051296 W _ZNSt15__uniq_ptr_dataINSt7__cxx1118basic_stringstreamIcSt11char_traitsIcESaIcEEESt14default_deleteIS5_ELb1ELb1EECI2St15__uniq_ptr_implIS5_S7_EEPS5_
000000000005bd5c W _ZNSt15__uniq_ptr_dataIPcSt14default_deleteIA_S0_ELb1ELb1EECI1St15__uniq_ptr_implIS0_S3_EEPS0_
000000000005bd5c W _ZNSt15__uniq_ptr_dataIPcSt14default_deleteIA_S0_ELb1ELb1EECI2St15__uniq_ptr_implIS0_S3_EEPS0_
0000000000067148 W _ZNSt15__uniq_ptr_implIKNSt7__cxx1112basic_stringIcSt11char_traitsIcESaIcEEESt14default_deleteIS6_EE10_M_deleterEv
000000000005ffe0 W _ZNSt15__uniq_ptr_implIKNSt7__cxx1112basic_stringIcSt11char_traitsIcESaIcEEESt14default_deleteIS6_EE6_M_ptrEv
000000000005ffa4 W _ZNSt15__uniq_ptr_implIKNSt7__cxx1112basic_stringIcSt11char_traitsIcESaIcEEESt14default_deleteIS6_EEC1EPS6_
000000000005ffa4 W _ZNSt15__uniq_ptr_implIKNSt7__cxx1112basic_stringIcSt11char_traitsIcESaIcEEESt14default_deleteIS6_EEC2EPS6_
000000000006bff8 W _ZNSt15__uniq_ptr_implIN7testing8internal11ThreadLocalIPNS0_31TestPartResultReporterInterfaceEE18ValueHolderFactoryESt14default_deleteIS6_EE10_M_deleterEv
00000000000682d4 W _ZNSt15__uniq_ptr_implIN7testing8internal11ThreadLocalIPNS0_31TestPartResultReporterInterfaceEE18ValueHolderFactoryESt14default_deleteIS6_EE6_M_ptrEv
0000000000068298 W _ZNSt15__uniq_ptr_implIN7testing8internal11ThreadLocalIPNS0_31TestPartResultReporterInterfaceEE18ValueHolderFactoryESt14default_deleteIS6_EEC1EPS6_
0000000000068298 W _ZNSt15__uniq_ptr_implIN7testing8internal11ThreadLocalIPNS0_31TestPartResultReporterInterfaceEE18ValueHolderFactoryESt14default_deleteIS6_EEC2EPS6_
000000000006c1b0 W _ZNSt15__uniq_ptr_implIN7testing8internal11ThreadLocalISt6vectorINS1_9TraceInfoESaIS4_EEE18ValueHolderFactoryESt14default_deleteIS8_EE10_M_deleterEv
00000000000685ae W _ZNSt15__uniq_ptr_implIN7testing8internal11ThreadLocalISt6vectorINS1_9TraceInfoESaIS4_EEE18ValueHolderFactoryESt14default_deleteIS8_EE6_M_ptrEv
0000000000068572 W _ZNSt15__uniq_ptr_implIN7testing8internal11ThreadLocalISt6vectorINS1_9TraceInfoESaIS4_EEE18ValueHolderFactoryESt14default_deleteIS8_EEC1EPS8_
0000000000068572 W _ZNSt15__uniq_ptr_implIN7testing8internal11ThreadLocalISt6vectorINS1_9TraceInfoESaIS4_EEE18ValueHolderFactoryESt14default_deleteIS8_EEC2EPS8_
0000000000067096 W _ZNSt15__uniq_ptr_implIN7testing8internal14GTestFlagSaverESt14default_deleteIS2_EE10_M_deleterEv
000000000005fe7e W _ZNSt15__uniq_ptr_implIN7testing8internal14GTestFlagSaverESt14default_deleteIS2_EE6_M_ptrEv
000000000005fe42 W _ZNSt15__uniq_ptr_implIN7testing8internal14GTestFlagSaverESt14default_deleteIS2_EEC1EPS2_
000000000005fe42 W _ZNSt15__uniq_ptr_implIN7testing8internal14GTestFlagSaverESt14default_deleteIS2_EEC2EPS2_
0000000000068554 W _ZNSt15__uniq_ptr_implIN7testing8internal16DeathTestFactoryESt14default_deleteIS2_EE10_M_deleterEv
0000000000061a32 W _ZNSt15__uniq_ptr_implIN7testing8internal16DeathTestFactoryESt14default_deleteIS2_EE6_M_ptrEv
00000000000619f6 W _ZNSt15__uniq_ptr_implIN7testing8internal16DeathTestFactoryESt14default_deleteIS2_EEC1EPS2_
00000000000619f6 W _ZNSt15__uniq_ptr_implIN7testing8internal16DeathTestFactoryESt14default_deleteIS2_EEC2EPS2_
0000000000062f20 W _ZNSt15__uniq_ptr_implIN7testing8internal17StreamingListener20AbstractSocketWriterESt14default_deleteIS3_EE10_M_deleterEv
000000000005bb9c W _ZNSt15__uniq_ptr_implIN7testing8internal17StreamingListener20AbstractSocketWriterESt14default_deleteIS3_EE6_M_ptrEv
000000000005bb60 W _ZNSt15__uniq_ptr_implIN7testing8internal17StreamingListener20AbstractSocketWriterESt14default_deleteIS3_EEC1EPS3_
000000000005bb60 W _ZNSt15__uniq_ptr_implIN7testing8internal17StreamingListener20AbstractSocketWriterESt14default_deleteIS3_EEC2EPS3_
0000000000062e88 W _ZNSt15__uniq_ptr_implIN7testing8internal24InternalRunDeathTestFlagESt14default_deleteIS2_EE10_M_deleterEv
000000000005bab4 W _ZNSt15__uniq_ptr_implIN7testing8internal24InternalRunDeathTestFlagESt14default_deleteIS2_EE5resetEPS2_
0000000000061980 W _ZNSt15__uniq_ptr_implIN7testing8internal24InternalRunDeathTestFlagESt14default_deleteIS2_EE6_M_ptrEv
00000000000598c0 W _ZNSt15__uniq_ptr_implIN7testing8internal24InternalRunDeathTestFlagESt14default_deleteIS2_EEC1Ev
00000000000598c0 W _ZNSt15__uniq_ptr_implIN7testing8internal24InternalRunDeathTestFlagESt14default_deleteIS2_EEC2Ev
0000000000015be8 W _ZNSt15__uniq_ptr_implINSt7__cxx1112basic_stringIcSt11char_traitsIcESaIcEEESt14default_deleteIS5_EE10_M_deleterEv
0000000000062cc8 W _ZNSt15__uniq_ptr_implINSt7__cxx1112basic_stringIcSt11char_traitsIcESaIcEEESt14default_deleteIS5_EE4swapERS8_
000000000005afdc W _ZNSt15__uniq_ptr_implINSt7__cxx1112basic_stringIcSt11char_traitsIcESaIcEEESt14default_deleteIS5_EE5resetEPS5_
0000000000015b60 W _ZNSt15__uniq_ptr_implINSt7__cxx1112basic_stringIcSt11char_traitsIcESaIcEEESt14default_deleteIS5_EE6_M_ptrEv
000000000005b044 W _ZNSt15__uniq_ptr_implINSt7__cxx1112basic_stringIcSt11char_traitsIcESaIcEEESt14default_deleteIS5_EE7releaseEv
000000000005b7de W _ZNSt15__uniq_ptr_implINSt7__cxx1112basic_stringIcSt11char_traitsIcESaIcEEESt14default_deleteIS5_EEC1EPS5_
000000000005b864 W _ZNSt15__uniq_ptr_implINSt7__cxx1112basic_stringIcSt11char_traitsIcESaIcEEESt14default_deleteIS5_EEC1Ev
000000000005b7de W _ZNSt15__uniq_ptr_implINSt7__cxx1112basic_stringIcSt11char_traitsIcESaIcEEESt14default_deleteIS5_EEC2EPS5_
000000000005b864 W _ZNSt15__uniq_ptr_implINSt7__cxx1112basic_stringIcSt11char_traitsIcESaIcEEESt14default_deleteIS5_EEC2Ev
00000000000513e0 W _ZNSt15__uniq_ptr_implINSt7__cxx1112basic_stringIcSt11char_traitsIcESaIcEEESt14default_deleteIS5_EEaSEOS8_
0000000000015d36 W _ZNSt15__uniq_ptr_implINSt7__cxx1118basic_stringstreamIcSt11char_traitsIcESaIcEEESt14default_deleteIS5_EE10_M_deleterEv
0000000000015aa0 W _ZNSt15__uniq_ptr_implINSt7__cxx1118basic_stringstreamIcSt11char_traitsIcESaIcEEESt14default_deleteIS5_EE6_M_ptrEv
000000000005afa0 W _ZNSt15__uniq_ptr_implINSt7__cxx1118basic_stringstreamIcSt11char_traitsIcESaIcEEESt14default_deleteIS5_EEC1EPS5_
000000000005afa0 W _ZNSt15__uniq_ptr_implINSt7__cxx1118basic_stringstreamIcSt11char_traitsIcESaIcEEESt14default_deleteIS5_EEC2EPS5_
0000000000062fba W _ZNSt15__uniq_ptr_implIPcSt14default_deleteIA_S0_EE10_M_deleterEv
000000000005bdb0 W _ZNSt15__uniq_ptr_implIPcSt14default_deleteIA_S0_EE6_M_ptrEv
0000000000062f60 W _ZNSt15__uniq_ptr_implIPcSt14default_deleteIA_S0_EEC1EPS0_
0000000000062f60 W _ZNSt15__uniq_ptr_implIPcSt14default_deleteIA_S0_EEC2EPS0_
000000000005d6fc W _ZNSt15insert_iteratorISt13unordered_setINSt7__cxx1112basic_stringIcSt11char_traitsIcESaIcEEESt4hashIS6_ESt8equal_toIS6_ESaIS6_EEEC1ERSC_NSt8__detail14_Node_iteratorIS6_Lb1ELb1EEE
000000000005d6fc W _ZNSt15insert_iteratorISt13unordered_setINSt7__cxx1112basic_stringIcSt11char_traitsIcESaIcEEESt4hashIS6_ESt8equal_toIS6_ESaIS6_EEEC2ERSC_NSt8__detail14_Node_iteratorIS6_Lb1ELb1EEE
000000000006fa1e W _ZNSt15insert_iteratorISt13unordered_setINSt7__cxx1112basic_stringIcSt11char_traitsIcESaIcEEESt4hashIS6_ESt8equal_toIS6_ESaIS6_EEEaSEOS6_
000000000006fa0c W _ZNSt15insert_iteratorISt13unordered_setINSt7__cxx1112basic_stringIcSt11char_traitsIcESaIcEEESt4hashIS6_ESt8equal_toIS6_ESaIS6_EEEdeEv
000000000006fac2 W _ZNSt15insert_iteratorISt13unordered_setINSt7__cxx1112basic_stringIcSt11char_traitsIcESaIcEEESt4hashIS6_ESt8equal_toIS6_ESaIS6_EEEppEv
000000000005d5d2 W _ZNSt15insert_iteratorISt6vectorINSt7__cxx1112basic_stringIcSt11char_traitsIcESaIcEEESaIS6_EEEC1ERS8_N9__gnu_cxx17__normal_iteratorIPS6_S8_EE
000000000005d5d2 W _ZNSt15insert_iteratorISt6vectorINSt7__cxx1112basic_stringIcSt11char_traitsIcESaIcEEESaIS6_EEEC2ERS8_N9__gnu_cxx17__normal_iteratorIPS6_S8_EE
000000000006f956 W _ZNSt15insert_iteratorISt6vectorINSt7__cxx1112basic_stringIcSt11char_traitsIcESaIcEEESaIS6_EEEaSEOS6_
000000000006f944 W _ZNSt15insert_iteratorISt6vectorINSt7__cxx1112basic_stringIcSt11char_traitsIcESaIcEEESaIS6_EEEdeEv
000000000006f9fa W _ZNSt15insert_iteratorISt6vectorINSt7__cxx1112basic_stringIcSt11char_traitsIcESaIcEEESaIS6_EEEppEv
000000000006684b W _ZNSt16allocator_traitsISaIN7testing12TestPropertyEEE10deallocateERS2_PS1_m
0000000000066d3b W _ZNSt16allocator_traitsISaIN7testing12TestPropertyEEE7destroyIS1_EEvRS2_PT_
000000000006b386 W _ZNSt16allocator_traitsISaIN7testing12TestPropertyEEE8allocateERS2_m
00000000000703b5 W _ZNSt16allocator_traitsISaIN7testing12TestPropertyEEE8max_sizeERKS2_
000000000005f918 W _ZNSt16allocator_traitsISaIN7testing12TestPropertyEEE9constructIS1_JRKS1_EEEvRS2_PT_DpOT0_
0000000000073020 W _ZNSt16allocator_traitsISaIN7testing12TestPropertyEEE9constructIS1_JS1_EEEvRS2_PT_DpOT0_
00000000000667df W _ZNSt16allocator_traitsISaIN7testing14TestPartResultEEE10deallocateERS2_PS1_m
00000000000638f4 W _ZNSt16allocator_traitsISaIN7testing14TestPartResultEEE7destroyIS1_EEvRS2_PT_
0000000000069684 W _ZNSt16allocator_traitsISaIN7testing14TestPartResultEEE8allocateERS2_m
000000000006f405 W _ZNSt16allocator_traitsISaIN7testing14TestPartResultEEE8max_sizeERKS2_
000000000005c6b1 W _ZNSt16allocator_traitsISaIN7testing14TestPartResultEEE9constructIS1_JRKS1_EEEvRS2_PT_DpOT0_
00000000000729a6 W _ZNSt16allocator_traitsISaIN7testing14TestPartResultEEE9constructIS1_JS1_EEEvRS2_PT_DpOT0_
00000000000655dc W _ZNSt16allocator_traitsISaIN7testing8internal13edit_distance8EditTypeEEE10deallocateERS4_PS3_m
000000000007369d W _ZNSt16allocator_traitsISaIN7testing8internal13edit_distance8EditTypeEEE37select_on_container_copy_constructionERKS4_
000000000006a71c W _ZNSt16allocator_traitsISaIN7testing8internal13edit_distance8EditTypeEEE8allocateERS4_m
000000000006a521 W _ZNSt16allocator_traitsISaIN7testing8internal13edit_distance8EditTypeEEE8max_sizeERKS4_
000000000005e50d W _ZNSt16allocator_traitsISaIN7testing8internal13edit_distance8EditTypeEEE9constructIS3_JRKS3_EEEvRS4_PT_DpOT0_
000000000006bf88 W _ZNSt16allocator_traitsISaIN7testing8internal9TraceInfoEEE10deallocateERS3_PS2_m
00000000000613cf W _ZNSt16allocator_traitsISaIN7testing8internal9TraceInfoEEE7destroyIS2_EEvRS3_PT_
000000000006befa W _ZNSt16allocator_traitsISaIN7testing8internal9TraceInfoEEE8allocateERS3_m
0000000000071035 W _ZNSt16allocator_traitsISaIN7testing8internal9TraceInfoEEE8max_sizeERKS3_
00000000000610c6 W _ZNSt16allocator_traitsISaIN7testing8internal9TraceInfoEEE9constructIS2_JRKS2_EEEvRS3_PT_DpOT0_
0000000000073102 W _ZNSt16allocator_traitsISaIN7testing8internal9TraceInfoEEE9constructIS2_JS2_EEEvRS3_PT_DpOT0_
0000000000063015 W _ZNSt16allocator_traitsISaINSt7__cxx1112basic_stringIcSt11char_traitsIcESaIcEEEEE10deallocateERS6_PS5_m
00000000000633d3 W _ZNSt16allocator_traitsISaINSt7__cxx1112basic_stringIcSt11char_traitsIcESaIcEEEEE37select_on_container_copy_constructionERKS6_
0000000000063202 W _ZNSt16allocator_traitsISaINSt7__cxx1112basic_stringIcSt11char_traitsIcESaIcEEEEE7destroyIS5_EEvRS6_PT_
0000000000064935 W _ZNSt16allocator_traitsISaINSt7__cxx1112basic_stringIcSt11char_traitsIcESaIcEEEEE8allocateERS6_m
0000000000069df7 W _ZNSt16allocator_traitsISaINSt7__cxx1112basic_stringIcSt11char_traitsIcESaIcEEEEE8max_sizeERKS6_
000000000005bec9 W _ZNSt16allocator_traitsISaINSt7__cxx1112basic_stringIcSt11char_traitsIcESaIcEEEEE9constructIS5_JRKS5_EEEvRS6_PT_DpOT0_
000000000006391e W _ZNSt16allocator_traitsISaINSt7__cxx1112basic_stringIcSt11char_traitsIcESaIcEEEEE9constructIS5_JS5_EEEvRS6_PT_DpOT0_
000000000006f843 W _ZNSt16allocator_traitsISaINSt8__detail10_Hash_nodeINSt7__cxx1112basic_stringIcSt11char_traitsIcESaIcEEELb1EEEEE10deallocateERS9_PS8_m
000000000006cf9a W _ZNSt16allocator_traitsISaINSt8__detail10_Hash_nodeINSt7__cxx1112basic_stringIcSt11char_traitsIcESaIcEEELb1EEEEE7destroyIS7_EEvRS9_PT_
00000000000743e4 W _ZNSt16allocator_traitsISaINSt8__detail10_Hash_nodeINSt7__cxx1112basic_stringIcSt11char_traitsIcESaIcEEELb1EEEEE8allocateERS9_m
0000000000074424 W _ZNSt16allocator_traitsISaINSt8__detail10_Hash_nodeINSt7__cxx1112basic_stringIcSt11char_traitsIcESaIcEEELb1EEEEE9constructIS7_JS7_EEEvRS9_PT_DpOT0_
0000000000068361 W _ZNSt16allocator_traitsISaIPN7testing11EnvironmentEEE10deallocateERS3_PS2_m
000000000006be6f W _ZNSt16allocator_traitsISaIPN7testing11EnvironmentEEE8allocateERS3_m
0000000000070f9e W _ZNSt16allocator_traitsISaIPN7testing11EnvironmentEEE8max_sizeERKS3_
0000000000060d38 W _ZNSt16allocator_traitsISaIPN7testing11EnvironmentEEE9constructIS2_JRKS2_EEEvRS3_PT_DpOT0_
00000000000678dd W _ZNSt16allocator_traitsISaIPN7testing17TestEventListenerEEE10deallocateERS3_PS2_m
0000000000067bc9 W _ZNSt16allocator_traitsISaIPN7testing17TestEventListenerEEE7destroyIS2_EEvRS3_PT_
000000000006bd2a W _ZNSt16allocator_traitsISaIPN7testing17TestEventListenerEEE8allocateERS3_m
0000000000070ed6 W _ZNSt16allocator_traitsISaIPN7testing17TestEventListenerEEE8max_sizeERKS3_
000000000006091a W _ZNSt16allocator_traitsISaIPN7testing17TestEventListenerEEE9constructIS2_JRKS2_EEEvRS3_PT_DpOT0_
00000000000671a9 W _ZNSt16allocator_traitsISaIPN7testing8TestInfoEEE10deallocateERS3_PS2_m
000000000006b7a6 W _ZNSt16allocator_traitsISaIPN7testing8TestInfoEEE8allocateERS3_m
0000000000070575 W _ZNSt16allocator_traitsISaIPN7testing8TestInfoEEE8max_sizeERKS3_
0000000000060402 W _ZNSt16allocator_traitsISaIPN7testing8TestInfoEEE9constructIS2_JRKS2_EEEvRS3_PT_DpOT0_
0000000000068439 W _ZNSt16allocator_traitsISaIPN7testing8internal30ParameterizedTestSuiteInfoBaseEEE10deallocateERS4_PS3_m
00000000000683cd W _ZNSt16allocator_traitsISaIPN7testing9TestSuiteEEE10deallocateERS3_PS2_m
0000000000068b48 W _ZNSt16allocator_traitsISaIPN7testing9TestSuiteEEE7destroyIS2_EEvRS3_PT_
000000000006c318 W _ZNSt16allocator_traitsISaIPN7testing9TestSuiteEEE8allocateERS3_m
000000000007127b W _ZNSt16allocator_traitsISaIPN7testing9TestSuiteEEE8max_sizeERKS3_
000000000006209a W _ZNSt16allocator_traitsISaIPN7testing9TestSuiteEEE9constructIS2_JRKS2_EEEvRS3_PT_DpOT0_
0000000000068b72 W _ZNSt16allocator_traitsISaIPN7testing9TestSuiteEEE9constructIS2_JS2_EEEvRS3_PT_DpOT0_
000000000006d06f W _ZNSt16allocator_traitsISaIPNSt8__detail15_Hash_node_baseEEE10deallocateERS3_PS2_m
0000000000074a55 W _ZNSt16allocator_traitsISaIPNSt8__detail15_Hash_node_baseEEE8allocateERS3_m
000000000006b05f W _ZNSt16allocator_traitsISaISt10_List_nodeISt4pairIcPKcEEEE10deallocateERS6_PS5_m
000000000006649e W _ZNSt16allocator_traitsISaISt10_List_nodeISt4pairIcPKcEEEE7destroyIS4_EEvRS6_PT_
000000000006dc9a W _ZNSt16allocator_traitsISaISt10_List_nodeISt4pairIcPKcEEEE8allocateERS6_m
000000000006b12f W _ZNSt16allocator_traitsISaISt10_List_nodeISt4pairIcPKcEEEE9constructIS4_JS4_EEEvRS6_PT_DpOT0_
000000000006cd4e W _ZNSt16allocator_traitsISaISt13_Rb_tree_nodeINSt7__cxx1112basic_stringIcSt11char_traitsIcESaIcEEEEEE10deallocateERS8_PS7_m
000000000006cd24 W _ZNSt16allocator_traitsISaISt13_Rb_tree_nodeINSt7__cxx1112basic_stringIcSt11char_traitsIcESaIcEEEEEE7destroyIS6_EEvRS8_PT_
00000000000716d6 W _ZNSt16allocator_traitsISaISt13_Rb_tree_nodeINSt7__cxx1112basic_stringIcSt11char_traitsIcESaIcEEEEEE8allocateERS8_m
0000000000071704 W _ZNSt16allocator_traitsISaISt13_Rb_tree_nodeINSt7__cxx1112basic_stringIcSt11char_traitsIcESaIcEEEEEE9constructIS6_JRKS6_EEEvRS8_PT_DpOT0_
0000000000071741 W _ZNSt16allocator_traitsISaISt13_Rb_tree_nodeINSt7__cxx1112basic_stringIcSt11char_traitsIcESaIcEEEEEE9constructIS6_JS6_EEEvRS8_PT_DpOT0_
000000000006cf3c W _ZNSt16allocator_traitsISaISt13_Rb_tree_nodeISt4pairIKNSt7__cxx1112basic_stringIcSt11char_traitsIcESaIcEEEN7testing8internal34TypeParameterizedTestSuiteRegistry30TypeParameterizedTestSuiteInfoEEEEE10deallocateERSF_PSE_m
000000000006cf12 W _ZNSt16allocator_traitsISaISt13_Rb_tree_nodeISt4pairIKNSt7__cxx1112basic_stringIcSt11char_traitsIcESaIcEEEN7testing8internal34TypeParameterizedTestSuiteRegistry30TypeParameterizedTestSuiteInfoEEEEE7destroyISD_EEvRSF_PT_
000000000006ce5e W _ZNSt16allocator_traitsISaISt13_Rb_tree_nodeISt4pairIKNSt7__cxx1112basic_stringIcSt11char_traitsIcESaIcEEEN7testing8internal34TypeParameterizedTestSuiteRegistry30TypeParameterizedTestSuiteInfoEEEEE8allocateERSF_m
000000000006ce8c W _ZNSt16allocator_traitsISaISt13_Rb_tree_nodeISt4pairIKNSt7__cxx1112basic_stringIcSt11char_traitsIcESaIcEEEN7testing8internal34TypeParameterizedTestSuiteRegistry30TypeParameterizedTestSuiteInfoEEEEE9constructISD_JS7_SC_EEEvRSF_PT_DpOT0_
000000000006db98 W _ZNSt16allocator_traitsISaISt13_Rb_tree_nodeISt4pairIKNSt7__cxx1112basic_stringIcSt11char_traitsIcESaIcEEEmEEEE10deallocateERSB_PSA_m
000000000006db6e W _ZNSt16allocator_traitsISaISt13_Rb_tree_nodeISt4pairIKNSt7__cxx1112basic_stringIcSt11char_traitsIcESaIcEEEmEEEE7destroyIS9_EEvRSB_PT_
000000000006da1a W _ZNSt16allocator_traitsISaISt13_Rb_tree_nodeISt4pairIKNSt7__cxx1112basic_stringIcSt11char_traitsIcESaIcEEEmEEEE8allocateERSB_m
000000000006da48 W _ZNSt16allocator_traitsISaISt13_Rb_tree_nodeISt4pairIKNSt7__cxx1112basic_stringIcSt11char_traitsIcESaIcEEEmEEEE9constructIS9_JRKSt21piecewise_construct_tSt5tupleIJRS8_EESH_IJEEEEEvRSB_PT_DpOT0_
000000000006a61b W _ZNSt16allocator_traitsISaISt6vectorIN7testing8internal13edit_distance8EditTypeESaIS4_EEEE10deallocateERS7_PS6_m
000000000006d7dc W _ZNSt16allocator_traitsISaISt6vectorIN7testing8internal13edit_distance8EditTypeESaIS4_EEEE8allocateERS7_m
000000000006a57f W _ZNSt16allocator_traitsISaISt6vectorIN7testing8internal13edit_distance8EditTypeESaIS4_EEEE8max_sizeERKS7_
000000000006a47d W _ZNSt16allocator_traitsISaISt6vectorIdSaIdEEEE10deallocateERS3_PS2_m
000000000006d5f6 W _ZNSt16allocator_traitsISaISt6vectorIdSaIdEEEE8allocateERS3_m
000000000006a3e1 W _ZNSt16allocator_traitsISaISt6vectorIdSaIdEEEE8max_sizeERKS3_
00000000000628b9 W _ZNSt16allocator_traitsISaIcEE37select_on_container_copy_constructionERKS0_
000000000006a36f W _ZNSt16allocator_traitsISaIdEE10deallocateERS0_Pdm
00000000000735e4 W _ZNSt16allocator_traitsISaIdEE37select_on_container_copy_constructionERKS0_
000000000006d502 W _ZNSt16allocator_traitsISaIdEE8allocateERS0_m
000000000006a2d4 W _ZNSt16allocator_traitsISaIdEE8max_sizeERKS0_
0000000000067215 W _ZNSt16allocator_traitsISaIiEE10deallocateERS0_Pim
000000000006e1e6 W _ZNSt16allocator_traitsISaIiEE8allocateERS0_m
0000000000071f5c W _ZNSt16allocator_traitsISaIiEE8max_sizeERKS0_
000000000006747a W _ZNSt16allocator_traitsISaIiEE9constructIiJiEEEvRS0_PT_DpOT0_
00000000000660fd W _ZNSt16allocator_traitsISaImEE10deallocateERS0_Pmm
000000000006dbf0 W _ZNSt16allocator_traitsISaImEE8allocateERS0_m
0000000000071d42 W _ZNSt16allocator_traitsISaImEE8max_sizeERKS0_
00000000000661ac W _ZNSt16allocator_traitsISaImEE9constructImJmEEEvRS0_PT_DpOT0_
000000000006249e W _ZNSt16reverse_iteratorIN9__gnu_cxx17__normal_iteratorIPPN7testing11EnvironmentESt6vectorIS4_SaIS4_EEEEEC1ES9_
000000000006249e W _ZNSt16reverse_iteratorIN9__gnu_cxx17__normal_iteratorIPPN7testing11EnvironmentESt6vectorIS4_SaIS4_EEEEEC2ES9_
000000000005a2c0 W _ZNSt16reverse_iteratorIN9__gnu_cxx17__normal_iteratorIPPN7testing11EnvironmentESt6vectorIS4_SaIS4_EEEEEppEv
0000000000061e34 W _ZNSt16reverse_iteratorIN9__gnu_cxx17__normal_iteratorIPPN7testing9TestSuiteESt6vectorIS4_SaIS4_EEEEEC1ERKSA_
0000000000061d72 W _ZNSt16reverse_iteratorIN9__gnu_cxx17__normal_iteratorIPPN7testing9TestSuiteESt6vectorIS4_SaIS4_EEEEEC1ES9_
0000000000061e34 W _ZNSt16reverse_iteratorIN9__gnu_cxx17__normal_iteratorIPPN7testing9TestSuiteESt6vectorIS4_SaIS4_EEEEEC2ERKSA_
0000000000061d72 W _ZNSt16reverse_iteratorIN9__gnu_cxx17__normal_iteratorIPPN7testing9TestSuiteESt6vectorIS4_SaIS4_EEEEEC2ES9_
000000000006878a W _ZNSt16reverse_iteratorIN9__gnu_cxx17__normal_iteratorIPPN7testing9TestSuiteESt6vectorIS4_SaIS4_EEEEEppEv
000000000006405e W _ZNSt17_Rb_tree_iteratorINSt7__cxx1112basic_stringIcSt11char_traitsIcESaIcEEEEC1EPSt18_Rb_tree_node_base
000000000006405e W _ZNSt17_Rb_tree_iteratorINSt7__cxx1112basic_stringIcSt11char_traitsIcESaIcEEEEC2EPSt18_Rb_tree_node_base
0000000000069992 W _ZNSt17_Rb_tree_iteratorINSt7__cxx1112basic_stringIcSt11char_traitsIcESaIcEEEEmmEv
000000000006293a W _ZNSt17_Rb_tree_iteratorISt4pairIKNSt7__cxx1112basic_stringIcSt11char_traitsIcESaIcEEEN7testing8internal12CodeLocationEEEC1EPSt18_Rb_tree_node_base
000000000006293a W _ZNSt17_Rb_tree_iteratorISt4pairIKNSt7__cxx1112basic_stringIcSt11char_traitsIcESaIcEEEN7testing8internal12CodeLocationEEEC2EPSt18_Rb_tree_node_base
00000000000645b4 W _ZNSt17_Rb_tree_iteratorISt4pairIKNSt7__cxx1112basic_stringIcSt11char_traitsIcESaIcEEEN7testing8internal34TypeParameterizedTestSuiteRegistry30TypeParameterizedTestSuiteInfoEEEC1EPSt18_Rb_tree_node_base
00000000000645b4 W _ZNSt17_Rb_tree_iteratorISt4pairIKNSt7__cxx1112basic_stringIcSt11char_traitsIcESaIcEEEN7testing8internal34TypeParameterizedTestSuiteRegistry30TypeParameterizedTestSuiteInfoEEEC2EPSt18_Rb_tree_node_base
0000000000069b7c W _ZNSt17_Rb_tree_iteratorISt4pairIKNSt7__cxx1112basic_stringIcSt11char_traitsIcESaIcEEEN7testing8internal34TypeParameterizedTestSuiteRegistry30TypeParameterizedTestSuiteInfoEEEmmEv
0000000000054876 W _ZNSt17_Rb_tree_iteratorISt4pairIKNSt7__cxx1112basic_stringIcSt11char_traitsIcESaIcEEEN7testing8internal34TypeParameterizedTestSuiteRegistry30TypeParameterizedTestSuiteInfoEEEppEv
0000000000065a22 W _ZNSt17_Rb_tree_iteratorISt4pairIKNSt7__cxx1112basic_stringIcSt11char_traitsIcESaIcEEEmEEC1EPSt18_Rb_tree_node_base
0000000000065a22 W _ZNSt17_Rb_tree_iteratorISt4pairIKNSt7__cxx1112basic_stringIcSt11char_traitsIcESaIcEEEmEEC2EPSt18_Rb_tree_node_base
000000000006abf4 W _ZNSt17_Rb_tree_iteratorISt4pairIKNSt7__cxx1112basic_stringIcSt11char_traitsIcESaIcEEEmEEmmEv
000000000006ac20 W _ZNSt17_Rb_tree_iteratorISt4pairIKNSt7__cxx1112basic_stringIcSt11char_traitsIcESaIcEEEmEEppEv
00000000000678a2 W _ZNSt17_Temporary_bufferIN9__gnu_cxx17__normal_iteratorIPPN7testing8TestInfoESt6vectorIS4_SaIS4_EEEES4_E5beginEv
0000000000067768 W _ZNSt17_Temporary_bufferIN9__gnu_cxx17__normal_iteratorIPPN7testing8TestInfoESt6vectorIS4_SaIS4_EEEES4_EC1ES9_l
0000000000067768 W _ZNSt17_Temporary_bufferIN9__gnu_cxx17__normal_iteratorIPPN7testing8TestInfoESt6vectorIS4_SaIS4_EEEES4_EC2ES9_l
0000000000067846 W _ZNSt17_Temporary_bufferIN9__gnu_cxx17__normal_iteratorIPPN7testing8TestInfoESt6vectorIS4_SaIS4_EEEES4_ED1Ev
0000000000067846 W _ZNSt17_Temporary_bufferIN9__gnu_cxx17__normal_iteratorIPPN7testing8TestInfoESt6vectorIS4_SaIS4_EEEES4_ED2Ev
00000000000731d1 W _ZNSt17basic_string_viewIcSt11char_traitsIcEE10_S_compareEmm
000000000005602a W _ZNSt20_List_const_iteratorISt4pairIcPKcEEC1ERKSt14_List_iteratorIS3_E
000000000005602a W _ZNSt20_List_const_iteratorISt4pairIcPKcEEC2ERKSt14_List_iteratorIS3_E
00000000000560be W _ZNSt20_List_const_iteratorISt4pairIcPKcEEppEv
000000000005ca84 W _ZNSt20_Rb_tree_key_compareISt4lessINSt7__cxx1112basic_stringIcSt11char_traitsIcESaIcEEEEEC1Ev
000000000005ca84 W _ZNSt20_Rb_tree_key_compareISt4lessINSt7__cxx1112basic_stringIcSt11char_traitsIcESaIcEEEEEC2Ev
00000000000746c1 W _ZNSt20__copy_move_backwardILb1ELb0ESt26random_access_iterator_tagE13__copy_move_bIPNSt7__cxx1112basic_stringIcSt11char_traitsIcESaIcEEES9_EET0_T_SB_SA_
00000000000737c1 W _ZNSt20__copy_move_backwardILb1ELb1ESt26random_access_iterator_tagE13__copy_move_bIPN7testing8TestInfoEEEPT_PKS6_S9_S7_
000000000007252d W _ZNSt20__copy_move_backwardILb1ELb1ESt26random_access_iterator_tagE13__copy_move_bIPN7testing9TestSuiteEEEPT_PKS6_S9_S7_
0000000000069563 W _ZNSt20__uninitialized_copyILb0EE13__uninit_copyIN9__gnu_cxx17__normal_iteratorIPKNSt7__cxx1112basic_stringIcSt11char_traitsIcESaIcEEESt6vectorIS9_SaIS9_EEEEPS9_EET0_T_SI_SH_
000000000007045a W _ZNSt20__uninitialized_copyILb0EE13__uninit_copyIPKPKcPNSt7__cxx1112basic_stringIcSt11char_traitsIcESaIcEEEEET0_T_SE_SD_
0000000000073bcd W _ZNSt20__uninitialized_copyILb1EE13__uninit_copyIN9__gnu_cxx17__normal_iteratorIPKN7testing8internal13edit_distance8EditTypeESt6vectorIS7_SaIS7_EEEEPS7_EET0_T_SG_SF_
0000000000073b9c W _ZNSt20__uninitialized_copyILb1EE13__uninit_copyIN9__gnu_cxx17__normal_iteratorIPKdSt6vectorIdSaIdEEEEPdEET0_T_SC_SB_
000000000006d847 W _ZNSt22__uninitialized_fill_nILb0EE15__uninit_fill_nIPSt6vectorIN7testing8internal13edit_distance8EditTypeESaIS6_EEmS8_EET_SA_T0_RKT1_
000000000006d661 W _ZNSt22__uninitialized_fill_nILb0EE15__uninit_fill_nIPSt6vectorIdSaIdEEmS4_EET_S6_T0_RKT1_
0000000000063d10 W _ZNSt23_Rb_tree_const_iteratorINSt7__cxx1112basic_stringIcSt11char_traitsIcESaIcEEEEC1EPKSt18_Rb_tree_node_base
00000000000640a0 W _ZNSt23_Rb_tree_const_iteratorINSt7__cxx1112basic_stringIcSt11char_traitsIcESaIcEEEEC1ERKSt17_Rb_tree_iteratorIS5_E
0000000000063d10 W _ZNSt23_Rb_tree_const_iteratorINSt7__cxx1112basic_stringIcSt11char_traitsIcESaIcEEEEC2EPKSt18_Rb_tree_node_base
00000000000640a0 W _ZNSt23_Rb_tree_const_iteratorINSt7__cxx1112basic_stringIcSt11char_traitsIcESaIcEEEEC2ERKSt17_Rb_tree_iteratorIS5_E
0000000000062b08 W _ZNSt23_Rb_tree_const_iteratorISt4pairIKNSt7__cxx1112basic_stringIcSt11char_traitsIcESaIcEEEN7testing8internal12CodeLocationEEEC1EPKSt18_Rb_tree_node_base
0000000000054516 W _ZNSt23_Rb_tree_const_iteratorISt4pairIKNSt7__cxx1112basic_stringIcSt11char_traitsIcESaIcEEEN7testing8internal12CodeLocationEEEC1ERKSt17_Rb_tree_iteratorISB_E
0000000000062b08 W _ZNSt23_Rb_tree_const_iteratorISt4pairIKNSt7__cxx1112basic_stringIcSt11char_traitsIcESaIcEEEN7testing8internal12CodeLocationEEEC2EPKSt18_Rb_tree_node_base
0000000000054516 W _ZNSt23_Rb_tree_const_iteratorISt4pairIKNSt7__cxx1112basic_stringIcSt11char_traitsIcESaIcEEEN7testing8internal12CodeLocationEEEC2ERKSt17_Rb_tree_iteratorISB_E
0000000000054556 W _ZNSt23_Rb_tree_const_iteratorISt4pairIKNSt7__cxx1112basic_stringIcSt11char_traitsIcESaIcEEEN7testing8internal12CodeLocationEEEppEv
000000000005ea2c W _ZNSt23_Rb_tree_const_iteratorISt4pairIKNSt7__cxx1112basic_stringIcSt11char_traitsIcESaIcEEEmEEC1ERKSt17_Rb_tree_iteratorIS8_E
000000000005ea2c W _ZNSt23_Rb_tree_const_iteratorISt4pairIKNSt7__cxx1112basic_stringIcSt11char_traitsIcESaIcEEEmEEC2ERKSt17_Rb_tree_iteratorIS8_E
000000000006d75c W _ZNSt27__uninitialized_default_n_1ILb1EE18__uninit_default_nIPN7testing8internal13edit_distance8EditTypeEmEET_S7_T0_
000000000006d577 W _ZNSt27__uninitialized_default_n_1ILb1EE18__uninit_default_nIPdmEET_S3_T0_
000000000006e2dc W _ZNSt38__uninitialized_construct_buf_dispatchILb1EE5__ucrIPPN7testing8TestInfoEN9__gnu_cxx17__normal_iteratorIS5_St6vectorIS4_SaIS4_EEEEEEvT_SC_T0_
000000000006e481 W _ZNSt3_V26rotateIN9__gnu_cxx17__normal_iteratorIPPN7testing8TestInfoESt6vectorIS5_SaIS5_EEEEEET_SB_SB_SB_
0000000000070920 W _ZNSt3_V28__rotateIN9__gnu_cxx17__normal_iteratorIPPN7testing8TestInfoESt6vectorIS5_SaIS5_EEEEEET_SB_SB_SB_St26random_access_iterator_tag
0000000000054538 W _ZNSt3mapINSt7__cxx1112basic_stringIcSt11char_traitsIcESaIcEEEN7testing8internal12CodeLocationESt4lessIvESaISt4pairIKS5_S8_EEE3endEv
00000000000544f8 W _ZNSt3mapINSt7__cxx1112basic_stringIcSt11char_traitsIcESaIcEEEN7testing8internal12CodeLocationESt4lessIvESaISt4pairIKS5_S8_EEE5beginEv
00000000000547f2 W _ZNSt3mapINSt7__cxx1112basic_stringIcSt11char_traitsIcESaIcEEEN7testing8internal34TypeParameterizedTestSuiteRegistry30TypeParameterizedTestSuiteInfoESt4lessIS5_ESaISt4pairIKS5_S9_EEE3endEv
00000000000547c8 W _ZNSt3mapINSt7__cxx1112basic_stringIcSt11char_traitsIcESaIcEEEN7testing8internal34TypeParameterizedTestSuiteRegistry30TypeParameterizedTestSuiteInfoESt4lessIS5_ESaISt4pairIKS5_S9_EEE4findERSD_
0000000000054858 W _ZNSt3mapINSt7__cxx1112basic_stringIcSt11char_traitsIcESaIcEEEN7testing8internal34TypeParameterizedTestSuiteRegistry30TypeParameterizedTestSuiteInfoESt4lessIS5_ESaISt4pairIKS5_S9_EEE5beginEv
0000000000054776 W _ZNSt3mapINSt7__cxx1112basic_stringIcSt11char_traitsIcESaIcEEEN7testing8internal34TypeParameterizedTestSuiteRegistry30TypeParameterizedTestSuiteInfoESt4lessIS5_ESaISt4pairIKS5_S9_EEE7emplaceIJS5_S9_EEESC_ISt17_Rb_tree_iteratorISE_EbEDpOT_
0000000000050b0e W _ZNSt3mapINSt7__cxx1112basic_stringIcSt11char_traitsIcESaIcEEEN7testing8internal34TypeParameterizedTestSuiteRegistry30TypeParameterizedTestSuiteInfoESt4lessIS5_ESaISt4pairIKS5_S9_EEEC1Ev
0000000000050b0e W _ZNSt3mapINSt7__cxx1112basic_stringIcSt11char_traitsIcESaIcEEEN7testing8internal34TypeParameterizedTestSuiteRegistry30TypeParameterizedTestSuiteInfoESt4lessIS5_ESaISt4pairIKS5_S9_EEEC2Ev
0000000000050b2e W _ZNSt3mapINSt7__cxx1112basic_stringIcSt11char_traitsIcESaIcEEEN7testing8internal34TypeParameterizedTestSuiteRegistry30TypeParameterizedTestSuiteInfoESt4lessIS5_ESaISt4pairIKS5_S9_EEED1Ev
0000000000050b2e W _ZNSt3mapINSt7__cxx1112basic_stringIcSt11char_traitsIcESaIcEEEN7testing8internal34TypeParameterizedTestSuiteRegistry30TypeParameterizedTestSuiteInfoESt4lessIS5_ESaISt4pairIKS5_S9_EEED2Ev
000000000005e93c W _ZNSt3mapINSt7__cxx1112basic_stringIcSt11char_traitsIcESaIcEEEmSt4lessIS5_ESaISt4pairIKS5_mEEE11lower_boundERS9_
0000000000055b1a W _ZNSt3mapINSt7__cxx1112basic_stringIcSt11char_traitsIcESaIcEEEmSt4lessIS5_ESaISt4pairIKS5_mEEE3endEv
0000000000055af0 W _ZNSt3mapINSt7__cxx1112basic_stringIcSt11char_traitsIcESaIcEEEmSt4lessIS5_ESaISt4pairIKS5_mEEE4findERS9_
0000000000050026 W _ZNSt3mapINSt7__cxx1112basic_stringIcSt11char_traitsIcESaIcEEEmSt4lessIS5_ESaISt4pairIKS5_mEEEC1Ev
0000000000050026 W _ZNSt3mapINSt7__cxx1112basic_stringIcSt11char_traitsIcESaIcEEEmSt4lessIS5_ESaISt4pairIKS5_mEEEC2Ev
0000000000050046 W _ZNSt3mapINSt7__cxx1112basic_stringIcSt11char_traitsIcESaIcEEEmSt4lessIS5_ESaISt4pairIKS5_mEEED1Ev
0000000000050046 W _ZNSt3mapINSt7__cxx1112basic_stringIcSt11char_traitsIcESaIcEEEmSt4lessIS5_ESaISt4pairIKS5_mEEED2Ev
0000000000055b9e W _ZNSt3mapINSt7__cxx1112basic_stringIcSt11char_traitsIcESaIcEEEmSt4lessIS5_ESaISt4pairIKS5_mEEEixERS9_
000000000005464c W _ZNSt3setINSt7__cxx1112basic_stringIcSt11char_traitsIcESaIcEEESt4lessIS5_ESaIS5_EE6insertEOS5_
0000000000054446 W _ZNSt3setINSt7__cxx1112basic_stringIcSt11char_traitsIcESaIcEEESt4lessIS5_ESaIS5_EE6insertERKS5_
000000000004fb18 W _ZNSt3setINSt7__cxx1112basic_stringIcSt11char_traitsIcESaIcEEESt4lessIS5_ESaIS5_EEC1Ev
000000000004fb18 W _ZNSt3setINSt7__cxx1112basic_stringIcSt11char_traitsIcESaIcEEESt4lessIS5_ESaIS5_EEC2Ev
000000000004fb38 W _ZNSt3setINSt7__cxx1112basic_stringIcSt11char_traitsIcESaIcEEESt4lessIS5_ESaIS5_EED1Ev
000000000004fb38 W _ZNSt3setINSt7__cxx1112basic_stringIcSt11char_traitsIcESaIcEEESt4lessIS5_ESaIS5_EED2Ev
0000000000062a5e W _ZNSt4lessIvE6_S_cmpIRKNSt7__cxx1112basic_stringIcSt11char_traitsIcESaIcEEES9_EEDcOT_OT0_St17integral_constantIbLb0EE
000000000004fc50 W _ZNSt4pairIKNSt7__cxx1112basic_stringIcSt11char_traitsIcESaIcEEEN7testing8internal34TypeParameterizedTestSuiteRegistry30TypeParameterizedTestSuiteInfoEEC1ERKSB_
00000000000717b8 W _ZNSt4pairIKNSt7__cxx1112basic_stringIcSt11char_traitsIcESaIcEEEN7testing8internal34TypeParameterizedTestSuiteRegistry30TypeParameterizedTestSuiteInfoEEC1IS5_SA_Lb1EEEOT_OT0_
000000000004fc50 W _ZNSt4pairIKNSt7__cxx1112basic_stringIcSt11char_traitsIcESaIcEEEN7testing8internal34TypeParameterizedTestSuiteRegistry30TypeParameterizedTestSuiteInfoEEC2ERKSB_
00000000000717b8 W _ZNSt4pairIKNSt7__cxx1112basic_stringIcSt11char_traitsIcESaIcEEEN7testing8internal34TypeParameterizedTestSuiteRegistry30TypeParameterizedTestSuiteInfoEEC2IS5_SA_Lb1EEEOT_OT0_
000000000004fcba W _ZNSt4pairIKNSt7__cxx1112basic_stringIcSt11char_traitsIcESaIcEEEN7testing8internal34TypeParameterizedTestSuiteRegistry30TypeParameterizedTestSuiteInfoEED1Ev
000000000004fcba W _ZNSt4pairIKNSt7__cxx1112basic_stringIcSt11char_traitsIcESaIcEEEN7testing8internal34TypeParameterizedTestSuiteRegistry30TypeParameterizedTestSuiteInfoEED2Ev
0000000000071d14 W _ZNSt4pairIKNSt7__cxx1112basic_stringIcSt11char_traitsIcESaIcEEEmEC1IJRS6_EJEEESt21piecewise_construct_tSt5tupleIJDpT_EESB_IJDpT0_EE
0000000000072fa0 W _ZNSt4pairIKNSt7__cxx1112basic_stringIcSt11char_traitsIcESaIcEEEmEC1IJRS6_EJLm0EEJEJEEERSt5tupleIJDpT_EERSA_IJDpT1_EESt12_Index_tupleIJXspT0_EEESJ_IJXspT2_EEE
0000000000071d14 W _ZNSt4pairIKNSt7__cxx1112basic_stringIcSt11char_traitsIcESaIcEEEmEC2IJRS6_EJEEESt21piecewise_construct_tSt5tupleIJDpT_EESB_IJDpT0_EE
0000000000072fa0 W _ZNSt4pairIKNSt7__cxx1112basic_stringIcSt11char_traitsIcESaIcEEEmEC2IJRS6_EJLm0EEJEJEEERSt5tupleIJDpT_EERSA_IJDpT1_EESt12_Index_tupleIJXspT0_EEESJ_IJXspT2_EEE
0000000000070156 W _ZNSt4pairIKNSt7__cxx1112basic_stringIcSt11char_traitsIcESaIcEEEmED1Ev
0000000000070156 W _ZNSt4pairIKNSt7__cxx1112basic_stringIcSt11char_traitsIcESaIcEEEmED2Ev
0000000000073ecc W _ZNSt4pairINSt8__detail14_Node_iteratorINSt7__cxx1112basic_stringIcSt11char_traitsIcESaIcEEELb1ELb1EEEbEC1IRS8_bLb1EEEOT_OT0_
0000000000073cbe W _ZNSt4pairINSt8__detail14_Node_iteratorINSt7__cxx1112basic_stringIcSt11char_traitsIcESaIcEEELb1ELb1EEEbEC1IS8_bLb1EEEOT_OT0_
0000000000073ecc W _ZNSt4pairINSt8__detail14_Node_iteratorINSt7__cxx1112basic_stringIcSt11char_traitsIcESaIcEEELb1ELb1EEEbEC2IRS8_bLb1EEEOT_OT0_
0000000000073cbe W _ZNSt4pairINSt8__detail14_Node_iteratorINSt7__cxx1112basic_stringIcSt11char_traitsIcESaIcEEELb1ELb1EEEbEC2IS8_bLb1EEEOT_OT0_
000000000006e24a W _ZNSt4pairIPPN7testing8TestInfoElEC1IRS3_RlLb1EEEOT_OT0_
000000000006e292 W _ZNSt4pairIPPN7testing8TestInfoElEC1IS3_iLb1EEEOT_OT0_
000000000006e24a W _ZNSt4pairIPPN7testing8TestInfoElEC2IRS3_RlLb1EEEOT_OT0_
000000000006e292 W _ZNSt4pairIPPN7testing8TestInfoElEC2IS3_iLb1EEEOT_OT0_
000000000006994a W _ZNSt4pairIPSt18_Rb_tree_node_baseS1_EC1IRPSt13_Rb_tree_nodeINSt7__cxx1112basic_stringIcSt11char_traitsIcESaIcEEEERS1_Lb1EEEOT_OT0_
0000000000069b34 W _ZNSt4pairIPSt18_Rb_tree_node_baseS1_EC1IRPSt13_Rb_tree_nodeIS_IKNSt7__cxx1112basic_stringIcSt11char_traitsIcESaIcEEEN7testing8internal34TypeParameterizedTestSuiteRegistry30TypeParameterizedTestSuiteInfoEEERS1_Lb1EEEOT_OT0_
000000000006db08 W _ZNSt4pairIPSt18_Rb_tree_node_baseS1_EC1IRPSt13_Rb_tree_nodeIS_IKNSt7__cxx1112basic_stringIcSt11char_traitsIcESaIcEEEmEERS1_Lb1EEEOT_OT0_
0000000000068f2e W _ZNSt4pairIPSt18_Rb_tree_node_baseS1_EC1IRS1_Lb1EEEOT_RKS1_
000000000006a9ba W _ZNSt4pairIPSt18_Rb_tree_node_baseS1_EC1IRS1_Lb1EEERKS1_OT_
000000000006abac W _ZNSt4pairIPSt18_Rb_tree_node_baseS1_EC1IRS1_S4_Lb1EEEOT_OT0_
000000000006994a W _ZNSt4pairIPSt18_Rb_tree_node_baseS1_EC2IRPSt13_Rb_tree_nodeINSt7__cxx1112basic_stringIcSt11char_traitsIcESaIcEEEERS1_Lb1EEEOT_OT0_
0000000000069b34 W _ZNSt4pairIPSt18_Rb_tree_node_baseS1_EC2IRPSt13_Rb_tree_nodeIS_IKNSt7__cxx1112basic_stringIcSt11char_traitsIcESaIcEEEN7testing8internal34TypeParameterizedTestSuiteRegistry30TypeParameterizedTestSuiteInfoEEERS1_Lb1EEEOT_OT0_
000000000006db08 W _ZNSt4pairIPSt18_Rb_tree_node_baseS1_EC2IRPSt13_Rb_tree_nodeIS_IKNSt7__cxx1112basic_stringIcSt11char_traitsIcESaIcEEEmEERS1_Lb1EEEOT_OT0_
0000000000068f2e W _ZNSt4pairIPSt18_Rb_tree_node_baseS1_EC2IRS1_Lb1EEEOT_RKS1_
000000000006a9ba W _ZNSt4pairIPSt18_Rb_tree_node_baseS1_EC2IRS1_Lb1EEERKS1_OT_
000000000006abac W _ZNSt4pairIPSt18_Rb_tree_node_baseS1_EC2IRS1_S4_Lb1EEEOT_OT0_
0000000000064016 W _ZNSt4pairISt17_Rb_tree_iteratorINSt7__cxx1112basic_stringIcSt11char_traitsIcESaIcEEEEbEC1IS7_bLb1EEEOT_OT0_
0000000000064016 W _ZNSt4pairISt17_Rb_tree_iteratorINSt7__cxx1112basic_stringIcSt11char_traitsIcESaIcEEEEbEC2IS7_bLb1EEEOT_OT0_
000000000006452e W _ZNSt4pairISt17_Rb_tree_iteratorIS_IKNSt7__cxx1112basic_stringIcSt11char_traitsIcESaIcEEEN7testing8internal34TypeParameterizedTestSuiteRegistry30TypeParameterizedTestSuiteInfoEEEbEC1ISD_bLb1EEEOT_OT0_
000000000006452e W _ZNSt4pairISt17_Rb_tree_iteratorIS_IKNSt7__cxx1112basic_stringIcSt11char_traitsIcESaIcEEEN7testing8internal34TypeParameterizedTestSuiteRegistry30TypeParameterizedTestSuiteInfoEEEbEC2ISD_bLb1EEEOT_OT0_
000000000005cdca W _ZNSt4pairISt23_Rb_tree_const_iteratorINSt7__cxx1112basic_stringIcSt11char_traitsIcESaIcEEEEbEC1IRSt17_Rb_tree_iteratorIS6_ERbLb1EEEOT_OT0_
000000000005cdca W _ZNSt4pairISt23_Rb_tree_const_iteratorINSt7__cxx1112basic_stringIcSt11char_traitsIcESaIcEEEEbEC2IRSt17_Rb_tree_iteratorIS6_ERbLb1EEEOT_OT0_
000000000005eea4 W _ZNSt4pairIcPKcEC1IcRS1_Lb1EEEOT_OT0_
000000000005eea4 W _ZNSt4pairIcPKcEC2IcRS1_Lb1EEEOT_OT0_
0000000000071484 W _ZNSt5tupleIJPKN7testing8internal11MatcherBaseINSt7__cxx1112basic_stringIcSt11char_traitsIcESaIcEEEEEPKNS1_9EqMatcherIS8_EEEEC1ISB_SF_Lb1EEEOT_OT0_
0000000000071484 W _ZNSt5tupleIJPKN7testing8internal11MatcherBaseINSt7__cxx1112basic_stringIcSt11char_traitsIcESaIcEEEEEPKNS1_9EqMatcherIS8_EEEEC2ISB_SF_Lb1EEEOT_OT0_
0000000000071414 W _ZNSt5tupleIJPKN7testing8internal11MatcherBaseIRKNSt7__cxx1112basic_stringIcSt11char_traitsIcESaIcEEEEEPKNS1_9EqMatcherIS8_EEEEC1ISD_SH_Lb1EEEOT_OT0_
0000000000071414 W _ZNSt5tupleIJPKN7testing8internal11MatcherBaseIRKNSt7__cxx1112basic_stringIcSt11char_traitsIcESaIcEEEEEPKNS1_9EqMatcherIS8_EEEEC2ISD_SH_Lb1EEEOT_OT0_
0000000000071558 W _ZNSt5tupleIJPKN7testing8internal11MatcherBaseIRKSt17basic_string_viewIcSt11char_traitsIcEEEEPKNS1_9EqMatcherINSt7__cxx1112basic_stringIcS5_SaIcEEEEEEEC1ISB_SJ_Lb1EEEOT_OT0_
0000000000071558 W _ZNSt5tupleIJPKN7testing8internal11MatcherBaseIRKSt17basic_string_viewIcSt11char_traitsIcEEEEPKNS1_9EqMatcherINSt7__cxx1112basic_stringIcS5_SaIcEEEEEEEC2ISB_SJ_Lb1EEEOT_OT0_
00000000000715c8 W _ZNSt5tupleIJPKN7testing8internal11MatcherBaseISt17basic_string_viewIcSt11char_traitsIcEEEEPKNS1_9EqMatcherINSt7__cxx1112basic_stringIcS5_SaIcEEEEEEEC1IS9_SH_Lb1EEEOT_OT0_
00000000000715c8 W _ZNSt5tupleIJPKN7testing8internal11MatcherBaseISt17basic_string_viewIcSt11char_traitsIcEEEEPKNS1_9EqMatcherINSt7__cxx1112basic_stringIcS5_SaIcEEEEEEEC2IS9_SH_Lb1EEEOT_OT0_
000000000006710a W _ZNSt5tupleIJPKNSt7__cxx1112basic_stringIcSt11char_traitsIcESaIcEEESt14default_deleteIS6_EEEC1ILb1ELb1EEEv
000000000006710a W _ZNSt5tupleIJPKNSt7__cxx1112basic_stringIcSt11char_traitsIcESaIcEEESt14default_deleteIS6_EEEC2ILb1ELb1EEEv
000000000006bfba W _ZNSt5tupleIJPN7testing8internal11ThreadLocalIPNS0_31TestPartResultReporterInterfaceEE18ValueHolderFactoryESt14default_deleteIS6_EEEC1ILb1ELb1EEEv
000000000006bfba W _ZNSt5tupleIJPN7testing8internal11ThreadLocalIPNS0_31TestPartResultReporterInterfaceEE18ValueHolderFactoryESt14default_deleteIS6_EEEC2ILb1ELb1EEEv
000000000006c172 W _ZNSt5tupleIJPN7testing8internal11ThreadLocalISt6vectorINS1_9TraceInfoESaIS4_EEE18ValueHolderFactoryESt14default_deleteIS8_EEEC1ILb1ELb1EEEv
000000000006c172 W _ZNSt5tupleIJPN7testing8internal11ThreadLocalISt6vectorINS1_9TraceInfoESaIS4_EEE18ValueHolderFactoryESt14default_deleteIS8_EEEC2ILb1ELb1EEEv
0000000000067058 W _ZNSt5tupleIJPN7testing8internal14GTestFlagSaverESt14default_deleteIS2_EEEC1ILb1ELb1EEEv
0000000000067058 W _ZNSt5tupleIJPN7testing8internal14GTestFlagSaverESt14default_deleteIS2_EEEC2ILb1ELb1EEEv
0000000000068516 W _ZNSt5tupleIJPN7testing8internal16DeathTestFactoryESt14default_deleteIS2_EEEC1ILb1ELb1EEEv
0000000000068516 W _ZNSt5tupleIJPN7testing8internal16DeathTestFactoryESt14default_deleteIS2_EEEC2ILb1ELb1EEEv
0000000000062ee2 W _ZNSt5tupleIJPN7testing8internal17StreamingListener20AbstractSocketWriterESt14default_deleteIS3_EEEC1ILb1ELb1EEEv
0000000000062ee2 W _ZNSt5tupleIJPN7testing8internal17StreamingListener20AbstractSocketWriterESt14default_deleteIS3_EEEC2ILb1ELb1EEEv
00000000000598a0 W _ZNSt5tupleIJPN7testing8internal24InternalRunDeathTestFlagESt14default_deleteIS2_EEEC1ILb1ELb1EEEv
00000000000598a0 W _ZNSt5tupleIJPN7testing8internal24InternalRunDeathTestFlagESt14default_deleteIS2_EEEC2ILb1ELb1EEEv
000000000005b844 W _ZNSt5tupleIJPNSt7__cxx1112basic_stringIcSt11char_traitsIcESaIcEEESt14default_deleteIS5_EEEC1ILb1ELb1EEEv
000000000005b844 W _ZNSt5tupleIJPNSt7__cxx1112basic_stringIcSt11char_traitsIcESaIcEEESt14default_deleteIS5_EEEC2ILb1ELb1EEEv
000000000006285c W _ZNSt5tupleIJPNSt7__cxx1118basic_stringstreamIcSt11char_traitsIcESaIcEEESt14default_deleteIS5_EEEC1ILb1ELb1EEEv
000000000006285c W _ZNSt5tupleIJPNSt7__cxx1118basic_stringstreamIcSt11char_traitsIcESaIcEEESt14default_deleteIS5_EEEC2ILb1ELb1EEEv
0000000000069238 W _ZNSt5tupleIJPPcSt14default_deleteIA_S0_EEEC1ILb1ELb1EEEv
0000000000069238 W _ZNSt5tupleIJPPcSt14default_deleteIA_S0_EEEC2ILb1ELb1EEEv
000000000007003c W _ZNSt5tupleIJRKNSt7__cxx1112basic_stringIcSt11char_traitsIcESaIcEEEEEC1EOS8_
000000000005ea02 W _ZNSt5tupleIJRKNSt7__cxx1112basic_stringIcSt11char_traitsIcESaIcEEEEEC1ILb1ELb1EEES7_
000000000007003c W _ZNSt5tupleIJRKNSt7__cxx1112basic_stringIcSt11char_traitsIcESaIcEEEEEC2EOS8_
000000000005ea02 W _ZNSt5tupleIJRKNSt7__cxx1112basic_stringIcSt11char_traitsIcESaIcEEEEEC2ILb1ELb1EEES7_
000000000004b51e W _ZNSt6atomicIiEC1Ei
000000000004b51e W _ZNSt6atomicIiEC2Ei
000000000005af4a W _ZNSt6chrono10time_pointINS_3_V212system_clockENS_8durationIlSt5ratioILl1ELl1000000000EEEEEC1ERKS6_
000000000005af4a W _ZNSt6chrono10time_pointINS_3_V212system_clockENS_8durationIlSt5ratioILl1ELl1000000000EEEEEC2ERKS6_
0000000000051162 W _ZNSt6chrono10time_pointINS_3_V212system_clockENS_8durationIlSt5ratioILl1ELl1EEEEEC1ERKS6_
0000000000051162 W _ZNSt6chrono10time_pointINS_3_V212system_clockENS_8durationIlSt5ratioILl1ELl1EEEEEC2ERKS6_
000000000005af2b W _ZNSt6chrono13duration_castINS_8durationIlSt5ratioILl1ELl1000000000EEEElS2_ILl1ELl1EEEENSt9enable_ifIXsrNS_13__is_durationIT_EE5valueES8_E4typeERKNS1_IT0_T1_EE
000000000005528d W _ZNSt6chrono13duration_castINS_8durationIlSt5ratioILl1ELl1000EEEElS2_ILl1ELl1000000000EEEENSt9enable_ifIXsrNS_13__is_durationIT_EE5valueES8_E4typeERKNS1_IT0_T1_EE
0000000000051183 W _ZNSt6chrono15time_point_castINS_8durationIlSt5ratioILl1ELl1000000000EEEENS_3_V212system_clockENS1_IlS2_ILl1ELl1EEEEEENSt9enable_ifIXsrNS_13__is_durationIT_EE5valueENS_10time_pointIT0_SB_EEE4typeERKNSD_ISE_T1_EE
00000000000627f9 W _ZNSt6chrono20__duration_cast_implINS_8durationIlSt5ratioILl1ELl1000000000EEEES2_ILl1000000000ELl1EElLb0ELb1EE6__castIlS2_ILl1ELl1EEEES4_RKNS1_IT_T0_EE
000000000005db94 W _ZNSt6chrono20__duration_cast_implINS_8durationIlSt5ratioILl1ELl1000EEEES2_ILl1ELl1000000EElLb1ELb0EE6__castIlS2_ILl1ELl1000000000EEEES4_RKNS1_IT_T0_EE
                 U _ZNSt6chrono3_V212steady_clock3nowEv@GLIBCXX_3.4.19
000000000004a953 W _ZNSt6chrono3_V212system_clock11from_time_tEl
                 U _ZNSt6chrono3_V212system_clock3nowEv@GLIBCXX_3.4.19
000000000004a932 W _ZNSt6chrono8durationIlSt5ratioILl1ELl1000000000EEEC1IlvEERKT_
0000000000064eb8 W _ZNSt6chrono8durationIlSt5ratioILl1ELl1000EEEC1IlvEERKT_
0000000000064eb8 W _ZNSt6chrono8durationIlSt5ratioILl1ELl1000EEEC2IlvEERKT_
000000000004a9ba W _ZNSt6chrono8durationIlSt5ratioILl1ELl1EEEC1IlvEERKT_
0000000000055221 W _ZNSt6chronomiINS_3_V212steady_clockENS_8durationIlSt5ratioILl1ELl1000000000EEEES6_EENSt11common_typeIJT0_T1_EE4typeERKNS_10time_pointIT_S8_EERKNSC_ISD_S9_EE
00000000000552c1 W _ZNSt6chronomiINS_3_V212system_clockENS_8durationIlSt5ratioILl1ELl1000000000EEEES6_EENSt11common_typeIJT0_T1_EE4typeERKNS_10time_pointIT_S8_EERKNSC_ISD_S9_EE
000000000005db01 W _ZNSt6chronomiIlSt5ratioILl1ELl1000000000EElS2_EENSt11common_typeIJNS_8durationIT_T0_EENS4_IT1_T2_EEEE4typeERKS7_RKSA_
000000000006dda3 W _ZNSt6vectorIN7testing12TestPropertyESaIS1_EE11_S_max_sizeERKS2_
0000000000066d05 W _ZNSt6vectorIN7testing12TestPropertyESaIS1_EE11_S_relocateEPS1_S4_S4_RS2_
000000000006b3b4 W _ZNSt6vectorIN7testing12TestPropertyESaIS1_EE14_S_do_relocateEPS1_S4_S4_RS2_St17integral_constantIbLb1EE
000000000005fcc8 W _ZNSt6vectorIN7testing12TestPropertyESaIS1_EE15_M_erase_at_endEPS1_
000000000005f956 W _ZNSt6vectorIN7testing12TestPropertyESaIS1_EE17_M_realloc_insertIJRKS1_EEEvN9__gnu_cxx17__normal_iteratorIPS1_S3_EEDpOT_
00000000000576e8 W _ZNSt6vectorIN7testing12TestPropertyESaIS1_EE3endEv
000000000005769c W _ZNSt6vectorIN7testing12TestPropertyESaIS1_EE5beginEv
0000000000057b50 W _ZNSt6vectorIN7testing12TestPropertyESaIS1_EE5clearEv
0000000000057894 W _ZNSt6vectorIN7testing12TestPropertyESaIS1_EE9push_backERKS1_
0000000000050234 W _ZNSt6vectorIN7testing12TestPropertyESaIS1_EEC1Ev
0000000000050234 W _ZNSt6vectorIN7testing12TestPropertyESaIS1_EEC2Ev
00000000000575b2 W _ZNSt6vectorIN7testing12TestPropertyESaIS1_EED1Ev
00000000000575b2 W _ZNSt6vectorIN7testing12TestPropertyESaIS1_EED2Ev
000000000006cb87 W _ZNSt6vectorIN7testing14TestPartResultESaIS1_EE11_S_max_sizeERKS2_
00000000000638ab W _ZNSt6vectorIN7testing14TestPartResultESaIS1_EE11_S_relocateEPS1_S4_S4_RS2_
00000000000696b2 W _ZNSt6vectorIN7testing14TestPartResultESaIS1_EE14_S_do_relocateEPS1_S4_S4_RS2_St17integral_constantIbLb1EE
000000000005f6f4 W _ZNSt6vectorIN7testing14TestPartResultESaIS1_EE15_M_erase_at_endEPS1_
000000000005c73e W _ZNSt6vectorIN7testing14TestPartResultESaIS1_EE17_M_realloc_insertIJRKS1_EEEvN9__gnu_cxx17__normal_iteratorIPS1_S3_EEDpOT_
000000000005c6ee W _ZNSt6vectorIN7testing14TestPartResultESaIS1_EE3endEv
00000000000637d4 W _ZNSt6vectorIN7testing14TestPartResultESaIS1_EE5beginEv
0000000000057672 W _ZNSt6vectorIN7testing14TestPartResultESaIS1_EE5clearEv
00000000000540c8 W _ZNSt6vectorIN7testing14TestPartResultESaIS1_EE9push_backERKS1_
00000000000501d4 W _ZNSt6vectorIN7testing14TestPartResultESaIS1_EEC1Ev
00000000000501d4 W _ZNSt6vectorIN7testing14TestPartResultESaIS1_EEC2Ev
00000000000574cc W _ZNSt6vectorIN7testing14TestPartResultESaIS1_EED1Ev
00000000000574cc W _ZNSt6vectorIN7testing14TestPartResultESaIS1_EED2Ev
00000000000652c6 W _ZNSt6vectorIN7testing8internal13edit_distance8EditTypeESaIS3_EE11_S_max_sizeERKS4_
00000000000657cb W _ZNSt6vectorIN7testing8internal13edit_distance8EditTypeESaIS3_EE11_S_relocateEPS3_S6_S6_RS4_
000000000006a74a W _ZNSt6vectorIN7testing8internal13edit_distance8EditTypeESaIS3_EE14_S_do_relocateEPS3_S6_S6_RS4_St17integral_constantIbLb1EE
000000000005e54a W _ZNSt6vectorIN7testing8internal13edit_distance8EditTypeESaIS3_EE17_M_realloc_insertIJRKS3_EEEvN9__gnu_cxx17__normal_iteratorIPS3_S5_EEDpOT_
000000000005e119 W _ZNSt6vectorIN7testing8internal13edit_distance8EditTypeESaIS3_EE17_S_check_init_lenEmRKS4_
000000000005e206 W _ZNSt6vectorIN7testing8internal13edit_distance8EditTypeESaIS3_EE21_M_default_initializeEm
0000000000055a6a W _ZNSt6vectorIN7testing8internal13edit_distance8EditTypeESaIS3_EE3endEv
0000000000055a1e W _ZNSt6vectorIN7testing8internal13edit_distance8EditTypeESaIS3_EE5beginEv
000000000005599e W _ZNSt6vectorIN7testing8internal13edit_distance8EditTypeESaIS3_EE9push_backERKS3_
0000000000071bd2 W _ZNSt6vectorIN7testing8internal13edit_distance8EditTypeESaIS3_EEC1ERKS5_
0000000000055624 W _ZNSt6vectorIN7testing8internal13edit_distance8EditTypeESaIS3_EEC1EmRKS4_
000000000004ff66 W _ZNSt6vectorIN7testing8internal13edit_distance8EditTypeESaIS3_EEC1Ev
0000000000071bd2 W _ZNSt6vectorIN7testing8internal13edit_distance8EditTypeESaIS3_EEC2ERKS5_
0000000000055624 W _ZNSt6vectorIN7testing8internal13edit_distance8EditTypeESaIS3_EEC2EmRKS4_
000000000004ff66 W _ZNSt6vectorIN7testing8internal13edit_distance8EditTypeESaIS3_EEC2Ev
00000000000556a2 W _ZNSt6vectorIN7testing8internal13edit_distance8EditTypeESaIS3_EED1Ev
00000000000556a2 W _ZNSt6vectorIN7testing8internal13edit_distance8EditTypeESaIS3_EED2Ev
00000000000558b0 W _ZNSt6vectorIN7testing8internal13edit_distance8EditTypeESaIS3_EEixEm
000000000006e970 W _ZNSt6vectorIN7testing8internal9TraceInfoESaIS2_EE11_S_max_sizeERKS3_
00000000000681b1 W _ZNSt6vectorIN7testing8internal9TraceInfoESaIS2_EE11_S_relocateEPS2_S5_S5_RS3_
000000000006bf28 W _ZNSt6vectorIN7testing8internal9TraceInfoESaIS2_EE14_S_do_relocateEPS2_S5_S5_RS3_St17integral_constantIbLb1EE
0000000000061154 W _ZNSt6vectorIN7testing8internal9TraceInfoESaIS2_EE17_M_realloc_insertIJRKS2_EEEvN9__gnu_cxx17__normal_iteratorIPS2_S4_EEDpOT_
0000000000061104 W _ZNSt6vectorIN7testing8internal9TraceInfoESaIS2_EE3endEv
00000000000680da W _ZNSt6vectorIN7testing8internal9TraceInfoESaIS2_EE5beginEv
0000000000059422 W _ZNSt6vectorIN7testing8internal9TraceInfoESaIS2_EE8pop_backEv
00000000000593a2 W _ZNSt6vectorIN7testing8internal9TraceInfoESaIS2_EE9push_backERKS2_
00000000000758f0 W _ZNSt6vectorIN7testing8internal9TraceInfoESaIS2_EEC1Ev
00000000000758f0 W _ZNSt6vectorIN7testing8internal9TraceInfoESaIS2_EEC2Ev
0000000000075a58 W _ZNSt6vectorIN7testing8internal9TraceInfoESaIS2_EED1Ev
0000000000075a58 W _ZNSt6vectorIN7testing8internal9TraceInfoESaIS2_EED2Ev
0000000000059146 W _ZNSt6vectorIN7testing8internal9TraceInfoESaIS2_EEixEm
00000000000648cc W _ZNSt6vectorINSt7__cxx1112basic_stringIcSt11char_traitsIcESaIcEEESaIS5_EE11_S_max_sizeERKS6_
000000000005d59b W _ZNSt6vectorINSt7__cxx1112basic_stringIcSt11char_traitsIcESaIcEEESaIS5_EE11_S_relocateEPS5_S8_S8_RS6_
000000000005c9bc W _ZNSt6vectorINSt7__cxx1112basic_stringIcSt11char_traitsIcESaIcEEESaIS5_EE12emplace_backIJS5_EEERS5_DpOT_
0000000000073422 W _ZNSt6vectorINSt7__cxx1112basic_stringIcSt11char_traitsIcESaIcEEESaIS5_EE13_M_insert_auxIS5_EEvN9__gnu_cxx17__normal_iteratorIPS5_S7_EEOT_
0000000000072b36 W _ZNSt6vectorINSt7__cxx1112basic_stringIcSt11char_traitsIcESaIcEEESaIS5_EE14_M_insert_rvalEN9__gnu_cxx17__normal_iteratorIPKS5_S7_EEOS5_
000000000005d84a W _ZNSt6vectorINSt7__cxx1112basic_stringIcSt11char_traitsIcESaIcEEESaIS5_EE14_M_move_assignEOS7_St17integral_constantIbLb1EE
0000000000064963 W _ZNSt6vectorINSt7__cxx1112basic_stringIcSt11char_traitsIcESaIcEEESaIS5_EE14_S_do_relocateEPS5_S8_S8_RS6_St17integral_constantIbLb1EE
0000000000068e9e W _ZNSt6vectorINSt7__cxx1112basic_stringIcSt11char_traitsIcESaIcEEESaIS5_EE15_M_erase_at_endEPS5_
000000000005bf06 W _ZNSt6vectorINSt7__cxx1112basic_stringIcSt11char_traitsIcESaIcEEESaIS5_EE17_M_realloc_insertIJRKS5_EEEvN9__gnu_cxx17__normal_iteratorIPS5_S7_EEDpOT_
000000000006395c W _ZNSt6vectorINSt7__cxx1112basic_stringIcSt11char_traitsIcESaIcEEESaIS5_EE17_M_realloc_insertIJS5_EEEvN9__gnu_cxx17__normal_iteratorIPS5_S7_EEDpOT_
00000000000634ee W _ZNSt6vectorINSt7__cxx1112basic_stringIcSt11char_traitsIcESaIcEEESaIS5_EE17_S_check_init_lenEmRKS6_
000000000005c5fe W _ZNSt6vectorINSt7__cxx1112basic_stringIcSt11char_traitsIcESaIcEEESaIS5_EE19_M_range_initializeIN9__gnu_cxx17__normal_iteratorIPKS5_S7_EEEEvT_SE_St20forward_iterator_tag
0000000000066da8 W _ZNSt6vectorINSt7__cxx1112basic_stringIcSt11char_traitsIcESaIcEEESaIS5_EE19_M_range_initializeIPKPKcEEvT_SD_St20forward_iterator_tag
00000000000542f8 W _ZNSt6vectorINSt7__cxx1112basic_stringIcSt11char_traitsIcESaIcEEESaIS5_EE3endEv
0000000000063b14 W _ZNSt6vectorINSt7__cxx1112basic_stringIcSt11char_traitsIcESaIcEEESaIS5_EE4backEv
000000000005532e W _ZNSt6vectorINSt7__cxx1112basic_stringIcSt11char_traitsIcESaIcEEESaIS5_EE4swapERS7_
000000000005427e W _ZNSt6vectorINSt7__cxx1112basic_stringIcSt11char_traitsIcESaIcEEESaIS5_EE5beginEv
0000000000062764 W _ZNSt6vectorINSt7__cxx1112basic_stringIcSt11char_traitsIcESaIcEEESaIS5_EE5clearEv
0000000000054cb4 W _ZNSt6vectorINSt7__cxx1112basic_stringIcSt11char_traitsIcESaIcEEESaIS5_EE5frontEv
0000000000071892 W _ZNSt6vectorINSt7__cxx1112basic_stringIcSt11char_traitsIcESaIcEEESaIS5_EE6insertEN9__gnu_cxx17__normal_iteratorIPKS5_S7_EEOS5_
00000000000549f0 W _ZNSt6vectorINSt7__cxx1112basic_stringIcSt11char_traitsIcESaIcEEESaIS5_EE7reserveEm
00000000000541ae W _ZNSt6vectorINSt7__cxx1112basic_stringIcSt11char_traitsIcESaIcEEESaIS5_EE9push_backEOS5_
0000000000052dea W _ZNSt6vectorINSt7__cxx1112basic_stringIcSt11char_traitsIcESaIcEEESaIS5_EE9push_backERKS5_
0000000000064be2 W _ZNSt6vectorINSt7__cxx1112basic_stringIcSt11char_traitsIcESaIcEEESaIS5_EEC1ERKS6_
00000000000538e6 W _ZNSt6vectorINSt7__cxx1112basic_stringIcSt11char_traitsIcESaIcEEESaIS5_EEC1ERKS7_
000000000004f574 W _ZNSt6vectorINSt7__cxx1112basic_stringIcSt11char_traitsIcESaIcEEESaIS5_EEC1Ev
0000000000053ac2 W _ZNSt6vectorINSt7__cxx1112basic_stringIcSt11char_traitsIcESaIcEEESaIS5_EEC1IN9__gnu_cxx17__normal_iteratorIPKS5_S7_EEvEET_SE_RKS6_
000000000005fba2 W _ZNSt6vectorINSt7__cxx1112basic_stringIcSt11char_traitsIcESaIcEEESaIS5_EEC1IPKPKcvEET_SD_RKS6_
0000000000064be2 W _ZNSt6vectorINSt7__cxx1112basic_stringIcSt11char_traitsIcESaIcEEESaIS5_EEC2ERKS6_
00000000000538e6 W _ZNSt6vectorINSt7__cxx1112basic_stringIcSt11char_traitsIcESaIcEEESaIS5_EEC2ERKS7_
000000000004f574 W _ZNSt6vectorINSt7__cxx1112basic_stringIcSt11char_traitsIcESaIcEEESaIS5_EEC2Ev
0000000000053ac2 W _ZNSt6vectorINSt7__cxx1112basic_stringIcSt11char_traitsIcESaIcEEESaIS5_EEC2IN9__gnu_cxx17__normal_iteratorIPKS5_S7_EEvEET_SE_RKS6_
000000000005fba2 W _ZNSt6vectorINSt7__cxx1112basic_stringIcSt11char_traitsIcESaIcEEESaIS5_EEC2IPKPKcvEET_SD_RKS6_
0000000000052d0c W _ZNSt6vectorINSt7__cxx1112basic_stringIcSt11char_traitsIcESaIcEEESaIS5_EED1Ev
0000000000052d0c W _ZNSt6vectorINSt7__cxx1112basic_stringIcSt11char_traitsIcESaIcEEESaIS5_EED2Ev
0000000000054d06 W _ZNSt6vectorINSt7__cxx1112basic_stringIcSt11char_traitsIcESaIcEEESaIS5_EEaSEOS7_
0000000000052ce8 W _ZNSt6vectorINSt7__cxx1112basic_stringIcSt11char_traitsIcESaIcEEESaIS5_EEixEm
000000000006e810 W _ZNSt6vectorIPN7testing11EnvironmentESaIS2_EE11_S_max_sizeERKS3_
0000000000067e75 W _ZNSt6vectorIPN7testing11EnvironmentESaIS2_EE11_S_relocateEPS2_S5_S5_RS3_
000000000006be9d W _ZNSt6vectorIPN7testing11EnvironmentESaIS2_EE14_S_do_relocateEPS2_S5_S5_RS3_St17integral_constantIbLb1EE
0000000000060dc6 W _ZNSt6vectorIPN7testing11EnvironmentESaIS2_EE17_M_realloc_insertIJRKS2_EEEvN9__gnu_cxx17__normal_iteratorIPS2_S4_EEDpOT_
0000000000060d76 W _ZNSt6vectorIPN7testing11EnvironmentESaIS2_EE3endEv
000000000005a288 W _ZNSt6vectorIPN7testing11EnvironmentESaIS2_EE4rendEv
00000000000624bc W _ZNSt6vectorIPN7testing11EnvironmentESaIS2_EE5beginEv
000000000005a250 W _ZNSt6vectorIPN7testing11EnvironmentESaIS2_EE6rbeginEv
0000000000058fec W _ZNSt6vectorIPN7testing11EnvironmentESaIS2_EE9push_backERKS2_
00000000000509ce W _ZNSt6vectorIPN7testing11EnvironmentESaIS2_EEC1Ev
00000000000509ce W _ZNSt6vectorIPN7testing11EnvironmentESaIS2_EEC2Ev
000000000005963a W _ZNSt6vectorIPN7testing11EnvironmentESaIS2_EED1Ev
000000000005963a W _ZNSt6vectorIPN7testing11EnvironmentESaIS2_EED2Ev
000000000006e61c W _ZNSt6vectorIPN7testing17TestEventListenerESaIS2_EE11_S_max_sizeERKS3_
0000000000067b93 W _ZNSt6vectorIPN7testing17TestEventListenerESaIS2_EE11_S_relocateEPS2_S5_S5_RS3_
000000000006bd58 W _ZNSt6vectorIPN7testing17TestEventListenerESaIS2_EE14_S_do_relocateEPS2_S5_S5_RS3_St17integral_constantIbLb1EE
00000000000609a8 W _ZNSt6vectorIPN7testing17TestEventListenerESaIS2_EE17_M_realloc_insertIJRKS2_EEEvN9__gnu_cxx17__normal_iteratorIPS2_S4_EEDpOT_
0000000000060958 W _ZNSt6vectorIPN7testing17TestEventListenerESaIS2_EE3endEv
0000000000058d60 W _ZNSt6vectorIPN7testing17TestEventListenerESaIS2_EE5beginEv
0000000000058e40 W _ZNSt6vectorIPN7testing17TestEventListenerESaIS2_EE5eraseEN9__gnu_cxx17__normal_iteratorIPKS2_S4_EE
0000000000060c26 W _ZNSt6vectorIPN7testing17TestEventListenerESaIS2_EE8_M_eraseEN9__gnu_cxx17__normal_iteratorIPS2_S4_EE
0000000000058c94 W _ZNSt6vectorIPN7testing17TestEventListenerESaIS2_EE9push_backERKS2_
0000000000050552 W _ZNSt6vectorIPN7testing17TestEventListenerESaIS2_EEC1Ev
0000000000050552 W _ZNSt6vectorIPN7testing17TestEventListenerESaIS2_EEC2Ev
0000000000058c00 W _ZNSt6vectorIPN7testing17TestEventListenerESaIS2_EED1Ev
0000000000058c00 W _ZNSt6vectorIPN7testing17TestEventListenerESaIS2_EED2Ev
0000000000058d3c W _ZNSt6vectorIPN7testing17TestEventListenerESaIS2_EEixEm
000000000006e060 W _ZNSt6vectorIPN7testing8TestInfoESaIS2_EE11_S_max_sizeERKS3_
0000000000067431 W _ZNSt6vectorIPN7testing8TestInfoESaIS2_EE11_S_relocateEPS2_S5_S5_RS3_
000000000006b7d4 W _ZNSt6vectorIPN7testing8TestInfoESaIS2_EE14_S_do_relocateEPS2_S5_S5_RS3_St17integral_constantIbLb1EE
0000000000060440 W _ZNSt6vectorIPN7testing8TestInfoESaIS2_EE17_M_realloc_insertIJRKS2_EEEvN9__gnu_cxx17__normal_iteratorIPS2_S4_EEDpOT_
000000000005888a W _ZNSt6vectorIPN7testing8TestInfoESaIS2_EE3endEv
000000000005883e W _ZNSt6vectorIPN7testing8TestInfoESaIS2_EE5beginEv
0000000000058760 W _ZNSt6vectorIPN7testing8TestInfoESaIS2_EE9push_backERKS2_
00000000000502f8 W _ZNSt6vectorIPN7testing8TestInfoESaIS2_EEC1Ev
00000000000502f8 W _ZNSt6vectorIPN7testing8TestInfoESaIS2_EEC2Ev
00000000000585c2 W _ZNSt6vectorIPN7testing8TestInfoESaIS2_EED1Ev
00000000000585c2 W _ZNSt6vectorIPN7testing8TestInfoESaIS2_EED2Ev
000000000005873c W _ZNSt6vectorIPN7testing8TestInfoESaIS2_EEixEm
0000000000051d20 W _ZNSt6vectorIPN7testing8internal30ParameterizedTestSuiteInfoBaseESaIS3_EE3endEv
0000000000051cd4 W _ZNSt6vectorIPN7testing8internal30ParameterizedTestSuiteInfoBaseESaIS3_EE5beginEv
0000000000050a8e W _ZNSt6vectorIPN7testing8internal30ParameterizedTestSuiteInfoBaseESaIS3_EEC1Ev
0000000000050a8e W _ZNSt6vectorIPN7testing8internal30ParameterizedTestSuiteInfoBaseESaIS3_EEC2Ev
0000000000051c8c W _ZNSt6vectorIPN7testing8internal30ParameterizedTestSuiteInfoBaseESaIS3_EED1Ev
0000000000051c8c W _ZNSt6vectorIPN7testing8internal30ParameterizedTestSuiteInfoBaseESaIS3_EED2Ev
000000000006ed10 W _ZNSt6vectorIPN7testing9TestSuiteESaIS2_EE11_S_max_sizeERKS3_
0000000000068d79 W _ZNSt6vectorIPN7testing9TestSuiteESaIS2_EE11_S_relocateEPS2_S5_S5_RS3_
000000000006222a W _ZNSt6vectorIPN7testing9TestSuiteESaIS2_EE13_M_insert_auxIS2_EEvN9__gnu_cxx17__normal_iteratorIPS2_S4_EEOT_
000000000006c346 W _ZNSt6vectorIPN7testing9TestSuiteESaIS2_EE14_S_do_relocateEPS2_S5_S5_RS3_St17integral_constantIbLb1EE
0000000000068b32 W _ZNSt6vectorIPN7testing9TestSuiteESaIS2_EE16_Temporary_value6_M_ptrEv
00000000000621fa W _ZNSt6vectorIPN7testing9TestSuiteESaIS2_EE16_Temporary_value6_M_valEv
0000000000062168 W _ZNSt6vectorIPN7testing9TestSuiteESaIS2_EE16_Temporary_valueC1IJRKS2_EEEPS4_DpOT_
0000000000062168 W _ZNSt6vectorIPN7testing9TestSuiteESaIS2_EE16_Temporary_valueC2IJRKS2_EEEPS4_DpOT_
00000000000621c6 W _ZNSt6vectorIPN7testing9TestSuiteESaIS2_EE16_Temporary_valueD1Ev
00000000000621c6 W _ZNSt6vectorIPN7testing9TestSuiteESaIS2_EE16_Temporary_valueD2Ev
00000000000622e4 W _ZNSt6vectorIPN7testing9TestSuiteESaIS2_EE17_M_realloc_insertIJRKS2_EEEvN9__gnu_cxx17__normal_iteratorIPS2_S4_EEDpOT_
000000000005a464 W _ZNSt6vectorIPN7testing9TestSuiteESaIS2_EE3endEv
0000000000059cc6 W _ZNSt6vectorIPN7testing9TestSuiteESaIS2_EE4rendEv
0000000000059ed2 W _ZNSt6vectorIPN7testing9TestSuiteESaIS2_EE5beginEv
0000000000059fb2 W _ZNSt6vectorIPN7testing9TestSuiteESaIS2_EE6insertEN9__gnu_cxx17__normal_iteratorIPKS2_S4_EERS7_
0000000000059c8e W _ZNSt6vectorIPN7testing9TestSuiteESaIS2_EE6rbeginEv
000000000005a1d0 W _ZNSt6vectorIPN7testing9TestSuiteESaIS2_EE9push_backERKS2_
0000000000050a2e W _ZNSt6vectorIPN7testing9TestSuiteESaIS2_EEC1Ev
0000000000050a2e W _ZNSt6vectorIPN7testing9TestSuiteESaIS2_EEC2Ev
0000000000059720 W _ZNSt6vectorIPN7testing9TestSuiteESaIS2_EED1Ev
0000000000059720 W _ZNSt6vectorIPN7testing9TestSuiteESaIS2_EED2Ev
000000000005216e W _ZNSt6vectorIPN7testing9TestSuiteESaIS2_EEixEm
0000000000065417 W _ZNSt6vectorIS_IN7testing8internal13edit_distance8EditTypeESaIS3_EESaIS5_EE11_S_max_sizeERKS6_
000000000005e2a9 W _ZNSt6vectorIS_IN7testing8internal13edit_distance8EditTypeESaIS3_EESaIS5_EE17_S_check_init_lenEmRKS6_
000000000005e418 W _ZNSt6vectorIS_IN7testing8internal13edit_distance8EditTypeESaIS3_EESaIS5_EE18_M_fill_initializeEmRKS5_
000000000005572a W _ZNSt6vectorIS_IN7testing8internal13edit_distance8EditTypeESaIS3_EESaIS5_EEC1EmRKS5_RKS6_
000000000005572a W _ZNSt6vectorIS_IN7testing8internal13edit_distance8EditTypeESaIS3_EESaIS5_EEC2EmRKS5_RKS6_
00000000000557b0 W _ZNSt6vectorIS_IN7testing8internal13edit_distance8EditTypeESaIS3_EESaIS5_EED1Ev
00000000000557b0 W _ZNSt6vectorIS_IN7testing8internal13edit_distance8EditTypeESaIS3_EESaIS5_EED2Ev
0000000000055882 W _ZNSt6vectorIS_IN7testing8internal13edit_distance8EditTypeESaIS3_EESaIS5_EEixEm
0000000000065100 W _ZNSt6vectorIS_IdSaIdEESaIS1_EE11_S_max_sizeERKS2_
000000000005df01 W _ZNSt6vectorIS_IdSaIdEESaIS1_EE17_S_check_init_lenEmRKS2_
000000000005e070 W _ZNSt6vectorIS_IdSaIdEESaIS1_EE18_M_fill_initializeEmRKS1_
0000000000055516 W _ZNSt6vectorIS_IdSaIdEESaIS1_EEC1EmRKS1_RKS2_
0000000000055516 W _ZNSt6vectorIS_IdSaIdEESaIS1_EEC2EmRKS1_RKS2_
000000000005559c W _ZNSt6vectorIS_IdSaIdEESaIS1_EED1Ev
000000000005559c W _ZNSt6vectorIS_IdSaIdEESaIS1_EED2Ev
0000000000055830 W _ZNSt6vectorIS_IdSaIdEESaIS1_EEixEm
0000000000064f4c W _ZNSt6vectorIdSaIdEE11_S_max_sizeERKS0_
000000000005dcff W _ZNSt6vectorIdSaIdEE17_S_check_init_lenEmRKS0_
000000000005de5e W _ZNSt6vectorIdSaIdEE21_M_default_initializeEm
0000000000071a32 W _ZNSt6vectorIdSaIdEEC1ERKS1_
0000000000055410 W _ZNSt6vectorIdSaIdEEC1EmRKS0_
0000000000071a32 W _ZNSt6vectorIdSaIdEEC2ERKS1_
0000000000055410 W _ZNSt6vectorIdSaIdEEC2EmRKS0_
000000000005548e W _ZNSt6vectorIdSaIdEED1Ev
000000000005548e W _ZNSt6vectorIdSaIdEED2Ev
000000000005585e W _ZNSt6vectorIdSaIdEEixEm
000000000007060c W _ZNSt6vectorIiSaIiEE11_S_max_sizeERKS0_
000000000006ba25 W _ZNSt6vectorIiSaIiEE11_S_relocateEPiS2_S2_RS0_
000000000006060c W _ZNSt6vectorIiSaIiEE12emplace_backIJiEEERiDpOT_
000000000006e214 W _ZNSt6vectorIiSaIiEE14_S_do_relocateEPiS2_S2_RS0_St17integral_constantIbLb1EE
0000000000067508 W _ZNSt6vectorIiSaIiEE17_M_realloc_insertIJiEEEvN9__gnu_cxx17__normal_iteratorIPiS1_EEDpOT_
00000000000674b8 W _ZNSt6vectorIiSaIiEE3endEv
00000000000676c2 W _ZNSt6vectorIiSaIiEE4backEv
000000000006b95e W _ZNSt6vectorIiSaIiEE5beginEv
0000000000058808 W _ZNSt6vectorIiSaIiEE9push_backEOi
0000000000050358 W _ZNSt6vectorIiSaIiEEC1Ev
0000000000050358 W _ZNSt6vectorIiSaIiEEC2Ev
00000000000586a8 W _ZNSt6vectorIiSaIiEED1Ev
00000000000586a8 W _ZNSt6vectorIiSaIiEED2Ev
0000000000058b3e W _ZNSt6vectorIiSaIiEEixEm
00000000000701d8 W _ZNSt6vectorImSaImEE11_S_max_sizeERKS0_
000000000006af65 W _ZNSt6vectorImSaImEE11_S_relocateEPmS2_S2_RS0_
000000000005ed3a W _ZNSt6vectorImSaImEE12emplace_backIJmEEERmDpOT_
000000000006dc1e W _ZNSt6vectorImSaImEE14_S_do_relocateEPmS2_S2_RS0_St17integral_constantIbLb1EE
000000000006623a W _ZNSt6vectorImSaImEE17_M_realloc_insertIJmEEEvN9__gnu_cxx17__normal_iteratorIPmS1_EEDpOT_
00000000000661ea W _ZNSt6vectorImSaImEE3endEv
00000000000663f4 W _ZNSt6vectorImSaImEE4backEv
000000000006ae9e W _ZNSt6vectorImSaImEE5beginEv
0000000000055e62 W _ZNSt6vectorImSaImEE9push_backEOm
000000000004ffc6 W _ZNSt6vectorImSaImEEC1Ev
000000000004ffc6 W _ZNSt6vectorImSaImEEC2Ev
0000000000055d5c W _ZNSt6vectorImSaImEED1Ev
0000000000055d5c W _ZNSt6vectorImSaImEED2Ev
0000000000055e98 W _ZNSt7__cxx1110_List_baseISt4pairIcPKcESaIS4_EE10_List_implC1Ev
0000000000055e98 W _ZNSt7__cxx1110_List_baseISt4pairIcPKcESaIS4_EE10_List_implC2Ev
0000000000050066 W _ZNSt7__cxx1110_List_baseISt4pairIcPKcESaIS4_EE10_List_implD1Ev
0000000000050066 W _ZNSt7__cxx1110_List_baseISt4pairIcPKcESaIS4_EE10_List_implD2Ev
000000000006b092 W _ZNSt7__cxx1110_List_baseISt4pairIcPKcESaIS4_EE11_M_get_nodeEv
00000000000665d4 W _ZNSt7__cxx1110_List_baseISt4pairIcPKcESaIS4_EE11_M_inc_sizeEm
00000000000664c8 W _ZNSt7__cxx1110_List_baseISt4pairIcPKcESaIS4_EE11_M_put_nodeEPSt10_List_nodeIS4_E
0000000000066724 W _ZNSt7__cxx1110_List_baseISt4pairIcPKcESaIS4_EE11_M_set_sizeEm
000000000006648c W _ZNSt7__cxx1110_List_baseISt4pairIcPKcESaIS4_EE21_M_get_Node_allocatorEv
000000000005ee12 W _ZNSt7__cxx1110_List_baseISt4pairIcPKcESaIS4_EE8_M_clearEv
0000000000050086 W _ZNSt7__cxx1110_List_baseISt4pairIcPKcESaIS4_EEC1Ev
0000000000050086 W _ZNSt7__cxx1110_List_baseISt4pairIcPKcESaIS4_EEC2Ev
0000000000055ee4 W _ZNSt7__cxx1110_List_baseISt4pairIcPKcESaIS4_EED1Ev
0000000000055ee4 W _ZNSt7__cxx1110_List_baseISt4pairIcPKcESaIS4_EED2Ev
                 U _ZNSt7__cxx1112basic_stringIcSt11char_traitsIcESaIcEE10_M_disposeEv@GLIBCXX_3.4.21
                 U _ZNSt7__cxx1112basic_stringIcSt11char_traitsIcESaIcEE11_M_capacityEm@GLIBCXX_3.4.21
                 U _ZNSt7__cxx1112basic_stringIcSt11char_traitsIcESaIcEE12_Alloc_hiderC1EPcRKS3_@GLIBCXX_3.4.21
0000000000050e9a W _ZNSt7__cxx1112basic_stringIcSt11char_traitsIcESaIcEE12_Alloc_hiderD1Ev
0000000000050e9a W _ZNSt7__cxx1112basic_stringIcSt11char_traitsIcESaIcEE12_Alloc_hiderD2Ev
                 U _ZNSt7__cxx1112basic_stringIcSt11char_traitsIcESaIcEE12_M_constructEmc@GLIBCXX_3.4.21
000000000005ff72 W _ZNSt7__cxx1112basic_stringIcSt11char_traitsIcESaIcEE12_M_constructIN9__gnu_cxx17__normal_iteratorIPKcS4_EEEEvT_SB_
000000000006b536 W _ZNSt7__cxx1112basic_stringIcSt11char_traitsIcESaIcEE12_M_constructIN9__gnu_cxx17__normal_iteratorIPKcS4_EEEEvT_SB_St20forward_iterator_tag
000000000005aee4 W _ZNSt7__cxx1112basic_stringIcSt11char_traitsIcESaIcEE12_M_constructIPKcEEvT_S8_
000000000005b0ec W _ZNSt7__cxx1112basic_stringIcSt11char_traitsIcESaIcEE12_M_constructIPKcEEvT_S8_St20forward_iterator_tag
                 U _ZNSt7__cxx1112basic_stringIcSt11char_traitsIcESaIcEE12__sv_wrapperC1ESt17basic_string_viewIcS2_E@GLIBCXX_3.4.26
                 U _ZNSt7__cxx1112basic_stringIcSt11char_traitsIcESaIcEE13_M_local_dataEv@GLIBCXX_3.4.21
                 U _ZNSt7__cxx1112basic_stringIcSt11char_traitsIcESaIcEE13_M_set_lengthEm@GLIBCXX_3.4.21
                 U _ZNSt7__cxx1112basic_stringIcSt11char_traitsIcESaIcEE13_S_copy_charsEPcN9__gnu_cxx17__normal_iteratorIPKcS4_EESA_@GLIBCXX_3.4.21
                 U _ZNSt7__cxx1112basic_stringIcSt11char_traitsIcESaIcEE13_S_copy_charsEPcPKcS7_@GLIBCXX_3.4.21
00000000000670b4 W _ZNSt7__cxx1112basic_stringIcSt11char_traitsIcESaIcEE16_M_construct_auxIN9__gnu_cxx17__normal_iteratorIPKcS4_EEEEvT_SB_St12__false_type
00000000000627a4 W _ZNSt7__cxx1112basic_stringIcSt11char_traitsIcESaIcEE16_M_construct_auxIPKcEEvT_S8_St12__false_type
                 U _ZNSt7__cxx1112basic_stringIcSt11char_traitsIcESaIcEE17_S_to_string_viewESt17basic_string_viewIcS2_E@GLIBCXX_3.4.26
                 U _ZNSt7__cxx1112basic_stringIcSt11char_traitsIcESaIcEE3endEv@GLIBCXX_3.4.21
                 U _ZNSt7__cxx1112basic_stringIcSt11char_traitsIcESaIcEE4dataEv@GLIBCXX_3.4.26
                 U _ZNSt7__cxx1112basic_stringIcSt11char_traitsIcESaIcEE4swapERS4_@GLIBCXX_3.4.21
                 U _ZNSt7__cxx1112basic_stringIcSt11char_traitsIcESaIcEE5beginEv@GLIBCXX_3.4.21
                 U _ZNSt7__cxx1112basic_stringIcSt11char_traitsIcESaIcEE5eraseEN9__gnu_cxx17__normal_iteratorIPKcS4_EE@GLIBCXX_3.4.21
                 U _ZNSt7__cxx1112basic_stringIcSt11char_traitsIcESaIcEE5eraseEN9__gnu_cxx17__normal_iteratorIPKcS4_EES9_@GLIBCXX_3.4.21
                 U _ZNSt7__cxx1112basic_stringIcSt11char_traitsIcESaIcEE6appendEPKc@GLIBCXX_3.4.21
                 U _ZNSt7__cxx1112basic_stringIcSt11char_traitsIcESaIcEE6appendEPKcm@GLIBCXX_3.4.21
                 U _ZNSt7__cxx1112basic_stringIcSt11char_traitsIcESaIcEE6appendERKS4_@GLIBCXX_3.4.21
                 U _ZNSt7__cxx1112basic_stringIcSt11char_traitsIcESaIcEE6appendEmc@GLIBCXX_3.4.21
                 U _ZNSt7__cxx1112basic_stringIcSt11char_traitsIcESaIcEE6insertEmPKc@GLIBCXX_3.4.21
                 U _ZNSt7__cxx1112basic_stringIcSt11char_traitsIcESaIcEE6insertEmRKS4_@GLIBCXX_3.4.21
                 U _ZNSt7__cxx1112basic_stringIcSt11char_traitsIcESaIcEE7_M_dataEPc@GLIBCXX_3.4.21
                 U _ZNSt7__cxx1112basic_stringIcSt11char_traitsIcESaIcEE7reserveEm@GLIBCXX_3.4.21
                 U _ZNSt7__cxx1112basic_stringIcSt11char_traitsIcESaIcEE9_M_createERmm@GLIBCXX_3.4.21
                 U _ZNSt7__cxx1112basic_stringIcSt11char_traitsIcESaIcEE9push_backEc@GLIBCXX_3.4.21
                 U _ZNSt7__cxx1112basic_stringIcSt11char_traitsIcESaIcEEC1ENS4_12__sv_wrapperERKS3_@GLIBCXX_3.4.26
                 U _ZNSt7__cxx1112basic_stringIcSt11char_traitsIcESaIcEEC1EOS4_@GLIBCXX_3.4.21
                 U _ZNSt7__cxx1112basic_stringIcSt11char_traitsIcESaIcEEC1EPKcRKS3_@GLIBCXX_3.4.21
                 U _ZNSt7__cxx1112basic_stringIcSt11char_traitsIcESaIcEEC1EPKcmRKS3_@GLIBCXX_3.4.21
                 U _ZNSt7__cxx1112basic_stringIcSt11char_traitsIcESaIcEEC1ERKS3_@GLIBCXX_3.4.21
                 U _ZNSt7__cxx1112basic_stringIcSt11char_traitsIcESaIcEEC1ERKS4_@GLIBCXX_3.4.21
                 U _ZNSt7__cxx1112basic_stringIcSt11char_traitsIcESaIcEEC1Ev@GLIBCXX_3.4.21
0000000000058072 W _ZNSt7__cxx1112basic_stringIcSt11char_traitsIcESaIcEEC1IN9__gnu_cxx17__normal_iteratorIPKcS4_EEvEET_SB_RKS3_
0000000000051624 W _ZNSt7__cxx1112basic_stringIcSt11char_traitsIcESaIcEEC1IPKcvEET_S8_RKS3_
0000000000051494 W _ZNSt7__cxx1112basic_stringIcSt11char_traitsIcESaIcEEC1IS3_EEPKcRKS3_
0000000000050eba W _ZNSt7__cxx1112basic_stringIcSt11char_traitsIcESaIcEEC1IS3_EEmcRKS3_
000000000005184a W _ZNSt7__cxx1112basic_stringIcSt11char_traitsIcESaIcEEC1ISt17basic_string_viewIcS2_EvEERKT_RKS3_
0000000000058072 W _ZNSt7__cxx1112basic_stringIcSt11char_traitsIcESaIcEEC2IN9__gnu_cxx17__normal_iteratorIPKcS4_EEvEET_SB_RKS3_
0000000000051624 W _ZNSt7__cxx1112basic_stringIcSt11char_traitsIcESaIcEEC2IPKcvEET_S8_RKS3_
0000000000051494 W _ZNSt7__cxx1112basic_stringIcSt11char_traitsIcESaIcEEC2IS3_EEPKcRKS3_
0000000000050eba W _ZNSt7__cxx1112basic_stringIcSt11char_traitsIcESaIcEEC2IS3_EEmcRKS3_
000000000005184a W _ZNSt7__cxx1112basic_stringIcSt11char_traitsIcESaIcEEC2ISt17basic_string_viewIcS2_EvEERKT_RKS3_
                 U _ZNSt7__cxx1112basic_stringIcSt11char_traitsIcESaIcEED1Ev@GLIBCXX_3.4.21
                 U _ZNSt7__cxx1112basic_stringIcSt11char_traitsIcESaIcEEaSEOS4_@GLIBCXX_3.4.21
                 U _ZNSt7__cxx1112basic_stringIcSt11char_traitsIcESaIcEEaSEPKc@GLIBCXX_3.4.21
                 U _ZNSt7__cxx1112basic_stringIcSt11char_traitsIcESaIcEEaSERKS4_@GLIBCXX_3.4.21
                 U _ZNSt7__cxx1112basic_stringIcSt11char_traitsIcESaIcEEixEm@GLIBCXX_3.4.21
                 U _ZNSt7__cxx1112basic_stringIcSt11char_traitsIcESaIcEEpLEPKc@GLIBCXX_3.4.21
                 U _ZNSt7__cxx1112basic_stringIcSt11char_traitsIcESaIcEEpLERKS4_@GLIBCXX_3.4.21
                 U _ZNSt7__cxx1112basic_stringIcSt11char_traitsIcESaIcEEpLEc@GLIBCXX_3.4.21
                 U _ZNSt7__cxx1112basic_stringIwSt11char_traitsIwESaIwEE10_M_disposeEv@GLIBCXX_3.4.21
                 U _ZNSt7__cxx1112basic_stringIwSt11char_traitsIwESaIwEE11_M_capacityEm@GLIBCXX_3.4.21
                 U _ZNSt7__cxx1112basic_stringIwSt11char_traitsIwESaIwEE12_Alloc_hiderC1EPwRKS3_@GLIBCXX_3.4.21
0000000000050f3a W _ZNSt7__cxx1112basic_stringIwSt11char_traitsIwESaIwEE12_Alloc_hiderD1Ev
0000000000050f3a W _ZNSt7__cxx1112basic_stringIwSt11char_traitsIwESaIwEE12_Alloc_hiderD2Ev
000000000005b438 W _ZNSt7__cxx1112basic_stringIwSt11char_traitsIwESaIwEE12_M_constructIPKwEEvT_S8_St20forward_iterator_tag
                 U _ZNSt7__cxx1112basic_stringIwSt11char_traitsIwESaIwEE13_M_local_dataEv@GLIBCXX_3.4.21
                 U _ZNSt7__cxx1112basic_stringIwSt11char_traitsIwESaIwEE13_M_set_lengthEm@GLIBCXX_3.4.21
                 U _ZNSt7__cxx1112basic_stringIwSt11char_traitsIwESaIwEE13_S_copy_charsEPwPKwS7_@GLIBCXX_3.4.21
                 U _ZNSt7__cxx1112basic_stringIwSt11char_traitsIwESaIwEE7_M_dataEPw@GLIBCXX_3.4.21
                 U _ZNSt7__cxx1112basic_stringIwSt11char_traitsIwESaIwEE9_M_createERmm@GLIBCXX_3.4.21
00000000000518fa W _ZNSt7__cxx1112basic_stringIwSt11char_traitsIwESaIwEEC1IS3_EEPKwRKS3_
00000000000518fa W _ZNSt7__cxx1112basic_stringIwSt11char_traitsIwESaIwEEC2IS3_EEPKwRKS3_
                 U _ZNSt7__cxx1112basic_stringIwSt11char_traitsIwESaIwEED1Ev@GLIBCXX_3.4.21
                 U _ZNSt7__cxx1118basic_stringstreamIcSt11char_traitsIcESaIcEEC1Ev@GLIBCXX_3.4.26
                 U _ZNSt7__cxx1118basic_stringstreamIcSt11char_traitsIcESaIcEED1Ev@GLIBCXX_3.4.21
                 U _ZNSt7__cxx1119basic_ostringstreamIcSt11char_traitsIcESaIcEEC1Ev@GLIBCXX_3.4.26
                 U _ZNSt7__cxx1119basic_ostringstreamIcSt11char_traitsIcESaIcEED1Ev@GLIBCXX_3.4.21
0000000000066688 W _ZNSt7__cxx114listISt4pairIcPKcESaIS4_EE11_M_transferESt14_List_iteratorIS4_ES8_S8_
000000000006650a W _ZNSt7__cxx114listISt4pairIcPKcESaIS4_EE14_M_create_nodeIJS4_EEEPSt10_List_nodeIS4_EDpOT_
000000000006663c W _ZNSt7__cxx114listISt4pairIcPKcESaIS4_EE25_M_check_equal_allocatorsERS6_
000000000005604c W _ZNSt7__cxx114listISt4pairIcPKcESaIS4_EE3endEv
0000000000055fda W _ZNSt7__cxx114listISt4pairIcPKcESaIS4_EE5beginEv
000000000005efb2 W _ZNSt7__cxx114listISt4pairIcPKcESaIS4_EE6spliceESt20_List_const_iteratorIS4_EOS6_
0000000000056104 W _ZNSt7__cxx114listISt4pairIcPKcESaIS4_EE6spliceESt20_List_const_iteratorIS4_ERS6_
000000000005eefe W _ZNSt7__cxx114listISt4pairIcPKcESaIS4_EE9_M_insertIJS4_EEEvSt14_List_iteratorIS4_EDpOT_
0000000000055f8e W _ZNSt7__cxx114listISt4pairIcPKcESaIS4_EE9push_backEOS4_
00000000000500a6 W _ZNSt7__cxx114listISt4pairIcPKcESaIS4_EEC1Ev
00000000000500a6 W _ZNSt7__cxx114listISt4pairIcPKcESaIS4_EEC2Ev
00000000000500c6 W _ZNSt7__cxx114listISt4pairIcPKcESaIS4_EED1Ev
00000000000500c6 W _ZNSt7__cxx114listISt4pairIcPKcESaIS4_EED2Ev
0000000000063efe W _ZNSt8_Rb_treeINSt7__cxx1112basic_stringIcSt11char_traitsIcESaIcEEES5_St9_IdentityIS5_ESt4lessIS5_ESaIS5_EE10_M_insert_IRKS5_NSB_11_Alloc_nodeEEESt17_Rb_tree_iteratorIS5_EPSt18_Rb_tree_node_baseSJ_OT_RT0_
00000000000640d8 W _ZNSt8_Rb_treeINSt7__cxx1112basic_stringIcSt11char_traitsIcESaIcEEES5_St9_IdentityIS5_ESt4lessIS5_ESaIS5_EE10_M_insert_IS5_NSB_11_Alloc_nodeEEESt17_Rb_tree_iteratorIS5_EPSt18_Rb_tree_node_baseSH_OT_RT0_
0000000000063ee0 W _ZNSt8_Rb_treeINSt7__cxx1112basic_stringIcSt11char_traitsIcESaIcEEES5_St9_IdentityIS5_ESt4lessIS5_ESaIS5_EE11_Alloc_nodeC1ERSB_
0000000000063ee0 W _ZNSt8_Rb_treeINSt7__cxx1112basic_stringIcSt11char_traitsIcESaIcEEES5_St9_IdentityIS5_ESt4lessIS5_ESaIS5_EE11_Alloc_nodeC2ERSB_
000000000006f53e W _ZNSt8_Rb_treeINSt7__cxx1112basic_stringIcSt11char_traitsIcESaIcEEES5_St9_IdentityIS5_ESt4lessIS5_ESaIS5_EE11_M_get_nodeEv
0000000000069804 W _ZNSt8_Rb_treeINSt7__cxx1112basic_stringIcSt11char_traitsIcESaIcEEES5_St9_IdentityIS5_ESt4lessIS5_ESaIS5_EE11_M_put_nodeEPSt13_Rb_tree_nodeIS5_E
0000000000063bb6 W _ZNSt8_Rb_treeINSt7__cxx1112basic_stringIcSt11char_traitsIcESaIcEEES5_St9_IdentityIS5_ESt4lessIS5_ESaIS5_EE12_M_drop_nodeEPSt13_Rb_tree_nodeIS5_E
00000000000541e4 W _ZNSt8_Rb_treeINSt7__cxx1112basic_stringIcSt11char_traitsIcESaIcEEES5_St9_IdentityIS5_ESt4lessIS5_ESaIS5_EE13_Rb_tree_implIS9_Lb1EEC1Ev
00000000000541e4 W _ZNSt8_Rb_treeINSt7__cxx1112basic_stringIcSt11char_traitsIcESaIcEEES5_St9_IdentityIS5_ESt4lessIS5_ESaIS5_EE13_Rb_tree_implIS9_Lb1EEC2Ev
000000000004fad8 W _ZNSt8_Rb_treeINSt7__cxx1112basic_stringIcSt11char_traitsIcESaIcEEES5_St9_IdentityIS5_ESt4lessIS5_ESaIS5_EE13_Rb_tree_implIS9_Lb1EED1Ev
000000000004fad8 W _ZNSt8_Rb_treeINSt7__cxx1112basic_stringIcSt11char_traitsIcESaIcEEES5_St9_IdentityIS5_ESt4lessIS5_ESaIS5_EE13_Rb_tree_implIS9_Lb1EED2Ev
000000000006cdb4 W _ZNSt8_Rb_treeINSt7__cxx1112basic_stringIcSt11char_traitsIcESaIcEEES5_St9_IdentityIS5_ESt4lessIS5_ESaIS5_EE14_M_create_nodeIJRKS5_EEEPSt13_Rb_tree_nodeIS5_EDpOT_
000000000006ce00 W _ZNSt8_Rb_treeINSt7__cxx1112basic_stringIcSt11char_traitsIcESaIcEEES5_St9_IdentityIS5_ESt4lessIS5_ESaIS5_EE14_M_create_nodeIJS5_EEEPSt13_Rb_tree_nodeIS5_EDpOT_
00000000000697c2 W _ZNSt8_Rb_treeINSt7__cxx1112basic_stringIcSt11char_traitsIcESaIcEEES5_St9_IdentityIS5_ESt4lessIS5_ESaIS5_EE15_M_destroy_nodeEPSt13_Rb_tree_nodeIS5_E
000000000005ccbe W _ZNSt8_Rb_treeINSt7__cxx1112basic_stringIcSt11char_traitsIcESaIcEEES5_St9_IdentityIS5_ESt4lessIS5_ESaIS5_EE16_M_insert_uniqueIRKS5_EESt4pairISt17_Rb_tree_iteratorIS5_EbEOT_
000000000005cefc W _ZNSt8_Rb_treeINSt7__cxx1112basic_stringIcSt11char_traitsIcESaIcEEES5_St9_IdentityIS5_ESt4lessIS5_ESaIS5_EE16_M_insert_uniqueIS5_EESt4pairISt17_Rb_tree_iteratorIS5_EbEOT_
000000000006f56a W _ZNSt8_Rb_treeINSt7__cxx1112basic_stringIcSt11char_traitsIcESaIcEEES5_St9_IdentityIS5_ESt4lessIS5_ESaIS5_EE17_M_construct_nodeIJRKS5_EEEvPSt13_Rb_tree_nodeIS5_EDpOT_
000000000006f614 W _ZNSt8_Rb_treeINSt7__cxx1112basic_stringIcSt11char_traitsIcESaIcEEES5_St9_IdentityIS5_ESt4lessIS5_ESaIS5_EE17_M_construct_nodeIJS5_EEEvPSt13_Rb_tree_nodeIS5_EDpOT_
000000000006ccf0 W _ZNSt8_Rb_treeINSt7__cxx1112basic_stringIcSt11char_traitsIcESaIcEEES5_St9_IdentityIS5_ESt4lessIS5_ESaIS5_EE21_M_get_Node_allocatorEv
0000000000063d2e W _ZNSt8_Rb_treeINSt7__cxx1112basic_stringIcSt11char_traitsIcESaIcEEES5_St9_IdentityIS5_ESt4lessIS5_ESaIS5_EE24_M_get_insert_unique_posERKS5_
00000000000698d4 W _ZNSt8_Rb_treeINSt7__cxx1112basic_stringIcSt11char_traitsIcESaIcEEES5_St9_IdentityIS5_ESt4lessIS5_ESaIS5_EE5beginEv
00000000000698be W _ZNSt8_Rb_treeINSt7__cxx1112basic_stringIcSt11char_traitsIcESaIcEEES5_St9_IdentityIS5_ESt4lessIS5_ESaIS5_EE6_M_endEv
000000000006983e W _ZNSt8_Rb_treeINSt7__cxx1112basic_stringIcSt11char_traitsIcESaIcEEES5_St9_IdentityIS5_ESt4lessIS5_ESaIS5_EE6_S_keyEPKSt13_Rb_tree_nodeIS5_E
0000000000063cf2 W _ZNSt8_Rb_treeINSt7__cxx1112basic_stringIcSt11char_traitsIcESaIcEEES5_St9_IdentityIS5_ESt4lessIS5_ESaIS5_EE6_S_keyEPKSt18_Rb_tree_node_base
0000000000069891 W _ZNSt8_Rb_treeINSt7__cxx1112basic_stringIcSt11char_traitsIcESaIcEEES5_St9_IdentityIS5_ESt4lessIS5_ESaIS5_EE7_S_leftEPKSt18_Rb_tree_node_base
0000000000063b9f W _ZNSt8_Rb_treeINSt7__cxx1112basic_stringIcSt11char_traitsIcESaIcEEES5_St9_IdentityIS5_ESt4lessIS5_ESaIS5_EE7_S_leftEPSt18_Rb_tree_node_base
000000000005cb0e W _ZNSt8_Rb_treeINSt7__cxx1112basic_stringIcSt11char_traitsIcESaIcEEES5_St9_IdentityIS5_ESt4lessIS5_ESaIS5_EE8_M_beginEv
000000000005caa4 W _ZNSt8_Rb_treeINSt7__cxx1112basic_stringIcSt11char_traitsIcESaIcEEES5_St9_IdentityIS5_ESt4lessIS5_ESaIS5_EE8_M_eraseEPSt13_Rb_tree_nodeIS5_E
00000000000698a7 W _ZNSt8_Rb_treeINSt7__cxx1112basic_stringIcSt11char_traitsIcESaIcEEES5_St9_IdentityIS5_ESt4lessIS5_ESaIS5_EE8_S_rightEPKSt18_Rb_tree_node_base
0000000000063b89 W _ZNSt8_Rb_treeINSt7__cxx1112basic_stringIcSt11char_traitsIcESaIcEEES5_St9_IdentityIS5_ESt4lessIS5_ESaIS5_EE8_S_rightEPSt18_Rb_tree_node_base
000000000004faf8 W _ZNSt8_Rb_treeINSt7__cxx1112basic_stringIcSt11char_traitsIcESaIcEEES5_St9_IdentityIS5_ESt4lessIS5_ESaIS5_EEC1Ev
000000000004faf8 W _ZNSt8_Rb_treeINSt7__cxx1112basic_stringIcSt11char_traitsIcESaIcEEES5_St9_IdentityIS5_ESt4lessIS5_ESaIS5_EEC2Ev
0000000000054240 W _ZNSt8_Rb_treeINSt7__cxx1112basic_stringIcSt11char_traitsIcESaIcEEES5_St9_IdentityIS5_ESt4lessIS5_ESaIS5_EED1Ev
0000000000054240 W _ZNSt8_Rb_treeINSt7__cxx1112basic_stringIcSt11char_traitsIcESaIcEEES5_St9_IdentityIS5_ESt4lessIS5_ESaIS5_EED2Ev
000000000005ce6c W _ZNSt8_Rb_treeINSt7__cxx1112basic_stringIcSt11char_traitsIcESaIcEEESt4pairIKS5_N7testing8internal12CodeLocationEESt10_Select1stISB_ESt4lessIvESaISB_EE3endEv
000000000005ce1c W _ZNSt8_Rb_treeINSt7__cxx1112basic_stringIcSt11char_traitsIcESaIcEEESt4pairIKS5_N7testing8internal12CodeLocationEESt10_Select1stISB_ESt4lessIvESaISB_EE5beginEv
00000000000628e6 W _ZNSt8_Rb_treeINSt7__cxx1112basic_stringIcSt11char_traitsIcESaIcEEESt4pairIKS5_N7testing8internal12CodeLocationEESt10_Select1stISB_ESt4lessIvESaISB_EE6_S_keyEPKSt13_Rb_tree_nodeISB_E
0000000000062a40 W _ZNSt8_Rb_treeINSt7__cxx1112basic_stringIcSt11char_traitsIcESaIcEEESt4pairIKS5_N7testing8internal12CodeLocationEESt10_Select1stISB_ESt4lessIvESaISB_EE6_S_keyEPKSt18_Rb_tree_node_base
0000000000068f84 W _ZNSt8_Rb_treeINSt7__cxx1112basic_stringIcSt11char_traitsIcESaIcEEESt4pairIKS5_N7testing8internal12CodeLocationEESt10_Select1stISB_ESt4lessIvESaISB_EE7_S_leftEPKSt18_Rb_tree_node_base
0000000000068f9a W _ZNSt8_Rb_treeINSt7__cxx1112basic_stringIcSt11char_traitsIcESaIcEEESt4pairIKS5_N7testing8internal12CodeLocationEESt10_Select1stISB_ESt4lessIvESaISB_EE8_S_rightEPKSt18_Rb_tree_node_base
0000000000069a44 W _ZNSt8_Rb_treeINSt7__cxx1112basic_stringIcSt11char_traitsIcESaIcEEESt4pairIKS5_N7testing8internal34TypeParameterizedTestSuiteRegistry30TypeParameterizedTestSuiteInfoEESt10_Select1stISC_ESt4lessIS5_ESaISC_EE11_M_get_nodeEv
0000000000069c34 W _ZNSt8_Rb_treeINSt7__cxx1112basic_stringIcSt11char_traitsIcESaIcEEESt4pairIKS5_N7testing8internal34TypeParameterizedTestSuiteRegistry30TypeParameterizedTestSuiteInfoEESt10_Select1stISC_ESt4lessIS5_ESaISC_EE11_M_put_nodeEPSt13_Rb_tree_nodeISC_E
0000000000064576 W _ZNSt8_Rb_treeINSt7__cxx1112basic_stringIcSt11char_traitsIcESaIcEEESt4pairIKS5_N7testing8internal34TypeParameterizedTestSuiteRegistry30TypeParameterizedTestSuiteInfoEESt10_Select1stISC_ESt4lessIS5_ESaISC_EE12_M_drop_nodeEPSt13_Rb_tree_nodeISC_E
0000000000059806 W _ZNSt8_Rb_treeINSt7__cxx1112basic_stringIcSt11char_traitsIcESaIcEEESt4pairIKS5_N7testing8internal34TypeParameterizedTestSuiteRegistry30TypeParameterizedTestSuiteInfoEESt10_Select1stISC_ESt4lessIS5_ESaISC_EE13_Rb_tree_implISG_Lb1EEC1Ev
0000000000059806 W _ZNSt8_Rb_treeINSt7__cxx1112basic_stringIcSt11char_traitsIcESaIcEEESt4pairIKS5_N7testing8internal34TypeParameterizedTestSuiteRegistry30TypeParameterizedTestSuiteInfoEESt10_Select1stISC_ESt4lessIS5_ESaISC_EE13_Rb_tree_implISG_Lb1EEC2Ev
0000000000050ace W _ZNSt8_Rb_treeINSt7__cxx1112basic_stringIcSt11char_traitsIcESaIcEEESt4pairIKS5_N7testing8internal34TypeParameterizedTestSuiteRegistry30TypeParameterizedTestSuiteInfoEESt10_Select1stISC_ESt4lessIS5_ESaISC_EE13_Rb_tree_implISG_Lb1EED1Ev
0000000000050ace W _ZNSt8_Rb_treeINSt7__cxx1112basic_stringIcSt11char_traitsIcESaIcEEESt4pairIKS5_N7testing8internal34TypeParameterizedTestSuiteRegistry30TypeParameterizedTestSuiteInfoEESt10_Select1stISC_ESt4lessIS5_ESaISC_EE13_Rb_tree_implISG_Lb1EED2Ev
00000000000641f0 W _ZNSt8_Rb_treeINSt7__cxx1112basic_stringIcSt11char_traitsIcESaIcEEESt4pairIKS5_N7testing8internal34TypeParameterizedTestSuiteRegistry30TypeParameterizedTestSuiteInfoEESt10_Select1stISC_ESt4lessIS5_ESaISC_EE14_M_create_nodeIJS5_SB_EEEPSt13_Rb_tree_nodeISC_EDpOT_
0000000000064444 W _ZNSt8_Rb_treeINSt7__cxx1112basic_stringIcSt11char_traitsIcESaIcEEESt4pairIKS5_N7testing8internal34TypeParameterizedTestSuiteRegistry30TypeParameterizedTestSuiteInfoEESt10_Select1stISC_ESt4lessIS5_ESaISC_EE14_M_insert_nodeEPSt18_Rb_tree_node_baseSK_PSt13_Rb_tree_nodeISC_E
00000000000645e8 W _ZNSt8_Rb_treeINSt7__cxx1112basic_stringIcSt11char_traitsIcESaIcEEESt4pairIKS5_N7testing8internal34TypeParameterizedTestSuiteRegistry30TypeParameterizedTestSuiteInfoEESt10_Select1stISC_ESt4lessIS5_ESaISC_EE14_M_lower_boundEPSt13_Rb_tree_nodeISC_EPSt18_Rb_tree_node_baseRS7_
0000000000069bf2 W _ZNSt8_Rb_treeINSt7__cxx1112basic_stringIcSt11char_traitsIcESaIcEEESt4pairIKS5_N7testing8internal34TypeParameterizedTestSuiteRegistry30TypeParameterizedTestSuiteInfoEESt10_Select1stISC_ESt4lessIS5_ESaISC_EE15_M_destroy_nodeEPSt13_Rb_tree_nodeISC_E
0000000000069a70 W _ZNSt8_Rb_treeINSt7__cxx1112basic_stringIcSt11char_traitsIcESaIcEEESt4pairIKS5_N7testing8internal34TypeParameterizedTestSuiteRegistry30TypeParameterizedTestSuiteInfoEESt10_Select1stISC_ESt4lessIS5_ESaISC_EE17_M_construct_nodeIJS5_SB_EEEvPSt13_Rb_tree_nodeISC_EDpOT_
000000000005d02c W _ZNSt8_Rb_treeINSt7__cxx1112basic_stringIcSt11char_traitsIcESaIcEEESt4pairIKS5_N7testing8internal34TypeParameterizedTestSuiteRegistry30TypeParameterizedTestSuiteInfoEESt10_Select1stISC_ESt4lessIS5_ESaISC_EE17_M_emplace_uniqueIJS5_SB_EEES6_ISt17_Rb_tree_iteratorISC_EbEDpOT_
000000000006ce4c W _ZNSt8_Rb_treeINSt7__cxx1112basic_stringIcSt11char_traitsIcESaIcEEESt4pairIKS5_N7testing8internal34TypeParameterizedTestSuiteRegistry30TypeParameterizedTestSuiteInfoEESt10_Select1stISC_ESt4lessIS5_ESaISC_EE21_M_get_Node_allocatorEv
0000000000064254 W _ZNSt8_Rb_treeINSt7__cxx1112basic_stringIcSt11char_traitsIcESaIcEEESt4pairIKS5_N7testing8internal34TypeParameterizedTestSuiteRegistry30TypeParameterizedTestSuiteInfoEESt10_Select1stISC_ESt4lessIS5_ESaISC_EE24_M_get_insert_unique_posERS7_
000000000005d26e W _ZNSt8_Rb_treeINSt7__cxx1112basic_stringIcSt11char_traitsIcESaIcEEESt4pairIKS5_N7testing8internal34TypeParameterizedTestSuiteRegistry30TypeParameterizedTestSuiteInfoEESt10_Select1stISC_ESt4lessIS5_ESaISC_EE3endEv
000000000005d198 W _ZNSt8_Rb_treeINSt7__cxx1112basic_stringIcSt11char_traitsIcESaIcEEESt4pairIKS5_N7testing8internal34TypeParameterizedTestSuiteRegistry30TypeParameterizedTestSuiteInfoEESt10_Select1stISC_ESt4lessIS5_ESaISC_EE4findERS7_
000000000005d2e0 W _ZNSt8_Rb_treeINSt7__cxx1112basic_stringIcSt11char_traitsIcESaIcEEESt4pairIKS5_N7testing8internal34TypeParameterizedTestSuiteRegistry30TypeParameterizedTestSuiteInfoEESt10_Select1stISC_ESt4lessIS5_ESaISC_EE5beginEv
00000000000645d2 W _ZNSt8_Rb_treeINSt7__cxx1112basic_stringIcSt11char_traitsIcESaIcEEESt4pairIKS5_N7testing8internal34TypeParameterizedTestSuiteRegistry30TypeParameterizedTestSuiteInfoEESt10_Select1stISC_ESt4lessIS5_ESaISC_EE6_M_endEv
00000000000643f0 W _ZNSt8_Rb_treeINSt7__cxx1112basic_stringIcSt11char_traitsIcESaIcEEESt4pairIKS5_N7testing8internal34TypeParameterizedTestSuiteRegistry30TypeParameterizedTestSuiteInfoEESt10_Select1stISC_ESt4lessIS5_ESaISC_EE6_S_keyEPKSt13_Rb_tree_nodeISC_E
00000000000646ca W _ZNSt8_Rb_treeINSt7__cxx1112basic_stringIcSt11char_traitsIcESaIcEEESt4pairIKS5_N7testing8internal34TypeParameterizedTestSuiteRegistry30TypeParameterizedTestSuiteInfoEESt10_Select1stISC_ESt4lessIS5_ESaISC_EE6_S_keyEPKSt18_Rb_tree_node_base
0000000000068491 W _ZNSt8_Rb_treeINSt7__cxx1112basic_stringIcSt11char_traitsIcESaIcEEESt4pairIKS5_N7testing8internal34TypeParameterizedTestSuiteRegistry30TypeParameterizedTestSuiteInfoEESt10_Select1stISC_ESt4lessIS5_ESaISC_EE7_S_leftEPSt18_Rb_tree_node_base
0000000000061936 W _ZNSt8_Rb_treeINSt7__cxx1112basic_stringIcSt11char_traitsIcESaIcEEESt4pairIKS5_N7testing8internal34TypeParameterizedTestSuiteRegistry30TypeParameterizedTestSuiteInfoEESt10_Select1stISC_ESt4lessIS5_ESaISC_EE8_M_beginEv
00000000000618cc W _ZNSt8_Rb_treeINSt7__cxx1112basic_stringIcSt11char_traitsIcESaIcEEESt4pairIKS5_N7testing8internal34TypeParameterizedTestSuiteRegistry30TypeParameterizedTestSuiteInfoEESt10_Select1stISC_ESt4lessIS5_ESaISC_EE8_M_eraseEPSt13_Rb_tree_nodeISC_E
000000000006847b W _ZNSt8_Rb_treeINSt7__cxx1112basic_stringIcSt11char_traitsIcESaIcEEESt4pairIKS5_N7testing8internal34TypeParameterizedTestSuiteRegistry30TypeParameterizedTestSuiteInfoEESt10_Select1stISC_ESt4lessIS5_ESaISC_EE8_S_rightEPSt18_Rb_tree_node_base
0000000000050aee W _ZNSt8_Rb_treeINSt7__cxx1112basic_stringIcSt11char_traitsIcESaIcEEESt4pairIKS5_N7testing8internal34TypeParameterizedTestSuiteRegistry30TypeParameterizedTestSuiteInfoEESt10_Select1stISC_ESt4lessIS5_ESaISC_EEC1Ev
0000000000050aee W _ZNSt8_Rb_treeINSt7__cxx1112basic_stringIcSt11char_traitsIcESaIcEEESt4pairIKS5_N7testing8internal34TypeParameterizedTestSuiteRegistry30TypeParameterizedTestSuiteInfoEESt10_Select1stISC_ESt4lessIS5_ESaISC_EEC2Ev
0000000000059862 W _ZNSt8_Rb_treeINSt7__cxx1112basic_stringIcSt11char_traitsIcESaIcEEESt4pairIKS5_N7testing8internal34TypeParameterizedTestSuiteRegistry30TypeParameterizedTestSuiteInfoEESt10_Select1stISC_ESt4lessIS5_ESaISC_EED1Ev
0000000000059862 W _ZNSt8_Rb_treeINSt7__cxx1112basic_stringIcSt11char_traitsIcESaIcEEESt4pairIKS5_N7testing8internal34TypeParameterizedTestSuiteRegistry30TypeParameterizedTestSuiteInfoEESt10_Select1stISC_ESt4lessIS5_ESaISC_EED2Ev
000000000006a84a W _ZNSt8_Rb_treeINSt7__cxx1112basic_stringIcSt11char_traitsIcESaIcEEESt4pairIKS5_mESt10_Select1stIS8_ESt4lessIS5_ESaIS8_EE11_M_get_nodeEv
000000000006ab96 W _ZNSt8_Rb_treeINSt7__cxx1112basic_stringIcSt11char_traitsIcESaIcEEESt4pairIKS5_mESt10_Select1stIS8_ESt4lessIS5_ESaIS8_EE11_M_leftmostEv
000000000006acc6 W _ZNSt8_Rb_treeINSt7__cxx1112basic_stringIcSt11char_traitsIcESaIcEEESt4pairIKS5_mESt10_Select1stIS8_ESt4lessIS5_ESaIS8_EE11_M_put_nodeEPSt13_Rb_tree_nodeIS8_E
0000000000065a5e W _ZNSt8_Rb_treeINSt7__cxx1112basic_stringIcSt11char_traitsIcESaIcEEESt4pairIKS5_mESt10_Select1stIS8_ESt4lessIS5_ESaIS8_EE11lower_boundERS7_
00000000000660b0 W _ZNSt8_Rb_treeINSt7__cxx1112basic_stringIcSt11char_traitsIcESaIcEEESt4pairIKS5_mESt10_Select1stIS8_ESt4lessIS5_ESaIS8_EE12_M_drop_nodeEPSt13_Rb_tree_nodeIS8_E
000000000006a9a4 W _ZNSt8_Rb_treeINSt7__cxx1112basic_stringIcSt11char_traitsIcESaIcEEESt4pairIKS5_mESt10_Select1stIS8_ESt4lessIS5_ESaIS8_EE12_M_rightmostEv
0000000000055da4 W _ZNSt8_Rb_treeINSt7__cxx1112basic_stringIcSt11char_traitsIcESaIcEEESt4pairIKS5_mESt10_Select1stIS8_ESt4lessIS5_ESaIS8_EE13_Rb_tree_implISC_Lb1EEC1Ev
0000000000055da4 W _ZNSt8_Rb_treeINSt7__cxx1112basic_stringIcSt11char_traitsIcESaIcEEESt4pairIKS5_mESt10_Select1stIS8_ESt4lessIS5_ESaIS8_EE13_Rb_tree_implISC_Lb1EEC2Ev
000000000004ffe6 W _ZNSt8_Rb_treeINSt7__cxx1112basic_stringIcSt11char_traitsIcESaIcEEESt4pairIKS5_mESt10_Select1stIS8_ESt4lessIS5_ESaIS8_EE13_Rb_tree_implISC_Lb1EED1Ev
000000000004ffe6 W _ZNSt8_Rb_treeINSt7__cxx1112basic_stringIcSt11char_traitsIcESaIcEEESt4pairIKS5_mESt10_Select1stIS8_ESt4lessIS5_ESaIS8_EE13_Rb_tree_implISC_Lb1EED2Ev
0000000000065b4a W _ZNSt8_Rb_treeINSt7__cxx1112basic_stringIcSt11char_traitsIcESaIcEEESt4pairIKS5_mESt10_Select1stIS8_ESt4lessIS5_ESaIS8_EE14_M_create_nodeIJRKSt21piecewise_construct_tSt5tupleIJRS7_EESJ_IJEEEEEPSt13_Rb_tree_nodeIS8_EDpOT_
0000000000065fc6 W _ZNSt8_Rb_treeINSt7__cxx1112basic_stringIcSt11char_traitsIcESaIcEEESt4pairIKS5_mESt10_Select1stIS8_ESt4lessIS5_ESaIS8_EE14_M_insert_nodeEPSt18_Rb_tree_node_baseSG_PSt13_Rb_tree_nodeIS8_E
0000000000065948 W _ZNSt8_Rb_treeINSt7__cxx1112basic_stringIcSt11char_traitsIcESaIcEEESt4pairIKS5_mESt10_Select1stIS8_ESt4lessIS5_ESaIS8_EE14_M_lower_boundEPSt13_Rb_tree_nodeIS8_EPSt18_Rb_tree_node_baseRS7_
000000000006ac84 W _ZNSt8_Rb_treeINSt7__cxx1112basic_stringIcSt11char_traitsIcESaIcEEESt4pairIKS5_mESt10_Select1stIS8_ESt4lessIS5_ESaIS8_EE15_M_destroy_nodeEPSt13_Rb_tree_nodeIS8_E
000000000006a876 W _ZNSt8_Rb_treeINSt7__cxx1112basic_stringIcSt11char_traitsIcESaIcEEESt4pairIKS5_mESt10_Select1stIS8_ESt4lessIS5_ESaIS8_EE17_M_construct_nodeIJRKSt21piecewise_construct_tSt5tupleIJRS7_EESJ_IJEEEEEvPSt13_Rb_tree_nodeIS8_EDpOT_
000000000006da08 W _ZNSt8_Rb_treeINSt7__cxx1112basic_stringIcSt11char_traitsIcESaIcEEESt4pairIKS5_mESt10_Select1stIS8_ESt4lessIS5_ESaIS8_EE21_M_get_Node_allocatorEv
000000000005ea4e W _ZNSt8_Rb_treeINSt7__cxx1112basic_stringIcSt11char_traitsIcESaIcEEESt4pairIKS5_mESt10_Select1stIS8_ESt4lessIS5_ESaIS8_EE22_M_emplace_hint_uniqueIJRKSt21piecewise_construct_tSt5tupleIJRS7_EESJ_IJEEEEESt17_Rb_tree_iteratorIS8_ESt23_Rb_tree_const_iteratorIS8_EDpOT_
000000000006a9fa W _ZNSt8_Rb_treeINSt7__cxx1112basic_stringIcSt11char_traitsIcESaIcEEESt4pairIKS5_mESt10_Select1stIS8_ESt4lessIS5_ESaIS8_EE24_M_get_insert_unique_posERS7_
0000000000065bca W _ZNSt8_Rb_treeINSt7__cxx1112basic_stringIcSt11char_traitsIcESaIcEEESt4pairIKS5_mESt10_Select1stIS8_ESt4lessIS5_ESaIS8_EE29_M_get_insert_hint_unique_posESt23_Rb_tree_const_iteratorIS8_ERS7_
000000000005e8b4 W _ZNSt8_Rb_treeINSt7__cxx1112basic_stringIcSt11char_traitsIcESaIcEEESt4pairIKS5_mESt10_Select1stIS8_ESt4lessIS5_ESaIS8_EE3endEv
000000000005e7de W _ZNSt8_Rb_treeINSt7__cxx1112basic_stringIcSt11char_traitsIcESaIcEEESt4pairIKS5_mESt10_Select1stIS8_ESt4lessIS5_ESaIS8_EE4findERS7_
000000000006dab8 W _ZNSt8_Rb_treeINSt7__cxx1112basic_stringIcSt11char_traitsIcESaIcEEESt4pairIKS5_mESt10_Select1stIS8_ESt4lessIS5_ESaIS8_EE5beginEv
0000000000065932 W _ZNSt8_Rb_treeINSt7__cxx1112basic_stringIcSt11char_traitsIcESaIcEEESt4pairIKS5_mESt10_Select1stIS8_ESt4lessIS5_ESaIS8_EE6_M_endEv
0000000000065f72 W _ZNSt8_Rb_treeINSt7__cxx1112basic_stringIcSt11char_traitsIcESaIcEEESt4pairIKS5_mESt10_Select1stIS8_ESt4lessIS5_ESaIS8_EE6_S_keyEPKSt13_Rb_tree_nodeIS8_E
0000000000065a04 W _ZNSt8_Rb_treeINSt7__cxx1112basic_stringIcSt11char_traitsIcESaIcEEESt4pairIKS5_mESt10_Select1stIS8_ESt4lessIS5_ESaIS8_EE6_S_keyEPKSt18_Rb_tree_node_base
000000000006617f W _ZNSt8_Rb_treeINSt7__cxx1112basic_stringIcSt11char_traitsIcESaIcEEESt4pairIKS5_mESt10_Select1stIS8_ESt4lessIS5_ESaIS8_EE7_S_leftEPSt18_Rb_tree_node_base
000000000005ed0a W _ZNSt8_Rb_treeINSt7__cxx1112basic_stringIcSt11char_traitsIcESaIcEEESt4pairIKS5_mESt10_Select1stIS8_ESt4lessIS5_ESaIS8_EE8_M_beginEv
000000000005eca0 W _ZNSt8_Rb_treeINSt7__cxx1112basic_stringIcSt11char_traitsIcESaIcEEESt4pairIKS5_mESt10_Select1stIS8_ESt4lessIS5_ESaIS8_EE8_M_eraseEPSt13_Rb_tree_nodeIS8_E
0000000000066169 W _ZNSt8_Rb_treeINSt7__cxx1112basic_stringIcSt11char_traitsIcESaIcEEESt4pairIKS5_mESt10_Select1stIS8_ESt4lessIS5_ESaIS8_EE8_S_rightEPSt18_Rb_tree_node_base
0000000000050006 W _ZNSt8_Rb_treeINSt7__cxx1112basic_stringIcSt11char_traitsIcESaIcEEESt4pairIKS5_mESt10_Select1stIS8_ESt4lessIS5_ESaIS8_EEC1Ev
0000000000050006 W _ZNSt8_Rb_treeINSt7__cxx1112basic_stringIcSt11char_traitsIcESaIcEEESt4pairIKS5_mESt10_Select1stIS8_ESt4lessIS5_ESaIS8_EEC2Ev
0000000000055e00 W _ZNSt8_Rb_treeINSt7__cxx1112basic_stringIcSt11char_traitsIcESaIcEEESt4pairIKS5_mESt10_Select1stIS8_ESt4lessIS5_ESaIS8_EED1Ev
0000000000055e00 W _ZNSt8_Rb_treeINSt7__cxx1112basic_stringIcSt11char_traitsIcESaIcEEESt4pairIKS5_mESt10_Select1stIS8_ESt4lessIS5_ESaIS8_EED2Ev
00000000000734f6 W _ZNSt8__detail10_AllocNodeISaINS_10_Hash_nodeINSt7__cxx1112basic_stringIcSt11char_traitsIcESaIcEEELb1EEEEEC1ERNS_16_Hashtable_allocIS9_EE
00000000000734f6 W _ZNSt8__detail10_AllocNodeISaINS_10_Hash_nodeINSt7__cxx1112basic_stringIcSt11char_traitsIcESaIcEEELb1EEEEEC2ERNS_16_Hashtable_allocIS9_EE
000000000007403a W _ZNSt8__detail10_Hash_nodeINSt7__cxx1112basic_stringIcSt11char_traitsIcESaIcEEELb1EEC1Ev
000000000007403a W _ZNSt8__detail10_Hash_nodeINSt7__cxx1112basic_stringIcSt11char_traitsIcESaIcEEELb1EEC2Ev
00000000000734e4 W _ZNSt8__detail12_Insert_baseINSt7__cxx1112basic_stringIcSt11char_traitsIcESaIcEEES6_SaIS6_ENS_9_IdentityESt8equal_toIS6_ESt4hashIS6_ENS_18_Mod_range_hashingENS_20_Default_ranged_hashENS_20_Prime_rehash_policyENS_17_Hashtable_traitsILb1ELb1ELb1EEEE20_M_conjure_hashtableEv
0000000000064a52 W _ZNSt8__detail14_Node_iteratorINSt7__cxx1112basic_stringIcSt11char_traitsIcESaIcEEELb1ELb1EEC1EPNS_10_Hash_nodeIS6_Lb1EEE
0000000000064a52 W _ZNSt8__detail14_Node_iteratorINSt7__cxx1112basic_stringIcSt11char_traitsIcESaIcEEELb1ELb1EEC2EPNS_10_Hash_nodeIS6_Lb1EEE
000000000007193e W _ZNSt8__detail14_Node_iteratorINSt7__cxx1112basic_stringIcSt11char_traitsIcESaIcEEELb1ELb1EEppEv
000000000004fcea W _ZNSt8__detail15_Hash_code_baseINSt7__cxx1112basic_stringIcSt11char_traitsIcESaIcEEES6_NS_9_IdentityESt4hashIS6_ENS_18_Mod_range_hashingENS_20_Default_ranged_hashELb1EEC1Ev
000000000004fcea W _ZNSt8__detail15_Hash_code_baseINSt7__cxx1112basic_stringIcSt11char_traitsIcESaIcEEES6_NS_9_IdentityESt4hashIS6_ENS_18_Mod_range_hashingENS_20_Default_ranged_hashELb1EEC2Ev
000000000004b546 W _ZNSt8__detail15_Hash_node_baseC1Ev
000000000004b546 W _ZNSt8__detail15_Hash_node_baseC2Ev
0000000000071960 W _ZNSt8__detail15_Hashtable_baseINSt7__cxx1112basic_stringIcSt11char_traitsIcESaIcEEES6_NS_9_IdentityESt8equal_toIS6_ESt4hashIS6_ENS_18_Mod_range_hashingENS_20_Default_ranged_hashENS_17_Hashtable_traitsILb1ELb1ELb1EEEE9_S_equalsEmRKNS_21_Hash_node_code_cacheILb1EEE
000000000004fd0a W _ZNSt8__detail15_Hashtable_baseINSt7__cxx1112basic_stringIcSt11char_traitsIcESaIcEEES6_NS_9_IdentityESt8equal_toIS6_ESt4hashIS6_ENS_18_Mod_range_hashingENS_20_Default_ranged_hashENS_17_Hashtable_traitsILb1ELb1ELb1EEEEC1Ev
000000000004fd0a W _ZNSt8__detail15_Hashtable_baseINSt7__cxx1112basic_stringIcSt11char_traitsIcESaIcEEES6_NS_9_IdentityESt8equal_toIS6_ESt4hashIS6_ENS_18_Mod_range_hashingENS_20_Default_ranged_hashENS_17_Hashtable_traitsILb1ELb1ELb1EEEEC2Ev
                 U _ZNSt8__detail15_List_node_base11_M_transferEPS0_S1_@GLIBCXX_3.4.15
                 U _ZNSt8__detail15_List_node_base7_M_hookEPS0_@GLIBCXX_3.4.15
000000000007405a W _ZNSt8__detail16_Hashtable_allocISaINS_10_Hash_nodeINSt7__cxx1112basic_stringIcSt11char_traitsIcESaIcEEELb1EEEEE16_M_allocate_nodeIJS7_EEEPS8_DpOT_
0000000000064c58 W _ZNSt8__detail16_Hashtable_allocISaINS_10_Hash_nodeINSt7__cxx1112basic_stringIcSt11char_traitsIcESaIcEEELb1EEEEE17_M_node_allocatorEv
0000000000069c96 W _ZNSt8__detail16_Hashtable_allocISaINS_10_Hash_nodeINSt7__cxx1112basic_stringIcSt11char_traitsIcESaIcEEELb1EEEEE18_M_deallocate_nodeEPS8_
00000000000748bc W _ZNSt8__detail16_Hashtable_allocISaINS_10_Hash_nodeINSt7__cxx1112basic_stringIcSt11char_traitsIcESaIcEEELb1EEEEE19_M_allocate_bucketsEm
000000000006476c W _ZNSt8__detail16_Hashtable_allocISaINS_10_Hash_nodeINSt7__cxx1112basic_stringIcSt11char_traitsIcESaIcEEELb1EEEEE19_M_deallocate_nodesEPS8_
0000000000069d1a W _ZNSt8__detail16_Hashtable_allocISaINS_10_Hash_nodeINSt7__cxx1112basic_stringIcSt11char_traitsIcESaIcEEELb1EEEEE21_M_deallocate_bucketsEPPNS_15_Hash_node_baseEm
000000000006cfc4 W _ZNSt8__detail16_Hashtable_allocISaINS_10_Hash_nodeINSt7__cxx1112basic_stringIcSt11char_traitsIcESaIcEEELb1EEEEE22_M_deallocate_node_ptrEPS8_
000000000004fd56 W _ZNSt8__detail16_Hashtable_allocISaINS_10_Hash_nodeINSt7__cxx1112basic_stringIcSt11char_traitsIcESaIcEEELb1EEEEEC1Ev
000000000004fd56 W _ZNSt8__detail16_Hashtable_allocISaINS_10_Hash_nodeINSt7__cxx1112basic_stringIcSt11char_traitsIcESaIcEEELb1EEEEEC2Ev
000000000004fd76 W _ZNSt8__detail16_Hashtable_allocISaINS_10_Hash_nodeINSt7__cxx1112basic_stringIcSt11char_traitsIcESaIcEEELb1EEEEED1Ev
000000000004fd76 W _ZNSt8__detail16_Hashtable_allocISaINS_10_Hash_nodeINSt7__cxx1112basic_stringIcSt11char_traitsIcESaIcEEELb1EEEEED2Ev
000000000004fb9c W _ZNSt8__detail17_List_node_header7_M_initEv
000000000004fb7c W _ZNSt8__detail17_List_node_headerC1Ev
000000000004fb7c W _ZNSt8__detail17_List_node_headerC2Ev
000000000006a06c W _ZNSt8__detail19_Node_iterator_baseINSt7__cxx1112basic_stringIcSt11char_traitsIcESaIcEEELb1EE7_M_incrEv
0000000000069f34 W _ZNSt8__detail19_Node_iterator_baseINSt7__cxx1112basic_stringIcSt11char_traitsIcESaIcEEELb1EEC1EPNS_10_Hash_nodeIS6_Lb1EEE
0000000000069f34 W _ZNSt8__detail19_Node_iterator_baseINSt7__cxx1112basic_stringIcSt11char_traitsIcESaIcEEELb1EEC2EPNS_10_Hash_nodeIS6_Lb1EEE
000000000006a042 W _ZNSt8__detail20_Node_const_iteratorINSt7__cxx1112basic_stringIcSt11char_traitsIcESaIcEEELb1ELb1EEC1EPNS_10_Hash_nodeIS6_Lb1EEE
00000000000718ce W _ZNSt8__detail20_Node_const_iteratorINSt7__cxx1112basic_stringIcSt11char_traitsIcESaIcEEELb1ELb1EEC1ERKNS_14_Node_iteratorIS6_Lb1ELb1EEE
000000000006a042 W _ZNSt8__detail20_Node_const_iteratorINSt7__cxx1112basic_stringIcSt11char_traitsIcESaIcEEELb1ELb1EEC2EPNS_10_Hash_nodeIS6_Lb1EEE
00000000000718ce W _ZNSt8__detail20_Node_const_iteratorINSt7__cxx1112basic_stringIcSt11char_traitsIcESaIcEEELb1ELb1EEC2ERKNS_14_Node_iteratorIS6_Lb1ELb1EEE
000000000004b5e6 W _ZNSt8__detail20_Prime_rehash_policy8_M_resetEm
000000000004b5ca W _ZNSt8__detail20_Prime_rehash_policy8_M_resetEv
000000000004b586 W _ZNSt8__detail20_Prime_rehash_policyC1Ef
000000000004b586 W _ZNSt8__detail20_Prime_rehash_policyC2Ef
000000000006cf7c W _ZNSt8__detail21_Hash_node_value_baseINSt7__cxx1112basic_stringIcSt11char_traitsIcESaIcEEEE9_M_valptrEv
000000000006a134 W _ZNSt8__detail21_Hashtable_ebo_helperILi0ESaINS_10_Hash_nodeINSt7__cxx1112basic_stringIcSt11char_traitsIcESaIcEEELb1EEEELb1EE6_M_getEv
00000000000548e4 W _ZNSt8__detail21_Hashtable_ebo_helperILi0ESaINS_10_Hash_nodeINSt7__cxx1112basic_stringIcSt11char_traitsIcESaIcEEELb1EEEELb1EEC1Ev
00000000000548e4 W _ZNSt8__detail21_Hashtable_ebo_helperILi0ESaINS_10_Hash_nodeINSt7__cxx1112basic_stringIcSt11char_traitsIcESaIcEEELb1EEEELb1EEC2Ev
000000000004fd36 W _ZNSt8__detail21_Hashtable_ebo_helperILi0ESaINS_10_Hash_nodeINSt7__cxx1112basic_stringIcSt11char_traitsIcESaIcEEELb1EEEELb1EED1Ev
000000000004fd36 W _ZNSt8__detail21_Hashtable_ebo_helperILi0ESaINS_10_Hash_nodeINSt7__cxx1112basic_stringIcSt11char_traitsIcESaIcEEELb1EEEELb1EED2Ev
00000000000548d4 W _ZNSt8__detail21_Hashtable_ebo_helperILi0ESt8equal_toINSt7__cxx1112basic_stringIcSt11char_traitsIcESaIcEEEELb1EEC1Ev
00000000000548d4 W _ZNSt8__detail21_Hashtable_ebo_helperILi0ESt8equal_toINSt7__cxx1112basic_stringIcSt11char_traitsIcESaIcEEEELb1EEC2Ev
00000000000548c4 W _ZNSt8__detail21_Hashtable_ebo_helperILi1ESt4hashINSt7__cxx1112basic_stringIcSt11char_traitsIcESaIcEEEELb1EEC1Ev
00000000000548c4 W _ZNSt8__detail21_Hashtable_ebo_helperILi1ESt4hashINSt7__cxx1112basic_stringIcSt11char_traitsIcESaIcEEEELb1EEC2Ev
000000000006bc24 W _ZNSt8__detail25__return_temporary_bufferIPN7testing8TestInfoEEEvPT_m
0000000000072cdc W _ZNSt8__detail7_InsertINSt7__cxx1112basic_stringIcSt11char_traitsIcESaIcEEES6_SaIS6_ENS_9_IdentityESt8equal_toIS6_ESt4hashIS6_ENS_18_Mod_range_hashingENS_20_Default_ranged_hashENS_20_Prime_rehash_policyENS_17_Hashtable_traitsILb1ELb1ELb1EEELb1EE6insertENS_20_Node_const_iteratorIS6_Lb1ELb1EEEOS6_
                 U _ZNSt8ios_base4InitC1Ev@GLIBCXX_3.4
                 U _ZNSt8ios_base4InitD1Ev@GLIBCXX_3.4
000000000004a742 W _ZNSt8ios_base4setfESt13_Ios_Fmtflags
000000000004a77a W _ZNSt8ios_base4setfESt13_Ios_FmtflagsS0_
000000000004a71a W _ZNSt8ios_base5flagsESt13_Ios_Fmtflags
000000000006fdd1 W _ZSt10_ConstructIN7testing8internal13edit_distance8EditTypeEJEEvPT_DpOT0_
0000000000071e53 W _ZSt10_ConstructINSt7__cxx1112basic_stringIcSt11char_traitsIcESaIcEEEJRKPKcEEvPT_DpOT0_
000000000006cb16 W _ZSt10_ConstructINSt7__cxx1112basic_stringIcSt11char_traitsIcESaIcEEEJRKS5_EEvPT_DpOT0_
000000000006feca W _ZSt10_ConstructISt6vectorIN7testing8internal13edit_distance8EditTypeESaIS4_EEJRKS6_EEvPT_DpOT0_
000000000006fd60 W _ZSt10_ConstructISt6vectorIdSaIdEEJRKS2_EEvPT_DpOT0_
000000000006fc65 W _ZSt10_ConstructIdJEEvPT_DpOT0_
00000000000634c5 W _ZSt10__distanceIN9__gnu_cxx17__normal_iteratorIPKNSt7__cxx1112basic_stringIcSt11char_traitsIcESaIcEEESt6vectorIS7_SaIS7_EEEEENSt15iterator_traitsIT_E15difference_typeESF_SF_St26random_access_iterator_tag
000000000006dfc1 W _ZSt10__distanceIN9__gnu_cxx17__normal_iteratorIPKcNSt7__cxx1112basic_stringIcSt11char_traitsIcESaIcEEEEEENSt15iterator_traitsIT_E15difference_typeESC_SC_St26random_access_iterator_tag
000000000005d4ec W _ZSt10__distanceIN9__gnu_cxx17__normal_iteratorIPNSt7__cxx1112basic_stringIcSt11char_traitsIcESaIcEEESt6vectorIS7_SaIS7_EEEEENSt15iterator_traitsIT_E15difference_typeESE_SE_St26random_access_iterator_tag
00000000000708f7 W _ZSt10__distanceIN9__gnu_cxx17__normal_iteratorIPPN7testing8TestInfoESt6vectorIS4_SaIS4_EEEEENSt15iterator_traitsIT_E15difference_typeESB_SB_St26random_access_iterator_tag
000000000006b40d W _ZSt10__distanceIPKPKcENSt15iterator_traitsIT_E15difference_typeES5_S5_St26random_access_iterator_tag
000000000006289f W _ZSt10__distanceIPKcENSt15iterator_traitsIT_E15difference_typeES3_S3_St26random_access_iterator_tag
0000000000062b7d W _ZSt10__distanceIPKwENSt15iterator_traitsIT_E15difference_typeES3_S3_St26random_access_iterator_tag
0000000000071b5f W _ZSt10__fill_n_aIPN7testing8internal13edit_distance8EditTypeEmS3_ET_S5_T0_RKT1_St26random_access_iterator_tag
00000000000719be W _ZSt10__fill_n_aIPdmdET_S1_T0_RKT1_St26random_access_iterator_tag
000000000006f206 W _ZSt10make_tupleIJPKN7testing8internal11MatcherBaseINSt7__cxx1112basic_stringIcSt11char_traitsIcESaIcEEEEEPKNS1_9EqMatcherIS8_EEEESt5tupleIJDpNSt25__strip_reference_wrapperINSt5decayIT_E4typeEE6__typeEEEDpOSJ_
000000000006f161 W _ZSt10make_tupleIJPKN7testing8internal11MatcherBaseIRKNSt7__cxx1112basic_stringIcSt11char_traitsIcESaIcEEEEEPKNS1_9EqMatcherIS8_EEEESt5tupleIJDpNSt25__strip_reference_wrapperINSt5decayIT_E4typeEE6__typeEEEDpOSL_
000000000006f2f9 W _ZSt10make_tupleIJPKN7testing8internal11MatcherBaseIRKSt17basic_string_viewIcSt11char_traitsIcEEEEPKNS1_9EqMatcherINSt7__cxx1112basic_stringIcS5_SaIcEEEEEEESt5tupleIJDpNSt25__strip_reference_wrapperINSt5decayIT_E4typeEE6__typeEEEDpOSN_
000000000006f38c W _ZSt10make_tupleIJPKN7testing8internal11MatcherBaseISt17basic_string_viewIcSt11char_traitsIcEEEEPKNS1_9EqMatcherINSt7__cxx1112basic_stringIcS5_SaIcEEEEEEESt5tupleIJDpNSt25__strip_reference_wrapperINSt5decayIT_E4typeEE6__typeEEEDpOSL_
                 U _ZSt11_Hash_bytesPKvmm@CXXABI_1.3.5
000000000006dd5c W _ZSt11__addressofIN7testing12TestPropertyEEPT_RS2_
000000000006dd2b W _ZSt11__addressofIN7testing14TestPartResultEEPT_RS2_
000000000006d74a W _ZSt11__addressofIN7testing8internal13edit_distance8EditTypeEEPT_RS4_
00000000000710da W _ZSt11__addressofIN7testing8internal9TraceInfoEEPT_RS3_
0000000000053227 W _ZSt11__addressofINSt7__cxx1112basic_stringIcSt11char_traitsIcESaIcEEEEPT_RS6_
0000000000072b23 W _ZSt11__addressofINSt8__detail10_Hash_nodeINSt7__cxx1112basic_stringIcSt11char_traitsIcESaIcEEELb1EEEEPT_RS9_
000000000007187f W _ZSt11__addressofIPNSt8__detail15_Hash_node_baseEEPT_RS3_
000000000006dcc8 W _ZSt11__addressofISaISt10_List_nodeISt4pairIcPKcEEEEPT_RS7_
000000000005d924 W _ZSt11__addressofISt10_HashtableINSt7__cxx1112basic_stringIcSt11char_traitsIcESaIcEEES6_SaIS6_ENSt8__detail9_IdentityESt8equal_toIS6_ESt4hashIS6_ENS8_18_Mod_range_hashingENS8_20_Default_ranged_hashENS8_20_Prime_rehash_policyENS8_17_Hashtable_traitsILb1ELb1ELb1EEEEEPT_RSK_
0000000000064a7c W _ZSt11__addressofISt13unordered_setINSt7__cxx1112basic_stringIcSt11char_traitsIcESaIcEEESt4hashIS6_ESt8equal_toIS6_ESaIS6_EEEPT_RSD_
000000000006d8e0 W _ZSt11__addressofISt6vectorIN7testing8internal13edit_distance8EditTypeESaIS4_EEEPT_RS7_
0000000000064999 W _ZSt11__addressofISt6vectorINSt7__cxx1112basic_stringIcSt11char_traitsIcESaIcEEESaIS6_EEEPT_RS9_
000000000006d6fa W _ZSt11__addressofISt6vectorIdSaIdEEEPT_RS3_
000000000006d565 W _ZSt11__addressofIdEPT_RS0_
000000000005d40d W _ZSt11__partitionIN9__gnu_cxx17__normal_iteratorIPNSt7__cxx1112basic_stringIcSt11char_traitsIcESaIcEEESt6vectorIS7_SaIS7_EEEEPFbRKS7_EET_SH_SH_T0_St26bidirectional_iterator_tag
0000000000052bdd W _ZSt11make_uniqueIA_PcENSt9_MakeUniqIT_E7__arrayEm
00000000000513a1 W _ZSt11make_uniqueINSt7__cxx1112basic_stringIcSt11char_traitsIcESaIcEEEJEENSt9_MakeUniqIT_E15__single_objectEDpOT0_
000000000004727c t _ZSt11stable_sortIN9__gnu_cxx17__normal_iteratorIPPN7testing8TestInfoESt6vectorIS4_SaIS4_EEEEZNS2_9TestSuite3RunEvEUlPKS3_SC_E_EvT_SE_T0_
0000000000072087 W _ZSt11swap_rangesIN9__gnu_cxx17__normal_iteratorIPPN7testing8TestInfoESt6vectorIS4_SaIS4_EEEES9_ET0_T_SB_SA_
00000000000714d6 W _ZSt12__get_helperILm0EPKN7testing8internal11MatcherBaseINSt7__cxx1112basic_stringIcSt11char_traitsIcESaIcEEEEEJPKNS1_9EqMatcherIS8_EEEERT0_RSt11_Tuple_implIXT_EJSG_DpT1_EE
0000000000071466 W _ZSt12__get_helperILm0EPKN7testing8internal11MatcherBaseIRKNSt7__cxx1112basic_stringIcSt11char_traitsIcESaIcEEEEEJPKNS1_9EqMatcherIS8_EEEERT0_RSt11_Tuple_implIXT_EJSI_DpT1_EE
00000000000715aa W _ZSt12__get_helperILm0EPKN7testing8internal11MatcherBaseIRKSt17basic_string_viewIcSt11char_traitsIcEEEEJPKNS1_9EqMatcherINSt7__cxx1112basic_stringIcS5_SaIcEEEEEEERT0_RSt11_Tuple_implIXT_EJSK_DpT1_EE
000000000007161a W _ZSt12__get_helperILm0EPKN7testing8internal11MatcherBaseISt17basic_string_viewIcSt11char_traitsIcEEEEJPKNS1_9EqMatcherINSt7__cxx1112basic_stringIcS5_SaIcEEEEEEERT0_RSt11_Tuple_implIXT_EJSI_DpT1_EE
000000000006c41c W _ZSt12__get_helperILm0EPKNSt7__cxx1112basic_stringIcSt11char_traitsIcESaIcEEEJSt14default_deleteIS6_EEERKT0_RKSt11_Tuple_implIXT_EJSA_DpT1_EE
000000000006b6b3 W _ZSt12__get_helperILm0EPKNSt7__cxx1112basic_stringIcSt11char_traitsIcESaIcEEEJSt14default_deleteIS6_EEERT0_RSt11_Tuple_implIXT_EJSA_DpT1_EE
0000000000072d65 W _ZSt12__get_helperILm0EPN7testing8internal11ThreadLocalIPNS0_31TestPartResultReporterInterfaceEE18ValueHolderFactoryEJSt14default_deleteIS6_EEERKT0_RKSt11_Tuple_implIXT_EJSA_DpT1_EE
000000000006eb7f W _ZSt12__get_helperILm0EPN7testing8internal11ThreadLocalIPNS0_31TestPartResultReporterInterfaceEE18ValueHolderFactoryEJSt14default_deleteIS6_EEERT0_RSt11_Tuple_implIXT_EJSA_DpT1_EE
0000000000071312 W _ZSt12__get_helperILm0EPN7testing8internal11ThreadLocalISt6vectorINS1_9TraceInfoESaIS4_EEE18ValueHolderFactoryEJSt14default_deleteIS8_EEERKT0_RKSt11_Tuple_implIXT_EJSC_DpT1_EE
000000000006ec7b W _ZSt12__get_helperILm0EPN7testing8internal11ThreadLocalISt6vectorINS1_9TraceInfoESaIS4_EEE18ValueHolderFactoryEJSt14default_deleteIS8_EEERT0_RSt11_Tuple_implIXT_EJSC_DpT1_EE
000000000006b4c5 W _ZSt12__get_helperILm0EPN7testing8internal14GTestFlagSaverEJSt14default_deleteIS2_EEERT0_RSt11_Tuple_implIXT_EJS6_DpT1_EE
0000000000069194 W _ZSt12__get_helperILm0EPN7testing8internal16DeathTestFactoryEJSt14default_deleteIS2_EEERKT0_RKSt11_Tuple_implIXT_EJS6_DpT1_EE
000000000006c135 W _ZSt12__get_helperILm0EPN7testing8internal16DeathTestFactoryEJSt14default_deleteIS2_EEERT0_RSt11_Tuple_implIXT_EJS6_DpT1_EE
000000000006c53c W _ZSt12__get_helperILm0EPN7testing8internal17StreamingListener20AbstractSocketWriterEJSt14default_deleteIS3_EEERKT0_RKSt11_Tuple_implIXT_EJS7_DpT1_EE
00000000000691dd W _ZSt12__get_helperILm0EPN7testing8internal17StreamingListener20AbstractSocketWriterEJSt14default_deleteIS3_EEERT0_RSt11_Tuple_implIXT_EJS7_DpT1_EE
0000000000069176 W _ZSt12__get_helperILm0EPN7testing8internal24InternalRunDeathTestFlagEJSt14default_deleteIS2_EEERKT0_RKSt11_Tuple_implIXT_EJS6_DpT1_EE
000000000006c0eb W _ZSt12__get_helperILm0EPN7testing8internal24InternalRunDeathTestFlagEJSt14default_deleteIS2_EEERT0_RSt11_Tuple_implIXT_EJS6_DpT1_EE
00000000000160ec W _ZSt12__get_helperILm0EPNSt7__cxx1112basic_stringIcSt11char_traitsIcESaIcEEEJSt14default_deleteIS5_EEERKT0_RKSt11_Tuple_implIXT_EJS9_DpT1_EE
0000000000015fa2 W _ZSt12__get_helperILm0EPNSt7__cxx1112basic_stringIcSt11char_traitsIcESaIcEEEJSt14default_deleteIS5_EEERT0_RSt11_Tuple_implIXT_EJS9_DpT1_EE
000000000006a2b6 W _ZSt12__get_helperILm0EPNSt7__cxx1118basic_stringstreamIcSt11char_traitsIcESaIcEEEJSt14default_deleteIS5_EEERKT0_RKSt11_Tuple_implIXT_EJS9_DpT1_EE
0000000000015f48 W _ZSt12__get_helperILm0EPNSt7__cxx1118basic_stringstreamIcSt11char_traitsIcESaIcEEEJSt14default_deleteIS5_EEERT0_RSt11_Tuple_implIXT_EJS9_DpT1_EE
0000000000069327 W _ZSt12__get_helperILm0EPPcJSt14default_deleteIA_S0_EEERKT0_RKSt11_Tuple_implIXT_EJS5_DpT1_EE
0000000000069257 W _ZSt12__get_helperILm0EPPcJSt14default_deleteIA_S0_EEERT0_RSt11_Tuple_implIXT_EJS5_DpT1_EE
0000000000073bfe W _ZSt12__get_helperILm0ERKNSt7__cxx1112basic_stringIcSt11char_traitsIcESaIcEEEJEERT0_RSt11_Tuple_implIXT_EJS8_DpT1_EE
000000000006c5a3 W _ZSt12__get_helperILm1ESt14default_deleteIA_PcEJEERT0_RSt11_Tuple_implIXT_EJS4_DpT1_EE
000000000006e042 W _ZSt12__get_helperILm1ESt14default_deleteIKNSt7__cxx1112basic_stringIcSt11char_traitsIcESaIcEEEEJEERT0_RSt11_Tuple_implIXT_EJS9_DpT1_EE
0000000000071164 W _ZSt12__get_helperILm1ESt14default_deleteIN7testing8internal11ThreadLocalIPNS1_31TestPartResultReporterInterfaceEE18ValueHolderFactoryEEJEERT0_RSt11_Tuple_implIXT_EJS9_DpT1_EE
000000000007122c W _ZSt12__get_helperILm1ESt14default_deleteIN7testing8internal11ThreadLocalISt6vectorINS2_9TraceInfoESaIS5_EEE18ValueHolderFactoryEEJEERT0_RSt11_Tuple_implIXT_EJSB_DpT1_EE
000000000006df90 W _ZSt12__get_helperILm1ESt14default_deleteIN7testing8internal14GTestFlagSaverEEJEERT0_RSt11_Tuple_implIXT_EJS5_DpT1_EE
000000000006ec32 W _ZSt12__get_helperILm1ESt14default_deleteIN7testing8internal16DeathTestFactoryEEJEERT0_RSt11_Tuple_implIXT_EJS5_DpT1_EE
000000000006c51e W _ZSt12__get_helperILm1ESt14default_deleteIN7testing8internal17StreamingListener20AbstractSocketWriterEEJEERT0_RSt11_Tuple_implIXT_EJS6_DpT1_EE
000000000006c46b W _ZSt12__get_helperILm1ESt14default_deleteIN7testing8internal24InternalRunDeathTestFlagEEJEERT0_RSt11_Tuple_implIXT_EJS5_DpT1_EE
0000000000015fc0 W _ZSt12__get_helperILm1ESt14default_deleteINSt7__cxx1112basic_stringIcSt11char_traitsIcESaIcEEEEJEERT0_RSt11_Tuple_implIXT_EJS8_DpT1_EE
00000000000160ce W _ZSt12__get_helperILm1ESt14default_deleteINSt7__cxx1118basic_stringstreamIcSt11char_traitsIcESaIcEEEEJEERT0_RSt11_Tuple_implIXT_EJS8_DpT1_EE
000000000007431e W _ZSt12__miter_baseIN9__gnu_cxx17__normal_iteratorIPKN7testing8internal13edit_distance8EditTypeESt6vectorIS5_SaIS5_EEEEET_SC_
000000000007429e W _ZSt12__miter_baseIN9__gnu_cxx17__normal_iteratorIPKdSt6vectorIdSaIdEEEEET_S8_
000000000005d60c W _ZSt12__miter_baseIN9__gnu_cxx17__normal_iteratorIPNSt7__cxx1112basic_stringIcSt11char_traitsIcESaIcEEESt6vectorIS7_SaIS7_EEEEET_SD_
000000000006bda1 W _ZSt12__miter_baseIN9__gnu_cxx17__normal_iteratorIPPN7testing17TestEventListenerESt6vectorIS4_SaIS4_EEEEET_SA_
00000000000707a2 W _ZSt12__miter_baseIN9__gnu_cxx17__normal_iteratorIPPN7testing8TestInfoESt6vectorIS4_SaIS4_EEEEET_SA_
0000000000073c1c W _ZSt12__miter_baseIPNSt7__cxx1112basic_stringIcSt11char_traitsIcESaIcEEEET_S7_
0000000000072225 W _ZSt12__miter_baseIPPN7testing8TestInfoEET_S4_
000000000006c271 W _ZSt12__miter_baseIPPN7testing9TestSuiteEET_S4_
0000000000049902 t _ZSt12__move_mergeIN9__gnu_cxx17__normal_iteratorIPPN7testing8TestInfoESt6vectorIS4_SaIS4_EEEES5_NS0_5__ops15_Iter_comp_iterIZNS2_9TestSuite3RunEvEUlPKS3_SE_E_EEET0_T_SI_SI_SI_SH_T1_
0000000000049a3f t _ZSt12__move_mergeIPPN7testing8TestInfoEN9__gnu_cxx17__normal_iteratorIS3_St6vectorIS2_SaIS2_EEEENS4_5__ops15_Iter_comp_iterIZNS0_9TestSuite3RunEvEUlPKS1_SE_E_EEET0_T_SI_SI_SI_SH_T1_
0000000000074659 W _ZSt12__niter_baseIPKN7testing8internal13edit_distance8EditTypeESt6vectorIS3_SaIS3_EEET_N9__gnu_cxx17__normal_iteratorIS9_T0_EE
00000000000745df W _ZSt12__niter_baseIPKdSt6vectorIdSaIdEEET_N9__gnu_cxx17__normal_iteratorIS5_T0_EE
00000000000703d3 W _ZSt12__niter_baseIPN7testing12TestPropertyEET_S3_
000000000006f423 W _ZSt12__niter_baseIPN7testing14TestPartResultEET_S3_
000000000006ff3b W _ZSt12__niter_baseIPN7testing8internal13edit_distance8EditTypeEET_S5_
0000000000071053 W _ZSt12__niter_baseIPN7testing8internal9TraceInfoEET_S4_
000000000006d0c0 W _ZSt12__niter_baseIPNSt7__cxx1112basic_stringIcSt11char_traitsIcESaIcEEEET_S7_
00000000000649ab W _ZSt12__niter_baseIPNSt7__cxx1112basic_stringIcSt11char_traitsIcESaIcEEESt6vectorIS5_SaIS5_EEET_N9__gnu_cxx17__normal_iteratorISA_T0_EE
0000000000070fbc W _ZSt12__niter_baseIPPN7testing11EnvironmentEET_S4_
0000000000070ef4 W _ZSt12__niter_baseIPPN7testing17TestEventListenerEET_S4_
000000000006e77c W _ZSt12__niter_baseIPPN7testing17TestEventListenerESt6vectorIS2_SaIS2_EEET_N9__gnu_cxx17__normal_iteratorIS7_T0_EE
0000000000070593 W _ZSt12__niter_baseIPPN7testing8TestInfoEET_S4_
0000000000071ff3 W _ZSt12__niter_baseIPPN7testing8TestInfoESt6vectorIS2_SaIS2_EEET_N9__gnu_cxx17__normal_iteratorIS7_T0_EE
000000000006ecb7 W _ZSt12__niter_baseIPPN7testing9TestSuiteEET_S4_
0000000000074600 W _ZSt12__niter_baseIPdET_S1_
0000000000071f7a W _ZSt12__niter_baseIPiET_S1_
0000000000071d60 W _ZSt12__niter_baseIPmET_S1_
0000000000064a8e W _ZSt12__niter_baseISt15insert_iteratorISt13unordered_setINSt7__cxx1112basic_stringIcSt11char_traitsIcESaIcEEESt4hashIS7_ESt8equal_toIS7_ESaIS7_EEEET_SF_
00000000000649cc W _ZSt12__niter_baseISt15insert_iteratorISt6vectorINSt7__cxx1112basic_stringIcSt11char_traitsIcESaIcEEESaIS7_EEEET_SB_
000000000006e7ce W _ZSt12__niter_wrapIN9__gnu_cxx17__normal_iteratorIPPN7testing17TestEventListenerESt6vectorIS4_SaIS4_EEEES5_ET_SA_T0_
0000000000072045 W _ZSt12__niter_wrapIN9__gnu_cxx17__normal_iteratorIPPN7testing8TestInfoESt6vectorIS4_SaIS4_EEEES5_ET_SA_T0_
00000000000746ab W _ZSt12__niter_wrapIPN7testing8internal13edit_distance8EditTypeEET_RKS5_S5_
0000000000074000 W _ZSt12__niter_wrapIPNSt7__cxx1112basic_stringIcSt11char_traitsIcESaIcEEEET_RKS7_S7_
000000000007220f W _ZSt12__niter_wrapIPPN7testing8TestInfoEET_RKS4_S4_
000000000006ecfa W _ZSt12__niter_wrapIPPN7testing9TestSuiteEET_RKS4_S4_
0000000000074643 W _ZSt12__niter_wrapIPdET_RKS1_S1_
0000000000064aea W _ZSt12__niter_wrapISt15insert_iteratorISt13unordered_setINSt7__cxx1112basic_stringIcSt11char_traitsIcESaIcEEESt4hashIS7_ESt8equal_toIS7_ESaIS7_EEEET_RKSF_SF_
0000000000064a28 W _ZSt12__niter_wrapISt15insert_iteratorISt6vectorINSt7__cxx1112basic_stringIcSt11char_traitsIcESaIcEEESaIS7_EEEET_RKSB_SB_
000000000006de9b W _ZSt12__relocate_aIPN7testing12TestPropertyES2_SaIS1_EET0_T_S5_S4_RT1_
000000000006cc89 W _ZSt12__relocate_aIPN7testing14TestPartResultES2_SaIS1_EET0_T_S5_S4_RT1_
000000000006d9a1 W _ZSt12__relocate_aIPN7testing8internal13edit_distance8EditTypeES4_SaIS3_EET0_T_S7_S6_RT1_
000000000006ea72 W _ZSt12__relocate_aIPN7testing8internal9TraceInfoES3_SaIS2_EET0_T_S6_S5_RT1_
0000000000069e93 W _ZSt12__relocate_aIPNSt7__cxx1112basic_stringIcSt11char_traitsIcESaIcEEES6_SaIS5_EET0_T_S9_S8_RT1_
000000000006e909 W _ZSt12__relocate_aIPPN7testing11EnvironmentES3_SaIS2_EET0_T_S6_S5_RT1_
000000000006e715 W _ZSt12__relocate_aIPPN7testing17TestEventListenerES3_SaIS2_EET0_T_S6_S5_RT1_
000000000006e159 W _ZSt12__relocate_aIPPN7testing8TestInfoES3_SaIS2_EET0_T_S6_S5_RT1_
000000000006ee09 W _ZSt12__relocate_aIPPN7testing9TestSuiteES3_SaIS2_EET0_T_S6_S5_RT1_
0000000000070705 W _ZSt12__relocate_aIPiS0_SaIiEET0_T_S3_S2_RT1_
00000000000702d1 W _ZSt12__relocate_aIPmS0_SaImEET0_T_S3_S2_RT1_
0000000000074412 W _ZSt12__to_addressINSt8__detail10_Hash_nodeINSt7__cxx1112basic_stringIcSt11char_traitsIcESaIcEEELb1EEEEPT_SA_
0000000000074a83 W _ZSt12__to_addressIPNSt8__detail15_Hash_node_baseEEPT_S4_
000000000001517e W _ZSt12setprecisioni
0000000000074330 W _ZSt13__copy_move_aILb0EN9__gnu_cxx17__normal_iteratorIPKN7testing8internal13edit_distance8EditTypeESt6vectorIS5_SaIS5_EEEEPS5_ET1_T0_SE_SD_
00000000000742b0 W _ZSt13__copy_move_aILb0EN9__gnu_cxx17__normal_iteratorIPKdSt6vectorIdSaIdEEEEPdET1_T0_SA_S9_
000000000005d61e W _ZSt13__copy_move_aILb1EN9__gnu_cxx17__normal_iteratorIPNSt7__cxx1112basic_stringIcSt11char_traitsIcESaIcEEESt6vectorIS7_SaIS7_EEEESt15insert_iteratorISB_EET1_T0_SG_SF_
000000000005d736 W _ZSt13__copy_move_aILb1EN9__gnu_cxx17__normal_iteratorIPNSt7__cxx1112basic_stringIcSt11char_traitsIcESaIcEEESt6vectorIS7_SaIS7_EEEESt15insert_iteratorISt13unordered_setIS7_St4hashIS7_ESt8equal_toIS7_ESA_EEET1_T0_SM_SL_
000000000006bdb3 W _ZSt13__copy_move_aILb1EN9__gnu_cxx17__normal_iteratorIPPN7testing17TestEventListenerESt6vectorIS4_SaIS4_EEEES9_ET1_T0_SB_SA_
0000000000070d7b W _ZSt13__copy_move_aILb1EN9__gnu_cxx17__normal_iteratorIPPN7testing8TestInfoESt6vectorIS4_SaIS4_EEEES5_ET1_T0_SB_SA_
0000000000072313 W _ZSt13__copy_move_aILb1EN9__gnu_cxx17__normal_iteratorIPPN7testing8TestInfoESt6vectorIS4_SaIS4_EEEES9_ET1_T0_SB_SA_
0000000000072237 W _ZSt13__copy_move_aILb1EPPN7testing8TestInfoEN9__gnu_cxx17__normal_iteratorIS3_St6vectorIS2_SaIS2_EEEEET1_T0_SB_SA_
0000000000048ffc t _ZSt13__lower_boundIN9__gnu_cxx17__normal_iteratorIPPN7testing8TestInfoESt6vectorIS4_SaIS4_EEEES4_NS0_5__ops14_Iter_comp_valIZNS2_9TestSuite3RunEvEUlPKS3_SE_E_EEET_SH_SH_RKT0_T1_
0000000000047ecc t _ZSt13__stable_sortIN9__gnu_cxx17__normal_iteratorIPPN7testing8TestInfoESt6vectorIS4_SaIS4_EEEENS0_5__ops15_Iter_comp_iterIZNS2_9TestSuite3RunEvEUlPKS3_SE_E_EEEvT_SH_T0_
00000000000490cc t _ZSt13__upper_boundIN9__gnu_cxx17__normal_iteratorIPPN7testing8TestInfoESt6vectorIS4_SaIS4_EEEES4_NS0_5__ops14_Val_comp_iterIZNS2_9TestSuite3RunEvEUlPKS3_SE_E_EEET_SH_SH_RKT0_T1_
000000000006e37d W _ZSt13move_backwardIN9__gnu_cxx17__normal_iteratorIPPN7testing8TestInfoESt6vectorIS4_SaIS4_EEEES9_ET0_T_SB_SA_
0000000000073973 W _ZSt13move_backwardIPNSt7__cxx1112basic_stringIcSt11char_traitsIcESaIcEEES6_ET0_T_S8_S7_
0000000000070e38 W _ZSt13move_backwardIPPN7testing8TestInfoEN9__gnu_cxx17__normal_iteratorIS3_St6vectorIS2_SaIS2_EEEEET0_T_SB_SA_
0000000000068baf W _ZSt13move_backwardIPPN7testing9TestSuiteES3_ET0_T_S5_S4_
000000000007467a W _ZSt14__copy_move_a1ILb0EPKN7testing8internal13edit_distance8EditTypeEPS3_ET1_T0_S8_S7_
0000000000074612 W _ZSt14__copy_move_a1ILb0EPKdPdET1_T0_S4_S3_
0000000000064ab1 W _ZSt14__copy_move_a1ILb1EPNSt7__cxx1112basic_stringIcSt11char_traitsIcESaIcEEESt15insert_iteratorISt13unordered_setIS5_St4hashIS5_ESt8equal_toIS5_ESaIS5_EEEET1_T0_SH_SG_
00000000000649ef W _ZSt14__copy_move_a1ILb1EPNSt7__cxx1112basic_stringIcSt11char_traitsIcESaIcEEESt15insert_iteratorISt6vectorIS5_SaIS5_EEEET1_T0_SD_SC_
000000000006e79d W _ZSt14__copy_move_a1ILb1EPPN7testing17TestEventListenerES3_ET1_T0_S5_S4_
00000000000721de W _ZSt14__copy_move_a1ILb1EPPN7testing8TestInfoES3_ET1_T0_S5_S4_
000000000007488b W _ZSt14__copy_move_a2ILb0EPKN7testing8internal13edit_distance8EditTypeEPS3_ET1_T0_S8_S7_
000000000007485a W _ZSt14__copy_move_a2ILb0EPKdPdET1_T0_S4_S3_
0000000000069f52 W _ZSt14__copy_move_a2ILb1EPNSt7__cxx1112basic_stringIcSt11char_traitsIcESaIcEEESt15insert_iteratorISt13unordered_setIS5_St4hashIS5_ESt8equal_toIS5_ESaIS5_EEEET1_T0_SH_SG_
0000000000069efa W _ZSt14__copy_move_a2ILb1EPNSt7__cxx1112basic_stringIcSt11char_traitsIcESaIcEEESt15insert_iteratorISt6vectorIS5_SaIS5_EEEET1_T0_SD_SC_
0000000000070f6d W _ZSt14__copy_move_a2ILb1EPPN7testing17TestEventListenerES3_ET1_T0_S5_S4_
00000000000730bf W _ZSt14__copy_move_a2ILb1EPPN7testing8TestInfoES3_ET1_T0_S5_S4_
000000000006ff4d W _ZSt14__relocate_a_1IN7testing8internal13edit_distance8EditTypeES3_ENSt9enable_ifIXsrSt24__is_bitwise_relocatableIT_vE5valueEPS6_E4typeES8_S8_S8_RSaIT0_E
0000000000070fce W _ZSt14__relocate_a_1IPN7testing11EnvironmentES2_ENSt9enable_ifIXsrSt24__is_bitwise_relocatableIT_vE5valueEPS5_E4typeES7_S7_S7_RSaIT0_E
00000000000703e5 W _ZSt14__relocate_a_1IPN7testing12TestPropertyES2_SaIS1_EET0_T_S5_S4_RT1_
000000000006f435 W _ZSt14__relocate_a_1IPN7testing14TestPartResultES2_SaIS1_EET0_T_S5_S4_RT1_
0000000000070f06 W _ZSt14__relocate_a_1IPN7testing17TestEventListenerES2_ENSt9enable_ifIXsrSt24__is_bitwise_relocatableIT_vE5valueEPS5_E4typeES7_S7_S7_RSaIT0_E
00000000000705a5 W _ZSt14__relocate_a_1IPN7testing8TestInfoES2_ENSt9enable_ifIXsrSt24__is_bitwise_relocatableIT_vE5valueEPS5_E4typeES7_S7_S7_RSaIT0_E
0000000000071065 W _ZSt14__relocate_a_1IPN7testing8internal9TraceInfoES3_SaIS2_EET0_T_S6_S5_RT1_
0000000000071299 W _ZSt14__relocate_a_1IPN7testing9TestSuiteES2_ENSt9enable_ifIXsrSt24__is_bitwise_relocatableIT_vE5valueEPS5_E4typeES7_S7_S7_RSaIT0_E
000000000006d0d2 W _ZSt14__relocate_a_1IPNSt7__cxx1112basic_stringIcSt11char_traitsIcESaIcEEES6_SaIS5_EET0_T_S9_S8_RT1_
0000000000071f8c W _ZSt14__relocate_a_1IiiENSt9enable_ifIXsrSt24__is_bitwise_relocatableIT_vE5valueEPS2_E4typeES4_S4_S4_RSaIT0_E
0000000000071d72 W _ZSt14__relocate_a_1ImmENSt9enable_ifIXsrSt24__is_bitwise_relocatableIT_vE5valueEPS2_E4typeES4_S4_S4_RSaIT0_E
0000000000064c0c W _ZSt15__alloc_on_moveISaINSt7__cxx1112basic_stringIcSt11char_traitsIcESaIcEEEEEvRT_S8_
0000000000064c76 W _ZSt15__alloc_on_moveISaINSt8__detail10_Hash_nodeINSt7__cxx1112basic_stringIcSt11char_traitsIcESaIcEEELb1EEEEEvRT_SB_
0000000000064f1b W _ZSt15__alloc_on_swapISaINSt7__cxx1112basic_stringIcSt11char_traitsIcESaIcEEEEEvRT_S8_
00000000000483fb t _ZSt16__insertion_sortIN9__gnu_cxx17__normal_iteratorIPPN7testing8TestInfoESt6vectorIS4_SaIS4_EEEENS0_5__ops15_Iter_comp_iterIZNS2_9TestSuite3RunEvEUlPKS3_SE_E_EEEvT_SH_T0_
0000000000048833 t _ZSt16__merge_adaptiveIN9__gnu_cxx17__normal_iteratorIPPN7testing8TestInfoESt6vectorIS4_SaIS4_EEEElS5_NS0_5__ops15_Iter_comp_iterIZNS2_9TestSuite3RunEvEUlPKS3_SE_E_EEEvT_SH_SH_T0_SI_T1_SI_T2_
0000000000049222 t _ZSt17__merge_sort_loopIN9__gnu_cxx17__normal_iteratorIPPN7testing8TestInfoESt6vectorIS4_SaIS4_EEEES5_lNS0_5__ops15_Iter_comp_iterIZNS2_9TestSuite3RunEvEUlPKS3_SE_E_EEEvT_SH_T0_T1_T2_
0000000000049389 t _ZSt17__merge_sort_loopIPPN7testing8TestInfoEN9__gnu_cxx17__normal_iteratorIS3_St6vectorIS2_SaIS2_EEEElNS4_5__ops15_Iter_comp_iterIZNS0_9TestSuite3RunEvEUlPKS1_SE_E_EEEvT_SH_T0_T1_T2_
000000000006e50d W _ZSt17__rotate_adaptiveIN9__gnu_cxx17__normal_iteratorIPPN7testing8TestInfoESt6vectorIS4_SaIS4_EEEES5_lET_SA_SA_SA_T1_SB_T0_SB_
000000000004a310 W _ZSt17__size_to_integerm
                 U _ZSt17__throw_bad_allocv@GLIBCXX_3.4
                 U _ZSt18_Rb_tree_decrementPSt18_Rb_tree_node_base@GLIBCXX_3.4
                 U _ZSt18_Rb_tree_incrementPKSt18_Rb_tree_node_base@GLIBCXX_3.4
                 U _ZSt18_Rb_tree_incrementPSt18_Rb_tree_node_base@GLIBCXX_3.4
00000000000736ca W _ZSt18uninitialized_copyIN9__gnu_cxx17__normal_iteratorIPKN7testing8internal13edit_distance8EditTypeESt6vectorIS5_SaIS5_EEEEPS5_ET0_T_SE_SD_
0000000000063490 W _ZSt18uninitialized_copyIN9__gnu_cxx17__normal_iteratorIPKNSt7__cxx1112basic_stringIcSt11char_traitsIcESaIcEEESt6vectorIS7_SaIS7_EEEEPS7_ET0_T_SG_SF_
0000000000073633 W _ZSt18uninitialized_copyIN9__gnu_cxx17__normal_iteratorIPKdSt6vectorIdSaIdEEEEPdET0_T_SA_S9_
000000000006df02 W _ZSt18uninitialized_copyIPKPKcPNSt7__cxx1112basic_stringIcSt11char_traitsIcESaIcEEEET0_T_SC_SB_
000000000005c5ba W _ZSt19__iterator_categoryIN9__gnu_cxx17__normal_iteratorIPKNSt7__cxx1112basic_stringIcSt11char_traitsIcESaIcEEESt6vectorIS7_SaIS7_EEEEENSt15iterator_traitsIT_E17iterator_categoryERKSF_
000000000006cf6e W _ZSt19__iterator_categoryIN9__gnu_cxx17__normal_iteratorIPKcNSt7__cxx1112basic_stringIcSt11char_traitsIcESaIcEEEEEENSt15iterator_traitsIT_E17iterator_categoryERKSC_
00000000000668f1 W _ZSt19__iterator_categoryIN9__gnu_cxx17__normal_iteratorIPN7testing12TestPropertyESt6vectorIS3_SaIS3_EEEEENSt15iterator_traitsIT_E17iterator_categoryERKSA_
000000000005e725 W _ZSt19__iterator_categoryIN9__gnu_cxx17__normal_iteratorIPN7testing8internal13edit_distance8EditTypeESt6vectorIS5_SaIS5_EEEEENSt15iterator_traitsIT_E17iterator_categoryERKSC_
000000000005d3ff W _ZSt19__iterator_categoryIN9__gnu_cxx17__normal_iteratorIPNSt7__cxx1112basic_stringIcSt11char_traitsIcESaIcEEESt6vectorIS7_SaIS7_EEEEENSt15iterator_traitsIT_E17iterator_categoryERKSE_
00000000000708bf W _ZSt19__iterator_categoryIN9__gnu_cxx17__normal_iteratorIPPN7testing8TestInfoESt6vectorIS4_SaIS4_EEEEENSt15iterator_traitsIT_E17iterator_categoryERKSB_
000000000006324a W _ZSt19__iterator_categoryIN9__gnu_cxx17__normal_iteratorIPcNSt7__cxx1112basic_stringIcSt11char_traitsIcESaIcEEEEEENSt15iterator_traitsIT_E17iterator_categoryERKSB_
0000000000066d65 W _ZSt19__iterator_categoryIPKPKcENSt15iterator_traitsIT_E17iterator_categoryERKS5_
0000000000062891 W _ZSt19__iterator_categoryIPKcENSt15iterator_traitsIT_E17iterator_categoryERKS3_
0000000000062b6f W _ZSt19__iterator_categoryIPKwENSt15iterator_traitsIT_E17iterator_categoryERKS3_
0000000000071b51 W _ZSt19__iterator_categoryIPN7testing8internal13edit_distance8EditTypeEENSt15iterator_traitsIT_E17iterator_categoryERKS6_
00000000000719b0 W _ZSt19__iterator_categoryIPdENSt15iterator_traitsIT_E17iterator_categoryERKS2_
000000000006870f W _ZSt19__iterator_categoryISt16reverse_iteratorIN9__gnu_cxx17__normal_iteratorIPPN7testing9TestSuiteESt6vectorIS5_SaIS5_EEEEEENSt15iterator_traitsIT_E17iterator_categoryERKSD_
0000000000071df8 W _ZSt19__relocate_object_aIN7testing12TestPropertyES1_SaIS1_EEvPT_PT0_RT1_
0000000000071656 W _ZSt19__relocate_object_aIN7testing14TestPartResultES1_SaIS1_EEvPT_PT0_RT1_
0000000000072440 W _ZSt19__relocate_object_aIN7testing8internal9TraceInfoES2_SaIS2_EEvPT_PT0_RT1_
000000000006f8e9 W _ZSt19__relocate_object_aINSt7__cxx1112basic_stringIcSt11char_traitsIcESaIcEEES5_SaIS5_EEvPT_PT0_RT1_
                 U _ZSt19__throw_logic_errorPKc@GLIBCXX_3.4
00000000000778b4 u _ZSt19piecewise_construct
                 U _ZSt20__throw_length_errorPKc@GLIBCXX_3.4
000000000006baed W _ZSt20get_temporary_bufferIPN7testing8TestInfoEESt4pairIPT_lEl
000000000006a64d W _ZSt20uninitialized_fill_nIPSt6vectorIN7testing8internal13edit_distance8EditTypeESaIS4_EEmS6_ET_S8_T0_RKT1_
000000000006a4af W _ZSt20uninitialized_fill_nIPSt6vectorIdSaIdEEmS2_ET_S4_T0_RKT1_
0000000000048099 t _ZSt21__inplace_stable_sortIN9__gnu_cxx17__normal_iteratorIPPN7testing8TestInfoESt6vectorIS4_SaIS4_EEEENS0_5__ops15_Iter_comp_iterIZNS2_9TestSuite3RunEvEUlPKS3_SE_E_EEEvT_SH_T0_
00000000000494fe t _ZSt21__move_merge_adaptiveIPPN7testing8TestInfoEN9__gnu_cxx17__normal_iteratorIS3_St6vectorIS2_SaIS2_EEEES9_NS4_5__ops15_Iter_comp_iterIZNS0_9TestSuite3RunEvEUlPKS1_SE_E_EEEvT_SH_T0_SI_T1_T2_
000000000004919c t _ZSt22__chunk_insertion_sortIN9__gnu_cxx17__normal_iteratorIPPN7testing8TestInfoESt6vectorIS4_SaIS4_EEEElNS0_5__ops15_Iter_comp_iterIZNS2_9TestSuite3RunEvEUlPKS3_SE_E_EEEvT_SH_T0_T1_
00000000000707b4 W _ZSt22__copy_move_backward_aILb1EN9__gnu_cxx17__normal_iteratorIPPN7testing8TestInfoESt6vectorIS4_SaIS4_EEEES9_ET1_T0_SB_SA_
0000000000073c2e W _ZSt22__copy_move_backward_aILb1EPNSt7__cxx1112basic_stringIcSt11char_traitsIcESaIcEEES6_ET1_T0_S8_S7_
00000000000722a5 W _ZSt22__copy_move_backward_aILb1EPPN7testing8TestInfoEN9__gnu_cxx17__normal_iteratorIS3_St6vectorIS2_SaIS2_EEEEET1_T0_SB_SA_
000000000006c283 W _ZSt22__copy_move_backward_aILb1EPPN7testing9TestSuiteES3_ET1_T0_S5_S4_
0000000000048576 t _ZSt22__merge_without_bufferIN9__gnu_cxx17__normal_iteratorIPPN7testing8TestInfoESt6vectorIS4_SaIS4_EEEElNS0_5__ops15_Iter_comp_iterIZNS2_9TestSuite3RunEvEUlPKS3_SE_E_EEEvT_SH_SH_T0_SI_T1_
00000000000481ac t _ZSt22__stable_sort_adaptiveIN9__gnu_cxx17__normal_iteratorIPPN7testing8TestInfoESt6vectorIS4_SaIS4_EEEES5_lNS0_5__ops15_Iter_comp_iterIZNS2_9TestSuite3RunEvEUlPKS3_SE_E_EEEvT_SH_T0_T1_T2_
0000000000072f6b W _ZSt22__uninitialized_copy_aIN9__gnu_cxx17__normal_iteratorIPKN7testing8internal13edit_distance8EditTypeESt6vectorIS5_SaIS5_EEEEPS5_S5_ET0_T_SE_SD_RSaIT1_E
000000000005c529 W _ZSt22__uninitialized_copy_aIN9__gnu_cxx17__normal_iteratorIPKNSt7__cxx1112basic_stringIcSt11char_traitsIcESaIcEEESt6vectorIS7_SaIS7_EEEEPS7_S7_ET0_T_SG_SF_RSaIT1_E
0000000000072eb4 W _ZSt22__uninitialized_copy_aIN9__gnu_cxx17__normal_iteratorIPKdSt6vectorIdSaIdEEEEPddET0_T_SA_S9_RSaIT1_E
000000000006b42b W _ZSt22__uninitialized_copy_aIPKPKcPNSt7__cxx1112basic_stringIcSt11char_traitsIcESaIcEEES9_ET0_T_SC_SB_RSaIT1_E
0000000000073fcf W _ZSt23__copy_move_backward_a1ILb1EPNSt7__cxx1112basic_stringIcSt11char_traitsIcESaIcEEES6_ET1_T0_S8_S7_
0000000000072014 W _ZSt23__copy_move_backward_a1ILb1EPPN7testing8TestInfoES3_ET1_T0_S5_S4_
000000000006ecc9 W _ZSt23__copy_move_backward_a1ILb1EPPN7testing9TestSuiteES3_ET1_T0_S5_S4_
00000000000743b3 W _ZSt23__copy_move_backward_a2ILb1EPNSt7__cxx1112basic_stringIcSt11char_traitsIcESaIcEEES6_ET1_T0_S8_S7_
000000000007308e W _ZSt23__copy_move_backward_a2ILb1EPPN7testing8TestInfoES3_ET1_T0_S5_S4_
000000000007124a W _ZSt23__copy_move_backward_a2ILb1EPPN7testing9TestSuiteES3_ET1_T0_S5_S4_
0000000000048786 t _ZSt24__merge_sort_with_bufferIN9__gnu_cxx17__normal_iteratorIPPN7testing8TestInfoESt6vectorIS4_SaIS4_EEEES5_NS0_5__ops15_Iter_comp_iterIZNS2_9TestSuite3RunEvEUlPKS3_SE_E_EEEvT_SH_T0_T1_
                 U _ZSt24__throw_out_of_range_fmtPKcz@GLIBCXX_3.4.20
000000000006557d W _ZSt24__uninitialized_fill_n_aIPSt6vectorIN7testing8internal13edit_distance8EditTypeESaIS4_EEmS6_S6_ET_S8_T0_RKT1_RSaIT2_E
0000000000065267 W _ZSt24__uninitialized_fill_n_aIPSt6vectorIdSaIdEEmS2_S2_ET_S4_T0_RKT1_RSaIT2_E
0000000000048eca t _ZSt25__unguarded_linear_insertIN9__gnu_cxx17__normal_iteratorIPPN7testing8TestInfoESt6vectorIS4_SaIS4_EEEENS0_5__ops14_Val_comp_iterIZNS2_9TestSuite3RunEvEUlPKS3_SE_E_EEEvT_T0_
000000000006a53f W _ZSt25__uninitialized_default_nIPN7testing8internal13edit_distance8EditTypeEmET_S5_T0_
000000000006a3a1 W _ZSt25__uninitialized_default_nIPdmET_S1_T0_
00000000000653c0 W _ZSt27__uninitialized_default_n_aIPN7testing8internal13edit_distance8EditTypeEmS3_ET_S5_T0_RSaIT1_E
00000000000650a9 W _ZSt27__uninitialized_default_n_aIPdmdET_S1_T0_RSaIT1_E
                 U _ZSt28__throw_bad_array_new_lengthv@GLIBCXX_3.4.29
                 U _ZSt29_Rb_tree_insert_and_rebalancebPSt18_Rb_tree_node_baseS0_RS_@GLIBCXX_3.4
000000000006bbf2 W _ZSt29__uninitialized_construct_bufIPPN7testing8TestInfoEN9__gnu_cxx17__normal_iteratorIS3_St6vectorIS2_SaIS2_EEEEEvT_SA_T0_
000000000004963c t _ZSt30__move_merge_adaptive_backwardIN9__gnu_cxx17__normal_iteratorIPPN7testing8TestInfoESt6vectorIS4_SaIS4_EEEES5_S9_NS0_5__ops15_Iter_comp_iterIZNS2_9TestSuite3RunEvEUlPKS3_SE_E_EEEvT_SH_T0_SI_T1_T2_
000000000006f259 W _ZSt3getILm0EJPKN7testing8internal11MatcherBaseINSt7__cxx1112basic_stringIcSt11char_traitsIcESaIcEEEEEPKNS1_9EqMatcherIS8_EEEEONSt13tuple_elementIXT_ESt5tupleIJDpT0_EEE4typeEOSK_
000000000006f1b4 W _ZSt3getILm0EJPKN7testing8internal11MatcherBaseIRKNSt7__cxx1112basic_stringIcSt11char_traitsIcESaIcEEEEEPKNS1_9EqMatcherIS8_EEEEONSt13tuple_elementIXT_ESt5tupleIJDpT0_EEE4typeEOSM_
000000000006f34c W _ZSt3getILm0EJPKN7testing8internal11MatcherBaseIRKSt17basic_string_viewIcSt11char_traitsIcEEEEPKNS1_9EqMatcherINSt7__cxx1112basic_stringIcS5_SaIcEEEEEEEONSt13tuple_elementIXT_ESt5tupleIJDpT0_EEE4typeEOSO_
000000000006f3df W _ZSt3getILm0EJPKN7testing8internal11MatcherBaseISt17basic_string_viewIcSt11char_traitsIcEEEEPKNS1_9EqMatcherINSt7__cxx1112basic_stringIcS5_SaIcEEEEEEEONSt13tuple_elementIXT_ESt5tupleIJDpT0_EEE4typeEOSM_
0000000000068ff9 W _ZSt3getILm0EJPKNSt7__cxx1112basic_stringIcSt11char_traitsIcESaIcEEESt14default_deleteIS6_EEERKNSt13tuple_elementIXT_ESt5tupleIJDpT0_EEE4typeERKSE_
0000000000067129 W _ZSt3getILm0EJPKNSt7__cxx1112basic_stringIcSt11char_traitsIcESaIcEEESt14default_deleteIS6_EEERNSt13tuple_elementIXT_ESt5tupleIJDpT0_EEE4typeERSE_
0000000000071992 W _ZSt3getILm0EJPN7testing8internal11ThreadLocalIPNS0_31TestPartResultReporterInterfaceEE18ValueHolderFactoryESt14default_deleteIS6_EEERKNSt13tuple_elementIXT_ESt5tupleIJDpT0_EEE4typeERKSE_
000000000006bfd9 W _ZSt3getILm0EJPN7testing8internal11ThreadLocalIPNS0_31TestPartResultReporterInterfaceEE18ValueHolderFactoryESt14default_deleteIS6_EEERNSt13tuple_elementIXT_ESt5tupleIJDpT0_EEE4typeERSE_
000000000006eee5 W _ZSt3getILm0EJPN7testing8internal11ThreadLocalISt6vectorINS1_9TraceInfoESaIS4_EEE18ValueHolderFactoryESt14default_deleteIS8_EEERKNSt13tuple_elementIXT_ESt5tupleIJDpT0_EEE4typeERKSG_
000000000006c191 W _ZSt3getILm0EJPN7testing8internal11ThreadLocalISt6vectorINS1_9TraceInfoESaIS4_EEE18ValueHolderFactoryESt14default_deleteIS8_EEERNSt13tuple_elementIXT_ESt5tupleIJDpT0_EEE4typeERSG_
0000000000067077 W _ZSt3getILm0EJPN7testing8internal14GTestFlagSaverESt14default_deleteIS2_EEERNSt13tuple_elementIXT_ESt5tupleIJDpT0_EEE4typeERSA_
0000000000062ec4 W _ZSt3getILm0EJPN7testing8internal16DeathTestFactoryESt14default_deleteIS2_EEERKNSt13tuple_elementIXT_ESt5tupleIJDpT0_EEE4typeERKSA_
0000000000068535 W _ZSt3getILm0EJPN7testing8internal16DeathTestFactoryESt14default_deleteIS2_EEERNSt13tuple_elementIXT_ESt5tupleIJDpT0_EEE4typeERSA_
0000000000069219 W _ZSt3getILm0EJPN7testing8internal17StreamingListener20AbstractSocketWriterESt14default_deleteIS3_EEERKNSt13tuple_elementIXT_ESt5tupleIJDpT0_EEE4typeERKSB_
0000000000062f01 W _ZSt3getILm0EJPN7testing8internal17StreamingListener20AbstractSocketWriterESt14default_deleteIS3_EEERNSt13tuple_elementIXT_ESt5tupleIJDpT0_EEE4typeERSB_
0000000000062ea6 W _ZSt3getILm0EJPN7testing8internal24InternalRunDeathTestFlagESt14default_deleteIS2_EEERKNSt13tuple_elementIXT_ESt5tupleIJDpT0_EEE4typeERKSA_
00000000000684f8 W _ZSt3getILm0EJPN7testing8internal24InternalRunDeathTestFlagESt14default_deleteIS2_EEERNSt13tuple_elementIXT_ESt5tupleIJDpT0_EEE4typeERSA_
0000000000015f84 W _ZSt3getILm0EJPNSt7__cxx1112basic_stringIcSt11char_traitsIcESaIcEEESt14default_deleteIS5_EEERKNSt13tuple_elementIXT_ESt5tupleIJDpT0_EEE4typeERKSD_
0000000000015d75 W _ZSt3getILm0EJPNSt7__cxx1112basic_stringIcSt11char_traitsIcESaIcEEESt14default_deleteIS5_EEERNSt13tuple_elementIXT_ESt5tupleIJDpT0_EEE4typeERSD_
0000000000064f2e W _ZSt3getILm0EJPNSt7__cxx1118basic_stringstreamIcSt11char_traitsIcESaIcEEESt14default_deleteIS5_EEERKNSt13tuple_elementIXT_ESt5tupleIJDpT0_EEE4typeERKSD_
0000000000015d17 W _ZSt3getILm0EJPNSt7__cxx1118basic_stringstreamIcSt11char_traitsIcESaIcEEESt14default_deleteIS5_EEERNSt13tuple_elementIXT_ESt5tupleIJDpT0_EEE4typeERSD_
000000000006322c W _ZSt3getILm0EJPPcSt14default_deleteIA_S0_EEERKNSt13tuple_elementIXT_ESt5tupleIJDpT0_EEE4typeERKS9_
0000000000062f9b W _ZSt3getILm0EJPPcSt14default_deleteIA_S0_EEERNSt13tuple_elementIXT_ESt5tupleIJDpT0_EEE4typeERS9_
00000000000736ff W _ZSt3getILm0EJRKNSt7__cxx1112basic_stringIcSt11char_traitsIcESaIcEEEEERNSt13tuple_elementIXT_ESt5tupleIJDpT0_EEE4typeERSC_
000000000006b6d1 W _ZSt3getILm1EJPKNSt7__cxx1112basic_stringIcSt11char_traitsIcESaIcEEESt14default_deleteIS6_EEERNSt13tuple_elementIXT_ESt5tupleIJDpT0_EEE4typeERSE_
000000000006eb9d W _ZSt3getILm1EJPN7testing8internal11ThreadLocalIPNS0_31TestPartResultReporterInterfaceEE18ValueHolderFactoryESt14default_deleteIS6_EEERNSt13tuple_elementIXT_ESt5tupleIJDpT0_EEE4typeERSE_
000000000006ec99 W _ZSt3getILm1EJPN7testing8internal11ThreadLocalISt6vectorINS1_9TraceInfoESaIS4_EEE18ValueHolderFactoryESt14default_deleteIS8_EEERNSt13tuple_elementIXT_ESt5tupleIJDpT0_EEE4typeERSG_
000000000006b4e3 W _ZSt3getILm1EJPN7testing8internal14GTestFlagSaverESt14default_deleteIS2_EEERNSt13tuple_elementIXT_ESt5tupleIJDpT0_EEE4typeERSA_
000000000006c153 W _ZSt3getILm1EJPN7testing8internal16DeathTestFactoryESt14default_deleteIS2_EEERNSt13tuple_elementIXT_ESt5tupleIJDpT0_EEE4typeERSA_
00000000000691fb W _ZSt3getILm1EJPN7testing8internal17StreamingListener20AbstractSocketWriterESt14default_deleteIS3_EEERNSt13tuple_elementIXT_ESt5tupleIJDpT0_EEE4typeERSB_
0000000000069158 W _ZSt3getILm1EJPN7testing8internal24InternalRunDeathTestFlagESt14default_deleteIS2_EEERNSt13tuple_elementIXT_ESt5tupleIJDpT0_EEE4typeERSA_
0000000000015d93 W _ZSt3getILm1EJPNSt7__cxx1112basic_stringIcSt11char_traitsIcESaIcEEESt14default_deleteIS5_EEERNSt13tuple_elementIXT_ESt5tupleIJDpT0_EEE4typeERSD_
0000000000015f66 W _ZSt3getILm1EJPNSt7__cxx1118basic_stringstreamIcSt11char_traitsIcESaIcEEESt14default_deleteIS5_EEERNSt13tuple_elementIXT_ESt5tupleIJDpT0_EEE4typeERSD_
0000000000069275 W _ZSt3getILm1EJPPcSt14default_deleteIA_S0_EEERNSt13tuple_elementIXT_ESt5tupleIJDpT0_EEE4typeERS9_
000000000004a82e W _ZSt3hexRSt8ios_base
0000000000051453 W _ZSt3maxImERKT_S2_S2_
00000000000500e5 W _ZSt3minIdERKT_S2_S2_
000000000004f68b W _ZSt3minIlERKT_S2_S2_
000000000004b605 W _ZSt3minImERKT_S2_S2_
00000000000a91c0 B _ZSt4cerr@GLIBCXX_3.4
0000000000073f62 W _ZSt4copyIN9__gnu_cxx17__normal_iteratorIPKN7testing8internal13edit_distance8EditTypeESt6vectorIS5_SaIS5_EEEEPS5_ET0_T_SE_SD_
0000000000073f13 W _ZSt4copyIN9__gnu_cxx17__normal_iteratorIPKdSt6vectorIdSaIdEEEEPdET0_T_SA_S9_
00000000000a9080 B _ZSt4cout@GLIBCXX_3.4
                 U _ZSt4endlIcSt11char_traitsIcEERSt13basic_ostreamIT_T0_ES6_@GLIBCXX_3.4
0000000000057a9b W _ZSt4findIN9__gnu_cxx17__normal_iteratorIPKNSt7__cxx1112basic_stringIcSt11char_traitsIcESaIcEEESt6vectorIS7_SaIS7_EEEES7_ET_SE_SE_RKT0_
0000000000054b65 W _ZSt4moveIN9__gnu_cxx17__normal_iteratorIPNSt7__cxx1112basic_stringIcSt11char_traitsIcESaIcEEESt6vectorIS7_SaIS7_EEEESt15insert_iteratorISB_EET0_T_SG_SF_
0000000000054c32 W _ZSt4moveIN9__gnu_cxx17__normal_iteratorIPNSt7__cxx1112basic_stringIcSt11char_traitsIcESaIcEEESt6vectorIS7_SaIS7_EEEESt15insert_iteratorISt13unordered_setIS7_St4hashIS7_ESt8equal_toIS7_ESA_EEET0_T_SM_SL_
0000000000067c45 W _ZSt4moveIN9__gnu_cxx17__normal_iteratorIPPN7testing17TestEventListenerESt6vectorIS4_SaIS4_EEEES9_ET0_T_SB_SA_
000000000006e4be W _ZSt4moveIN9__gnu_cxx17__normal_iteratorIPPN7testing8TestInfoESt6vectorIS4_SaIS4_EEEES5_ET0_T_SB_SA_
0000000000070e87 W _ZSt4moveIN9__gnu_cxx17__normal_iteratorIPPN7testing8TestInfoESt6vectorIS4_SaIS4_EEEES9_ET0_T_SB_SA_
0000000000070de9 W _ZSt4moveIPPN7testing8TestInfoEN9__gnu_cxx17__normal_iteratorIS3_St6vectorIS2_SaIS2_EEEEET0_T_SB_SA_
000000000007300e W _ZSt4moveIRN7testing12TestPropertyEEONSt16remove_referenceIT_E4typeEOS4_
0000000000072994 W _ZSt4moveIRN7testing14TestPartResultEEONSt16remove_referenceIT_E4typeEOS4_
000000000005286f W _ZSt4moveIRN7testing7MatcherIRKNSt7__cxx1112basic_stringIcSt11char_traitsIcESaIcEEEEEEONSt16remove_referenceIT_E4typeEOSD_
000000000006a795 W _ZSt4moveIRN7testing8internal13edit_distance8EditTypeEEONSt16remove_referenceIT_E4typeEOS6_
00000000000686c5 W _ZSt4moveIRN7testing8internal15TestSuiteNameIsEEONSt16remove_referenceIT_E4typeEOS5_
00000000000668a7 W _ZSt4moveIRN7testing8internal17TestPropertyKeyIsEEONSt16remove_referenceIT_E4typeEOS5_
000000000006f1da W _ZSt4moveIRN7testing8internal9EqMatcherINSt7__cxx1112basic_stringIcSt11char_traitsIcESaIcEEEEEEONSt16remove_referenceIT_E4typeEOSC_
00000000000730f0 W _ZSt4moveIRN7testing8internal9TraceInfoEEONSt16remove_referenceIT_E4typeEOS5_
00000000000497ec t _ZSt4moveIRN9__gnu_cxx5__ops15_Iter_comp_iterIZN7testing9TestSuite3RunEvEUlPKNS3_8TestInfoES7_E_EEEONSt16remove_referenceIT_E4typeEOSC_
00000000000538d3 W _ZSt4moveIRNSt7__cxx1112basic_stringIcSt11char_traitsIcESaIcEEEEONSt16remove_referenceIT_E4typeEOS8_
000000000005efa0 W _ZSt4moveIRNSt7__cxx114listISt4pairIcPKcESaIS5_EEEEONSt16remove_referenceIT_E4typeEOSA_
000000000006001c W _ZSt4moveIRPKNSt7__cxx1112basic_stringIcSt11char_traitsIcESaIcEEEEONSt16remove_referenceIT_E4typeEOSA_
000000000006e36b W _ZSt4moveIRPN7testing8TestInfoEEONSt16remove_referenceIT_E4typeEOS5_
0000000000068310 W _ZSt4moveIRPN7testing8internal11ThreadLocalIPNS0_31TestPartResultReporterInterfaceEE18ValueHolderFactoryEEONSt16remove_referenceIT_E4typeEOSA_
00000000000685ea W _ZSt4moveIRPN7testing8internal11ThreadLocalISt6vectorINS1_9TraceInfoESaIS4_EEE18ValueHolderFactoryEEONSt16remove_referenceIT_E4typeEOSC_
000000000005feba W _ZSt4moveIRPN7testing8internal14GTestFlagSaverEEONSt16remove_referenceIT_E4typeEOS6_
0000000000061a6e W _ZSt4moveIRPN7testing8internal16DeathTestFactoryEEONSt16remove_referenceIT_E4typeEOS6_
000000000005bbd8 W _ZSt4moveIRPN7testing8internal17StreamingListener20AbstractSocketWriterEEONSt16remove_referenceIT_E4typeEOS7_
000000000005baa1 W _ZSt4moveIRPN7testing8internal24InternalRunDeathTestFlagEEONSt16remove_referenceIT_E4typeEOS6_
0000000000062218 W _ZSt4moveIRPN7testing9TestSuiteEEONSt16remove_referenceIT_E4typeEOS5_
0000000000015b9c W _ZSt4moveIRPNSt7__cxx1112basic_stringIcSt11char_traitsIcESaIcEEEEONSt16remove_referenceIT_E4typeEOS9_
0000000000015adc W _ZSt4moveIRPNSt7__cxx1118basic_stringstreamIcSt11char_traitsIcESaIcEEEEONSt16remove_referenceIT_E4typeEOS9_
000000000006a121 W _ZSt4moveIRSaINSt7__cxx1112basic_stringIcSt11char_traitsIcESaIcEEEEEONSt16remove_referenceIT_E4typeEOS9_
000000000006a146 W _ZSt4moveIRSaINSt8__detail10_Hash_nodeINSt7__cxx1112basic_stringIcSt11char_traitsIcESaIcEEELb1EEEEEONSt16remove_referenceIT_E4typeEOSC_
000000000005d912 W _ZSt4moveIRSt10_HashtableINSt7__cxx1112basic_stringIcSt11char_traitsIcESaIcEEES6_SaIS6_ENSt8__detail9_IdentityESt8equal_toIS6_ESt4hashIS6_ENS8_18_Mod_range_hashingENS8_20_Default_ranged_hashENS8_20_Prime_rehash_policyENS8_17_Hashtable_traitsILb1ELb1ELb1EEEEEONSt16remove_referenceIT_E4typeEOSM_
0000000000069090 W _ZSt4moveIRSt14default_deleteINSt7__cxx1112basic_stringIcSt11char_traitsIcESaIcEEEEEONSt16remove_referenceIT_E4typeEOSA_
000000000005eeeb W _ZSt4moveIRSt4pairIcPKcEEONSt16remove_referenceIT_E4typeEOS6_
000000000005d837 W _ZSt4moveIRSt6vectorINSt7__cxx1112basic_stringIcSt11char_traitsIcESaIcEEESaIS6_EEEONSt16remove_referenceIT_E4typeEOSB_
0000000000048ac6 t _ZSt4moveIRZN7testing8internal12_GLOBAL__N_113IsGlobPatternERKNSt7__cxx1112basic_stringIcSt11char_traitsIcESaIcEEEEUlcE_EONSt16remove_referenceIT_E4typeEOSE_
0000000000047a56 t _ZSt4moveIRZN7testing8internal23InsertSyntheticTestCaseERKNSt7__cxx1112basic_stringIcSt11char_traitsIcESaIcEEENS1_12CodeLocationEbEUlvE_EONSt16remove_referenceIT_E4typeEOSE_
0000000000047d41 t _ZSt4moveIRZN7testing8internal34TypeParameterizedTestSuiteRegistry22CheckForInstantiationsEvEUlvE_EONSt16remove_referenceIT_E4typeEOS6_
0000000000048070 t _ZSt4moveIRZN7testing9TestSuite3RunEvEUlPKNS0_8TestInfoES4_E_EONSt16remove_referenceIT_E4typeEOS8_
0000000000048c95 t _ZSt4moveIRZNK7testing8internal12_GLOBAL__N_114UnitTestFilter11MatchesNameERKNSt7__cxx1112basic_stringIcSt11char_traitsIcESaIcEEEEUlSB_E_EONSt16remove_referenceIT_E4typeEOSF_
0000000000051ea4 W _ZSt4moveIRbEONSt16remove_referenceIT_E4typeEOS2_
00000000000605f9 W _ZSt4moveIRiEONSt16remove_referenceIT_E4typeEOS2_
0000000000072153 W _ZSt4moveIRlEONSt16remove_referenceIT_E4typeEOS2_
000000000005ed28 W _ZSt4moveIRmEONSt16remove_referenceIT_E4typeEOS2_
00000000000533d4 W _ZSt4prevIN9__gnu_cxx17__normal_iteratorIPcNSt7__cxx1112basic_stringIcSt11char_traitsIcESaIcEEEEEET_SA_NSt15iterator_traitsISA_E15difference_typeE
000000000004a886 W _ZSt4setwi
000000000006a7a7 W _ZSt4swapIN7testing8internal13edit_distance8EditTypeEENSt9enable_ifIXsrSt6__and_IJSt6__not_ISt15__is_tuple_likeIT_EESt21is_move_constructibleIS8_ESt18is_move_assignableIS8_EEE5valueEvE4typeERS8_SI_
0000000000051f2c W _ZSt4swapINSt7__cxx1112basic_stringIcSt11char_traitsIcESaIcEEESt14default_deleteIS5_EENSt9enable_ifIXsrSt14__is_swappableIT0_E5valueEvE4typeERSt10unique_ptrIT_SA_ESH_
0000000000070846 W _ZSt4swapIPN7testing8TestInfoEENSt9enable_ifIXsrSt6__and_IJSt6__not_ISt15__is_tuple_likeIT_EESt21is_move_constructibleIS7_ESt18is_move_assignableIS7_EEE5valueEvE4typeERS7_SH_
0000000000069017 W _ZSt4swapIPNSt7__cxx1112basic_stringIcSt11char_traitsIcESaIcEEEENSt9enable_ifIXsrSt6__and_IJSt6__not_ISt15__is_tuple_likeIT_EESt21is_move_constructibleISB_ESt18is_move_assignableISB_EEE5valueEvE4typeERSB_SL_
00000000000690a2 W _ZSt4swapISt14default_deleteINSt7__cxx1112basic_stringIcSt11char_traitsIcESaIcEEEEENSt9enable_ifIXsrSt6__and_IJSt6__not_ISt15__is_tuple_likeIT_EESt21is_move_constructibleISC_ESt18is_move_assignableISC_EEE5valueEvE4typeERSC_SM_
0000000000051eb6 W _ZSt4swapIbENSt9enable_ifIXsrSt6__and_IJSt6__not_ISt15__is_tuple_likeIT_EESt21is_move_constructibleIS4_ESt18is_move_assignableIS4_EEE5valueEvE4typeERS4_SE_
0000000000069dcd W _ZSt4swapIcSt11char_traitsIcESaIcEEvRNSt7__cxx1112basic_stringIT_T0_T1_EES9_
00000000000625ac W _ZSt4swapIiENSt9enable_ifIXsrSt6__and_IJSt6__not_ISt15__is_tuple_likeIT_EESt21is_move_constructibleIS4_ESt18is_move_assignableIS4_EEE5valueEvE4typeERS4_SE_
0000000000072165 W _ZSt4swapIlENSt9enable_ifIXsrSt6__and_IJSt6__not_ISt15__is_tuple_likeIT_EESt21is_move_constructibleIS4_ESt18is_move_assignableIS4_EEE5valueEvE4typeERS4_SE_
000000000004a85a W _ZSt5fixedRSt8ios_base
000000000004fb57 W _ZSt5isnand
0000000000046946 t _ZSt6any_ofIN9__gnu_cxx17__normal_iteratorIPKNSt7__cxx1112basic_stringIcSt11char_traitsIcESaIcEEESt6vectorIS7_SaIS7_EEEEZNK7testing8internal12_GLOBAL__N_114UnitTestFilter11MatchesNameERS8_EUlSI_E_EbT_SK_T0_
000000000004691e t _ZSt6any_ofIN9__gnu_cxx17__normal_iteratorIPKcNSt7__cxx1112basic_stringIcSt11char_traitsIcESaIcEEEEEZN7testing8internal12_GLOBAL__N_113IsGlobPatternERKS9_EUlcE_EbT_SH_T0_
000000000006fdfb W _ZSt6fill_nIPN7testing8internal13edit_distance8EditTypeEmS3_ET_S5_T0_RKT1_
000000000006fc91 W _ZSt6fill_nIPdmdET_S1_T0_RKT1_
000000000006e40e W _ZSt7advanceIN9__gnu_cxx17__normal_iteratorIPPN7testing8TestInfoESt6vectorIS4_SaIS4_EEEElEvRT_T0_
000000000005c1b8 W _ZSt7advanceIN9__gnu_cxx17__normal_iteratorIPcNSt7__cxx1112basic_stringIcSt11char_traitsIcESaIcEEEEElEvRT_T0_
0000000000048038 t _ZSt7find_ifIN9__gnu_cxx17__normal_iteratorIPKNSt7__cxx1112basic_stringIcSt11char_traitsIcESaIcEEESt6vectorIS7_SaIS7_EEEEZNK7testing8internal12_GLOBAL__N_114UnitTestFilter11MatchesNameERS8_EUlSI_E_ET_SK_SK_T0_
000000000004800e t _ZSt7find_ifIN9__gnu_cxx17__normal_iteratorIPKcNSt7__cxx1112basic_stringIcSt11char_traitsIcESaIcEEEEEZN7testing8internal12_GLOBAL__N_113IsGlobPatternERKS9_EUlcE_ET_SH_SH_T0_
0000000000057781 W _ZSt7find_ifIN9__gnu_cxx17__normal_iteratorIPN7testing12TestPropertyESt6vectorIS3_SaIS3_EEEENS2_8internal17TestPropertyKeyIsEET_SB_SB_T0_
0000000000059d47 W _ZSt7find_ifISt16reverse_iteratorIN9__gnu_cxx17__normal_iteratorIPPN7testing9TestSuiteESt6vectorIS5_SaIS5_EEEEENS3_8internal15TestSuiteNameIsEET_SE_SE_T0_
000000000007371d W _ZSt7forwardIN7testing12TestPropertyEEOT_RNSt16remove_referenceIS2_E4typeE
0000000000073240 W _ZSt7forwardIN7testing14TestPartResultEEOT_RNSt16remove_referenceIS2_E4typeE
000000000005d019 W _ZSt7forwardIN7testing8internal34TypeParameterizedTestSuiteRegistry30TypeParameterizedTestSuiteInfoEEOT_RNSt16remove_referenceIS4_E4typeE
000000000005c220 W _ZSt7forwardIN7testing8internal9EqMatcherINSt7__cxx1112basic_stringIcSt11char_traitsIcESaIcEEEEEEOT_RNSt16remove_referenceISA_E4typeE
000000000007389a W _ZSt7forwardIN7testing8internal9TraceInfoEEOT_RNSt16remove_referenceIS3_E4typeE
000000000005d007 W _ZSt7forwardINSt7__cxx1112basic_stringIcSt11char_traitsIcESaIcEEEEOT_RNSt16remove_referenceIS6_E4typeE
0000000000074028 W _ZSt7forwardINSt8__detail14_Node_iteratorINSt7__cxx1112basic_stringIcSt11char_traitsIcESaIcEEELb1ELb1EEEEOT_RNSt16remove_referenceIS9_E4typeE
000000000006ee91 W _ZSt7forwardIPKN7testing8internal11MatcherBaseINSt7__cxx1112basic_stringIcSt11char_traitsIcESaIcEEEEEEOT_RNSt16remove_referenceISC_E4typeE
000000000006ee7f W _ZSt7forwardIPKN7testing8internal11MatcherBaseIRKNSt7__cxx1112basic_stringIcSt11char_traitsIcESaIcEEEEEEOT_RNSt16remove_referenceISE_E4typeE
000000000006eea3 W _ZSt7forwardIPKN7testing8internal11MatcherBaseIRKSt17basic_string_viewIcSt11char_traitsIcEEEEEOT_RNSt16remove_referenceISC_E4typeE
000000000006eeb5 W _ZSt7forwardIPKN7testing8internal11MatcherBaseISt17basic_string_viewIcSt11char_traitsIcEEEEEOT_RNSt16remove_referenceISA_E4typeE
0000000000071401 W _ZSt7forwardIPKN7testing8internal9EqMatcherINSt7__cxx1112basic_stringIcSt11char_traitsIcESaIcEEEEEEOT_RNSt16remove_referenceISC_E4typeE
0000000000068bfe W _ZSt7forwardIPN7testing9TestSuiteEEOT_RNSt16remove_referenceIS3_E4typeE
0000000000070790 W _ZSt7forwardIPPN7testing8TestInfoEEOT_RNSt16remove_referenceIS4_E4typeE
0000000000066aa9 W _ZSt7forwardIRKN7testing12TestPropertyEEOT_RNSt16remove_referenceIS4_E4typeE
0000000000063575 W _ZSt7forwardIRKN7testing14TestPartResultEEOT_RNSt16remove_referenceIS4_E4typeE
000000000006560e W _ZSt7forwardIRKN7testing8internal13edit_distance8EditTypeEEOT_RNSt16remove_referenceIS6_E4typeE
0000000000067ef2 W _ZSt7forwardIRKN7testing8internal9TraceInfoEEOT_RNSt16remove_referenceIS5_E4typeE
0000000000063047 W _ZSt7forwardIRKNSt7__cxx1112basic_stringIcSt11char_traitsIcESaIcEEEEOT_RNSt16remove_referenceIS8_E4typeE
000000000007305d W _ZSt7forwardIRKPKcEOT_RNSt16remove_referenceIS4_E4typeE
0000000000067c94 W _ZSt7forwardIRKPN7testing11EnvironmentEEOT_RNSt16remove_referenceIS5_E4typeE
00000000000679d3 W _ZSt7forwardIRKPN7testing17TestEventListenerEEOT_RNSt16remove_referenceIS5_E4typeE
0000000000067271 W _ZSt7forwardIRKPN7testing8TestInfoEEOT_RNSt16remove_referenceIS5_E4typeE
0000000000068adc W _ZSt7forwardIRKPN7testing9TestSuiteEEOT_RNSt16remove_referenceIS5_E4typeE
0000000000072790 W _ZSt7forwardIRKSt17basic_string_viewIcSt11char_traitsIcEEEOT_RNSt16remove_referenceIS6_E4typeE
0000000000065b14 W _ZSt7forwardIRKSt21piecewise_construct_tEOT_RNSt16remove_referenceIS3_E4typeE
0000000000071bc0 W _ZSt7forwardIRKSt6vectorIN7testing8internal13edit_distance8EditTypeESaIS4_EEEOT_RNSt16remove_referenceIS9_E4typeE
0000000000071a1f W _ZSt7forwardIRKSt6vectorIdSaIdEEEOT_RNSt16remove_referenceIS5_E4typeE
0000000000074016 W _ZSt7forwardIRNSt7__cxx1112basic_stringIcSt11char_traitsIcESaIcEEEEOT_RNSt16remove_referenceIS7_E4typeE
000000000007428c W _ZSt7forwardIRNSt8__detail14_Node_iteratorINSt7__cxx1112basic_stringIcSt11char_traitsIcESaIcEEELb1ELb1EEEEOT_RNSt16remove_referenceISA_E4typeE
000000000005b281 W _ZSt7forwardIRPKcEOT_RNSt16remove_referenceIS3_E4typeE
000000000007076c W _ZSt7forwardIRPPN7testing8TestInfoEEOT_RNSt16remove_referenceIS5_E4typeE
000000000006cda2 W _ZSt7forwardIRPSt13_Rb_tree_nodeINSt7__cxx1112basic_stringIcSt11char_traitsIcESaIcEEEEEOT_RNSt16remove_referenceISA_E4typeE
000000000006cee1 W _ZSt7forwardIRPSt13_Rb_tree_nodeISt4pairIKNSt7__cxx1112basic_stringIcSt11char_traitsIcESaIcEEEN7testing8internal34TypeParameterizedTestSuiteRegistry30TypeParameterizedTestSuiteInfoEEEEOT_RNSt16remove_referenceISH_E4typeE
0000000000070131 W _ZSt7forwardIRPSt13_Rb_tree_nodeISt4pairIKNSt7__cxx1112basic_stringIcSt11char_traitsIcESaIcEEEmEEEOT_RNSt16remove_referenceISD_E4typeE
000000000006c40a W _ZSt7forwardIRPSt18_Rb_tree_node_baseEOT_RNSt16remove_referenceIS3_E4typeE
000000000006407c W _ZSt7forwardIRSt17_Rb_tree_iteratorINSt7__cxx1112basic_stringIcSt11char_traitsIcESaIcEEEEEOT_RNSt16remove_referenceIS9_E4typeE
000000000006408e W _ZSt7forwardIRbEOT_RNSt16remove_referenceIS1_E4typeE
000000000007077e W _ZSt7forwardIRlEOT_RNSt16remove_referenceIS1_E4typeE
000000000005b080 W _ZSt7forwardISt14default_deleteINSt7__cxx1112basic_stringIcSt11char_traitsIcESaIcEEEEEOT_RNSt16remove_referenceIS8_E4typeE
00000000000699f7 W _ZSt7forwardISt17_Rb_tree_iteratorINSt7__cxx1112basic_stringIcSt11char_traitsIcESaIcEEEEEOT_RNSt16remove_referenceIS8_E4typeE
0000000000069be0 W _ZSt7forwardISt17_Rb_tree_iteratorISt4pairIKNSt7__cxx1112basic_stringIcSt11char_traitsIcESaIcEEEN7testing8internal34TypeParameterizedTestSuiteRegistry30TypeParameterizedTestSuiteInfoEEEEOT_RNSt16remove_referenceISF_E4typeE
00000000000664f7 W _ZSt7forwardISt4pairIcPKcEEOT_RNSt16remove_referenceIS4_E4typeE
0000000000065b38 W _ZSt7forwardISt5tupleIJEEEOT_RNSt16remove_referenceIS2_E4typeE
0000000000065b26 W _ZSt7forwardISt5tupleIJRKNSt7__cxx1112basic_stringIcSt11char_traitsIcESaIcEEEEEEOT_RNSt16remove_referenceISA_E4typeE
000000000005b092 W _ZSt7forwardIbEOT_RNSt16remove_referenceIS0_E4typeE
000000000005ee91 W _ZSt7forwardIcEOT_RNSt16remove_referenceIS0_E4typeE
0000000000051482 W _ZSt7forwardIiEOT_RNSt16remove_referenceIS0_E4typeE
000000000005b0a4 W _ZSt7forwardImEOT_RNSt16remove_referenceIS0_E4typeE
0000000000047dae t _ZSt7none_ofIN9__gnu_cxx17__normal_iteratorIPKNSt7__cxx1112basic_stringIcSt11char_traitsIcESaIcEEESt6vectorIS7_SaIS7_EEEEZNK7testing8internal12_GLOBAL__N_114UnitTestFilter11MatchesNameERS8_EUlSI_E_EbT_SK_T0_
0000000000047d4f t _ZSt7none_ofIN9__gnu_cxx17__normal_iteratorIPKcNSt7__cxx1112basic_stringIcSt11char_traitsIcESaIcEEEEEZN7testing8internal12_GLOBAL__N_113IsGlobPatternERKS9_EUlcE_EbT_SH_T0_
00000000000a7ca8 D _ZSt7nothrow@GLIBCXX_3.4
0000000000055aba W _ZSt7reverseIN9__gnu_cxx17__normal_iteratorIPN7testing8internal13edit_distance8EditTypeESt6vectorIS5_SaIS5_EEEEEvT_SB_
0000000000054088 W _ZSt7setfillIcESt8_SetfillIT_ES1_
000000000006dd6e W _ZSt8_DestroyIN7testing12TestPropertyEEvPT_
000000000006dd3d W _ZSt8_DestroyIN7testing14TestPartResultEEvPT_
00000000000710ec W _ZSt8_DestroyIN7testing8internal9TraceInfoEEvPT_
000000000006c5c1 W _ZSt8_DestroyINSt7__cxx1112basic_stringIcSt11char_traitsIcESaIcEEEEvPT_
000000000006687d W _ZSt8_DestroyIPN7testing12TestPropertyEEvT_S3_
000000000005f5f2 W _ZSt8_DestroyIPN7testing12TestPropertyES1_EvT_S3_RSaIT0_E
0000000000066811 W _ZSt8_DestroyIPN7testing14TestPartResultEEvT_S3_
000000000005f516 W _ZSt8_DestroyIPN7testing14TestPartResultES1_EvT_S3_RSaIT0_E
00000000000653ed W _ZSt8_DestroyIPN7testing8internal13edit_distance8EditTypeEEvT_S5_
000000000005e25c W _ZSt8_DestroyIPN7testing8internal13edit_distance8EditTypeES3_EvT_S5_RSaIT0_E
000000000006bf5e W _ZSt8_DestroyIPN7testing8internal9TraceInfoEEvT_S4_
000000000006820c W _ZSt8_DestroyIPN7testing8internal9TraceInfoES2_EvT_S4_RSaIT0_E
0000000000062fd8 W _ZSt8_DestroyIPNSt7__cxx1112basic_stringIcSt11char_traitsIcESaIcEEEEvT_S7_
000000000005be28 W _ZSt8_DestroyIPNSt7__cxx1112basic_stringIcSt11char_traitsIcESaIcEEES5_EvT_S7_RSaIT0_E
0000000000068393 W _ZSt8_DestroyIPPN7testing11EnvironmentEEvT_S4_
00000000000616f6 W _ZSt8_DestroyIPPN7testing11EnvironmentES2_EvT_S4_RSaIT0_E
000000000006790f W _ZSt8_DestroyIPPN7testing17TestEventListenerEEvT_S4_
00000000000607f0 W _ZSt8_DestroyIPPN7testing17TestEventListenerES2_EvT_S4_RSaIT0_E
00000000000671db W _ZSt8_DestroyIPPN7testing8TestInfoEEvT_S4_
0000000000060298 W _ZSt8_DestroyIPPN7testing8TestInfoES2_EvT_S4_RSaIT0_E
0000000000062c7c W _ZSt8_DestroyIPPN7testing8internal30ParameterizedTestSuiteInfoBaseEEvT_S5_
000000000005b73a W _ZSt8_DestroyIPPN7testing8internal30ParameterizedTestSuiteInfoBaseES3_EvT_S5_RSaIT0_E
00000000000683ff W _ZSt8_DestroyIPPN7testing9TestSuiteEEvT_S4_
00000000000617d2 W _ZSt8_DestroyIPPN7testing9TestSuiteES2_EvT_S4_RSaIT0_E
00000000000655b2 W _ZSt8_DestroyIPSt6vectorIN7testing8internal13edit_distance8EditTypeESaIS4_EEEvT_S8_
000000000005e474 W _ZSt8_DestroyIPSt6vectorIN7testing8internal13edit_distance8EditTypeESaIS4_EES6_EvT_S8_RSaIT0_E
000000000006529c W _ZSt8_DestroyIPSt6vectorIdSaIdEEEvT_S4_
000000000005e0cc W _ZSt8_DestroyIPSt6vectorIdSaIdEES2_EvT_S4_RSaIT0_E
00000000000650d6 W _ZSt8_DestroyIPdEvT_S1_
000000000005deb4 W _ZSt8_DestroyIPddEvT_S1_RSaIT0_E
0000000000067247 W _ZSt8_DestroyIPiEvT_S1_
0000000000060374 W _ZSt8_DestroyIPiiEvT_S1_RSaIT0_E
000000000006612f W _ZSt8_DestroyIPmEvT_S1_
000000000005ec42 W _ZSt8_DestroyIPmmEvT_S1_RSaIT0_E
000000000006d8f2 W _ZSt8_DestroyISt6vectorIN7testing8internal13edit_distance8EditTypeESaIS4_EEEvPT_
000000000006d70c W _ZSt8_DestroyISt6vectorIdSaIdEEEvPT_
0000000000072ee9 W _ZSt8__fill_aIPN7testing8internal13edit_distance8EditTypeES3_EvT_S5_RKT0_
0000000000072d83 W _ZSt8__fill_aIPddEvT_S1_RKT0_
000000000005c5c8 W _ZSt8distanceIN9__gnu_cxx17__normal_iteratorIPKNSt7__cxx1112basic_stringIcSt11char_traitsIcESaIcEEESt6vectorIS7_SaIS7_EEEEENSt15iterator_traitsIT_E15difference_typeESF_SF_
000000000006b501 W _ZSt8distanceIN9__gnu_cxx17__normal_iteratorIPKcNSt7__cxx1112basic_stringIcSt11char_traitsIcESaIcEEEEEENSt15iterator_traitsIT_E15difference_typeESC_SC_
00000000000549bb W _ZSt8distanceIN9__gnu_cxx17__normal_iteratorIPNSt7__cxx1112basic_stringIcSt11char_traitsIcESaIcEEESt6vectorIS7_SaIS7_EEEEENSt15iterator_traitsIT_E15difference_typeESE_SE_
000000000006e44c W _ZSt8distanceIN9__gnu_cxx17__normal_iteratorIPPN7testing8TestInfoESt6vectorIS4_SaIS4_EEEEENSt15iterator_traitsIT_E15difference_typeESB_SB_
0000000000066d73 W _ZSt8distanceIPKPKcENSt15iterator_traitsIT_E15difference_typeES5_S5_
000000000005b0b6 W _ZSt8distanceIPKcENSt15iterator_traitsIT_E15difference_typeES3_S3_
000000000005b402 W _ZSt8distanceIPKwENSt15iterator_traitsIT_E15difference_typeES3_S3_
0000000000061cee W _ZSt8for_eachIN9__gnu_cxx17__normal_iteratorIPKPN7testing11EnvironmentESt6vectorIS4_SaIS4_EEEEPFvS4_EET0_T_SE_SD_
00000000000608ba W _ZSt8for_eachIN9__gnu_cxx17__normal_iteratorIPKPN7testing17TestEventListenerESt6vectorIS4_SaIS4_EEEEPFvS4_EET0_T_SE_SD_
00000000000603a2 W _ZSt8for_eachIN9__gnu_cxx17__normal_iteratorIPKPN7testing8TestInfoESt6vectorIS4_SaIS4_EEEEPFvS4_EET0_T_SE_SD_
000000000005b8f2 W _ZSt8for_eachIN9__gnu_cxx17__normal_iteratorIPKPN7testing9TestSuiteESt6vectorIS4_SaIS4_EEEEPFvS4_EET0_T_SE_SD_
000000000005a2e2 W _ZSt8for_eachISt16reverse_iteratorIN9__gnu_cxx17__normal_iteratorIPPN7testing11EnvironmentESt6vectorIS5_SaIS5_EEEEEPFvS5_EET0_T_SF_SE_
0000000000054bda W _ZSt8inserterISt13unordered_setINSt7__cxx1112basic_stringIcSt11char_traitsIcESaIcEEESt4hashIS6_ESt8equal_toIS6_ESaIS6_EEESt15insert_iteratorIT_ERSE_NSE_8iteratorE
0000000000054b0d W _ZSt8inserterISt6vectorINSt7__cxx1112basic_stringIcSt11char_traitsIcESaIcEEESaIS6_EEESt15insert_iteratorIT_ERSA_NSA_8iteratorE
00000000000708cd W _ZSt9__advanceIN9__gnu_cxx17__normal_iteratorIPPN7testing8TestInfoESt6vectorIS4_SaIS4_EEEElEvRT_T0_St26random_access_iterator_tag
0000000000063258 W _ZSt9__advanceIN9__gnu_cxx17__normal_iteratorIPcNSt7__cxx1112basic_stringIcSt11char_traitsIcESaIcEEEEElEvRT_T0_St26random_access_iterator_tag
0000000000073668 W _ZSt9__fill_a1IPN7testing8internal13edit_distance8EditTypeES3_EN9__gnu_cxx11__enable_ifIXntsrSt11__is_scalarIT0_E7__valueEvE6__typeET_SC_RKS8_
00000000000735a1 W _ZSt9__fill_a1IPddEN9__gnu_cxx11__enable_ifIXsrSt11__is_scalarIT0_E7__valueEvE6__typeET_S8_RKS4_
00000000000483c2 t _ZSt9__find_ifIN9__gnu_cxx17__normal_iteratorIPKNSt7__cxx1112basic_stringIcSt11char_traitsIcESaIcEEESt6vectorIS7_SaIS7_EEEENS0_5__ops10_Iter_predIZNK7testing8internal12_GLOBAL__N_114UnitTestFilter11MatchesNameERS8_EUlSK_E_EEET_SN_SN_T0_
0000000000048ccd t _ZSt9__find_ifIN9__gnu_cxx17__normal_iteratorIPKNSt7__cxx1112basic_stringIcSt11char_traitsIcESaIcEEESt6vectorIS7_SaIS7_EEEENS0_5__ops10_Iter_predIZNK7testing8internal12_GLOBAL__N_114UnitTestFilter11MatchesNameERS8_EUlSK_E_EEET_SN_SN_T0_St26random_access_iterator_tag
000000000005fc8a W _ZSt9__find_ifIN9__gnu_cxx17__normal_iteratorIPKNSt7__cxx1112basic_stringIcSt11char_traitsIcESaIcEEESt6vectorIS7_SaIS7_EEEENS0_5__ops16_Iter_equals_valIS8_EEET_SH_SH_T0_
0000000000066e7a W _ZSt9__find_ifIN9__gnu_cxx17__normal_iteratorIPKNSt7__cxx1112basic_stringIcSt11char_traitsIcESaIcEEESt6vectorIS7_SaIS7_EEEENS0_5__ops16_Iter_equals_valIS8_EEET_SH_SH_T0_St26random_access_iterator_tag
000000000004833e t _ZSt9__find_ifIN9__gnu_cxx17__normal_iteratorIPKcNSt7__cxx1112basic_stringIcSt11char_traitsIcESaIcEEEEENS0_5__ops10_Iter_predIZN7testing8internal12_GLOBAL__N_113IsGlobPatternERKS9_EUlcE_EEET_SK_SK_T0_
0000000000048aef t _ZSt9__find_ifIN9__gnu_cxx17__normal_iteratorIPKcNSt7__cxx1112basic_stringIcSt11char_traitsIcESaIcEEEEENS0_5__ops10_Iter_predIZN7testing8internal12_GLOBAL__N_113IsGlobPatternERKS9_EUlcE_EEET_SK_SK_T0_St26random_access_iterator_tag
000000000005f85a W _ZSt9__find_ifIN9__gnu_cxx17__normal_iteratorIPN7testing12TestPropertyESt6vectorIS3_SaIS3_EEEENS0_5__ops10_Iter_predINS2_8internal17TestPropertyKeyIsEEEET_SE_SE_T0_
00000000000668ff W _ZSt9__find_ifIN9__gnu_cxx17__normal_iteratorIPN7testing12TestPropertyESt6vectorIS3_SaIS3_EEEENS0_5__ops10_Iter_predINS2_8internal17TestPropertyKeyIsEEEET_SE_SE_T0_St26random_access_iterator_tag
0000000000061e80 W _ZSt9__find_ifISt16reverse_iteratorIN9__gnu_cxx17__normal_iteratorIPPN7testing9TestSuiteESt6vectorIS5_SaIS5_EEEEENS1_5__ops10_Iter_predINS3_8internal15TestSuiteNameIsEEEET_SH_SH_T0_
00000000000687ac W _ZSt9__find_ifISt16reverse_iteratorIN9__gnu_cxx17__normal_iteratorIPPN7testing9TestSuiteESt6vectorIS5_SaIS5_EEEEENS1_5__ops10_Iter_predINS3_8internal15TestSuiteNameIsEEEET_SH_SH_T0_St26random_access_iterator_tag
000000000005e733 W _ZSt9__reverseIN9__gnu_cxx17__normal_iteratorIPN7testing8internal13edit_distance8EditTypeESt6vectorIS5_SaIS5_EEEEEvT_SB_St26random_access_iterator_tag
0000000000071824 W _ZSt9addressofINSt8__detail10_Hash_nodeINSt7__cxx1112basic_stringIcSt11char_traitsIcESaIcEEELb1EEEEPT_RS9_
000000000006f875 W _ZSt9addressofIPNSt8__detail15_Hash_node_baseEEPT_RS3_
00000000000658b7 W _ZSt9iter_swapIN9__gnu_cxx17__normal_iteratorIPN7testing8internal13edit_distance8EditTypeESt6vectorIS5_SaIS5_EEEESA_EvT_T0_
000000000006488a W _ZSt9iter_swapIN9__gnu_cxx17__normal_iteratorIPNSt7__cxx1112basic_stringIcSt11char_traitsIcESaIcEEESt6vectorIS7_SaIS7_EEEESC_EvT_T0_
000000000006e3cc W _ZSt9iter_swapIN9__gnu_cxx17__normal_iteratorIPPN7testing8TestInfoESt6vectorIS4_SaIS4_EEEES9_EvT_T0_
0000000000055f0f W _ZSt9make_pairIcRPKcESt4pairINSt25__strip_reference_wrapperINSt5decayIT_E4typeEE6__typeENS4_INS5_IT0_E4typeEE6__typeEEOS6_OSB_
000000000005495b W _ZSt9partitionIN9__gnu_cxx17__normal_iteratorIPNSt7__cxx1112basic_stringIcSt11char_traitsIcESaIcEEESt6vectorIS7_SaIS7_EEEEPFbRKS7_EET_SH_SH_T0_
000000000004a7e0 W _ZSt9showpointRSt8ios_base
000000000004a807 W _ZSt9uppercaseRSt8ios_base
00000000000760ea r _ZStL10adopt_lock
00000000000760e8 r _ZStL10defer_lock
00000000000760e9 r _ZStL11try_to_lock
00000000000760e1 r _ZStL13allocator_arg
00000000000760e0 r _ZStL19piecewise_construct
00000000000760e2 r _ZStL6ignore
00000000000a9500 b _ZStL8__ioinit
0000000000119708 b _ZStL8__ioinit
00000000001197b2 b _ZStL8__ioinit
000000000004a6d3 W _ZStaNRSt13_Ios_FmtflagsS_
000000000004a664 W _ZStanSt13_Ios_FmtflagsS_
000000000004a690 W _ZStcoSt13_Ios_Fmtflags
0000000000068daf W _ZSteqIN9__gnu_cxx17__normal_iteratorIPPN7testing11EnvironmentESt6vectorIS4_SaIS4_EEEEEbRKSt16reverse_iteratorIT_ESE_
0000000000061f53 W _ZSteqIN9__gnu_cxx17__normal_iteratorIPPN7testing9TestSuiteESt6vectorIS4_SaIS4_EEEEEbRKSt16reverse_iteratorIT_ESE_
000000000005137c W _ZSteqINSt7__cxx1112basic_stringIcSt11char_traitsIcESaIcEEESt14default_deleteIS5_EEbRKSt10unique_ptrIT_T0_EDn
000000000006d3c8 W _ZSteqIcEN9__gnu_cxx11__enable_ifIXsrSt9__is_charIT_E7__valueEbE6__typeERKNSt7__cxx1112basic_stringIS3_St11char_traitsIS3_ESaIS3_EEESE_
0000000000072822 W _ZSteqIcSt11char_traitsIcEEbSt17basic_string_viewIT_T0_ENSt15__type_identityIS5_E4typeE
00000000000520cd W _ZSteqIcSt11char_traitsIcESaIcEEbPKT_RKNSt7__cxx1112basic_stringIS3_T0_T1_EE
00000000000524d9 W _ZSteqIcSt11char_traitsIcESaIcEEbRKNSt7__cxx1112basic_stringIT_T0_T1_EEPKS5_
0000000000069924 W _ZSteqRKSt17_Rb_tree_iteratorINSt7__cxx1112basic_stringIcSt11char_traitsIcESaIcEEEES8_
00000000000646a4 W _ZSteqRKSt17_Rb_tree_iteratorISt4pairIKNSt7__cxx1112basic_stringIcSt11char_traitsIcESaIcEEEN7testing8internal34TypeParameterizedTestSuiteRegistry30TypeParameterizedTestSuiteInfoEEESF_
000000000005e965 W _ZSteqRKSt17_Rb_tree_iteratorISt4pairIKNSt7__cxx1112basic_stringIcSt11char_traitsIcESaIcEEEmEESB_
000000000005cc98 W _ZSteqRKSt23_Rb_tree_const_iteratorINSt7__cxx1112basic_stringIcSt11char_traitsIcESaIcEEEES8_
000000000005b3ba W _ZSteqRKSt23_Rb_tree_const_iteratorISt4pairIKNSt7__cxx1112basic_stringIcSt11char_traitsIcESaIcEEEN7testing8internal12CodeLocationEEESE_
                 U _ZStlsISt11char_traitsIcEERSt13basic_ostreamIcT_ES5_PKc@GLIBCXX_3.4
                 U _ZStlsISt11char_traitsIcEERSt13basic_ostreamIcT_ES5_c@GLIBCXX_3.4
                 U _ZStlsIcSt11char_traitsIcEERSt13basic_ostreamIT_T0_ES6_St13_Setprecision@GLIBCXX_3.4
                 U _ZStlsIcSt11char_traitsIcEERSt13basic_ostreamIT_T0_ES6_St5_Setw@GLIBCXX_3.4
                 U _ZStlsIcSt11char_traitsIcEERSt13basic_ostreamIT_T0_ES6_St8_SetfillIS3_E@GLIBCXX_3.4
                 U _ZStlsIcSt11char_traitsIcESaIcEERSt13basic_ostreamIT_T0_ES7_RKNSt7__cxx1112basic_stringIS4_S5_T1_EE@GLIBCXX_3.4.21
0000000000065abd W _ZStltIcSt11char_traitsIcESaIcEEbRKNSt7__cxx1112basic_stringIT_T0_T1_EESA_
000000000006871d W _ZStmiIN9__gnu_cxx17__normal_iteratorIPPN7testing9TestSuiteESt6vectorIS4_SaIS4_EEEES9_EDTmicldtfp0_4baseEcldtfp_4baseEERKSt16reverse_iteratorIT_ERKSB_IT0_E
0000000000051de9 W _ZStneIKNSt7__cxx1112basic_stringIcSt11char_traitsIcESaIcEEESt14default_deleteIS6_EEbRKSt10unique_ptrIT_T0_EDn
0000000000059c6c W _ZStneIN7testing8internal24InternalRunDeathTestFlagESt14default_deleteIS2_EEbRKSt10unique_ptrIT_T0_EDn
0000000000062508 W _ZStneIN9__gnu_cxx17__normal_iteratorIPPN7testing11EnvironmentESt6vectorIS4_SaIS4_EEEEEbRKSt16reverse_iteratorIT_ESE_
0000000000059e51 W _ZStneIN9__gnu_cxx17__normal_iteratorIPPN7testing9TestSuiteESt6vectorIS4_SaIS4_EEEEEbRKSt16reverse_iteratorIT_ESE_
0000000000015448 W _ZStneINSt7__cxx1112basic_stringIcSt11char_traitsIcESaIcEEESt14default_deleteIS5_EEbRKSt10unique_ptrIT_T0_EDn
000000000005638c W _ZStneIcSt11char_traitsIcESaIcEEbRKNSt7__cxx1112basic_stringIT_T0_T1_EEPKS5_
0000000000054810 W _ZStneRKSt17_Rb_tree_iteratorISt4pairIKNSt7__cxx1112basic_stringIcSt11char_traitsIcESaIcEEEN7testing8internal34TypeParameterizedTestSuiteRegistry30TypeParameterizedTestSuiteInfoEEESF_
0000000000055b38 W _ZStneRKSt17_Rb_tree_iteratorISt4pairIKNSt7__cxx1112basic_stringIcSt11char_traitsIcESaIcEEEmEESB_
0000000000056098 W _ZStneRKSt20_List_const_iteratorISt4pairIcPKcEES6_
0000000000054718 W _ZStneRKSt23_Rb_tree_const_iteratorINSt7__cxx1112basic_stringIcSt11char_traitsIcESaIcEEEES8_
00000000000515db W _ZStneRKSt23_Rb_tree_const_iteratorISt4pairIKNSt7__cxx1112basic_stringIcSt11char_traitsIcESaIcEEEN7testing8internal12CodeLocationEEESE_
000000000004a6a2 W _ZStoRRSt13_Ios_FmtflagsS_
000000000004a67a W _ZStorSt13_Ios_FmtflagsS_
00000000000523ed W _ZStplIcSt11char_traitsIcESaIcEENSt7__cxx1112basic_stringIT_T0_T1_EEOS8_PKS5_
00000000000532a5 W _ZStplIcSt11char_traitsIcESaIcEENSt7__cxx1112basic_stringIT_T0_T1_EEOS8_RKS8_
0000000000050fff W _ZStplIcSt11char_traitsIcESaIcEENSt7__cxx1112basic_stringIT_T0_T1_EEOS8_S9_
00000000000510e8 W _ZStplIcSt11char_traitsIcESaIcEENSt7__cxx1112basic_stringIT_T0_T1_EEPKS5_OS8_
0000000000052e88 W _ZStplIcSt11char_traitsIcESaIcEENSt7__cxx1112basic_stringIT_T0_T1_EEPKS5_RKS8_
0000000000050f96 W _ZStplIcSt11char_traitsIcESaIcEENSt7__cxx1112basic_stringIT_T0_T1_EERKS8_PKS5_
0000000000053239 W _ZStplIcSt11char_traitsIcESaIcEENSt7__cxx1112basic_stringIT_T0_T1_EERKS8_S5_
                 U _ZStrsIcSt11char_traitsIcESaIcEERSt13basic_istreamIT_T0_ES7_RNSt7__cxx1112basic_stringIS4_S5_T1_EE@GLIBCXX_3.4.21
00000000000a7d88 V _ZTI12GuidanceTest
00000000000a7d70 V _ZTI24GuidanceTest_Normal_Test
00000000000a83b0 V _ZTIN7testing17TestEventListenerE
00000000000a83c0 V _ZTIN7testing18AssertionExceptionE
00000000000a8580 V _ZTIN7testing19MatchResultListenerE
00000000000a8398 V _ZTIN7testing22EmptyTestEventListenerE
00000000000a8570 V _ZTIN7testing25MatcherDescriberInterfaceE
00000000000a8410 V _ZTIN7testing31TestPartResultReporterInterfaceE
00000000000a8370 V _ZTIN7testing32ScopedFakeTestPartResultReporterE
00000000000a83e8 V _ZTIN7testing4TestE
00000000000a84d8 V _ZTIN7testing7MatcherINSt7__cxx1112basic_stringIcSt11char_traitsIcESaIcEEEEE
00000000000a8518 V _ZTIN7testing7MatcherIRKNSt7__cxx1112basic_stringIcSt11char_traitsIcESaIcEEEEE
00000000000a8498 V _ZTIN7testing7MatcherIRKSt17basic_string_viewIcSt11char_traitsIcEEEE
00000000000a8458 V _ZTIN7testing7MatcherISt17basic_string_viewIcSt11char_traitsIcEEEE
00000000000a8388 V _ZTIN7testing8UnitTestE
00000000000a84f0 V _ZTIN7testing8internal11MatcherBaseINSt7__cxx1112basic_stringIcSt11char_traitsIcESaIcEEEEE
00000000000a8530 V _ZTIN7testing8internal11MatcherBaseIRKNSt7__cxx1112basic_stringIcSt11char_traitsIcESaIcEEEEE
00000000000a84b0 V _ZTIN7testing8internal11MatcherBaseIRKSt17basic_string_viewIcSt11char_traitsIcEEEE
00000000000a8470 V _ZTIN7testing8internal11MatcherBaseISt17basic_string_viewIcSt11char_traitsIcEEEE
00000000000a8118 V _ZTIN7testing8internal11ThreadLocalIPNS_31TestPartResultReporterInterfaceEE11ValueHolderE
00000000000a8188 V _ZTIN7testing8internal11ThreadLocalIPNS_31TestPartResultReporterInterfaceEE18ValueHolderFactoryE
00000000000a8170 V _ZTIN7testing8internal11ThreadLocalIPNS_31TestPartResultReporterInterfaceEE26InstanceValueHolderFactoryE
00000000000a8130 V _ZTIN7testing8internal11ThreadLocalISt6vectorINS0_9TraceInfoESaIS3_EEE11ValueHolderE
00000000000a8160 V _ZTIN7testing8internal11ThreadLocalISt6vectorINS0_9TraceInfoESaIS3_EEE18ValueHolderFactoryE
00000000000a8148 V _ZTIN7testing8internal11ThreadLocalISt6vectorINS0_9TraceInfoESaIS3_EEE25DefaultValueHolderFactoryE
00000000000a8308 V _ZTIN7testing8internal12UnitTestImplE
00000000000a81d8 d _ZTIN7testing8internal12_GLOBAL__N_111FailureTestE
00000000000a81c8 d _ZTIN7testing8internal12_GLOBAL__N_123ClassUniqueToAlwaysTrueE
00000000000a82b0 V _ZTIN7testing8internal13DeathTestImplE
00000000000a8268 V _ZTIN7testing8internal13ExecDeathTestE
00000000000a8280 V _ZTIN7testing8internal15NoExecDeathTestE
00000000000a7da0 V _ZTIN7testing8internal15TestFactoryBaseE
00000000000a7d58 V _ZTIN7testing8internal15TestFactoryImplI24GuidanceTest_Normal_TestEE
00000000000a8438 V _ZTIN7testing8internal16DeathTestFactoryE
00000000000a8298 V _ZTIN7testing8internal16ForkingDeathTestE
00000000000a82e0 V _ZTIN7testing8internal17StreamingListener12SocketWriterE
00000000000a82f8 V _ZTIN7testing8internal17StreamingListener20AbstractSocketWriterE
00000000000a82c8 V _ZTIN7testing8internal17StreamingListenerE
00000000000a8220 V _ZTIN7testing8internal17TestEventRepeaterE
00000000000a8348 V _ZTIN7testing8internal18OsStackTraceGetterE
00000000000a8420 V _ZTIN7testing8internal23DefaultDeathTestFactoryE
00000000000a8558 V _ZTIN7testing8internal24DummyMatchResultListenerE
00000000000a83f8 V _ZTIN7testing8internal24HasNewFatalFailureHelperE
00000000000a8208 V _ZTIN7testing8internal24XmlUnitTestResultPrinterE
00000000000a81f0 V _ZTIN7testing8internal25JsonUnitTestResultPrinterE
00000000000a8238 V _ZTIN7testing8internal26BriefUnitTestResultPrinterE
00000000000a8590 V _ZTIN7testing8internal26GoogleTestFailureExceptionE
00000000000a85a8 V _ZTIN7testing8internal26ThreadLocalValueHolderBaseE
00000000000a8360 V _ZTIN7testing8internal27OsStackTraceGetterInterfaceE
00000000000a8250 V _ZTIN7testing8internal27PrettyUnitTestResultPrinterE
00000000000a8330 V _ZTIN7testing8internal35DefaultGlobalTestPartResultReporterE
00000000000a8318 V _ZTIN7testing8internal38DefaultPerThreadTestPartResultReporterE
00000000000a8448 V _ZTIN7testing8internal9DeathTestE
00000000000a83d8 V _ZTIN7testing9TestSuiteE
                 U _ZTISt13runtime_error@GLIBCXX_3.4
                 U _ZTISt9exception@GLIBCXX_3.4
00000000000a81b0 d _ZTIZN7testing12RegisterTestIJEZNS_8internal23InsertSyntheticTestCaseERKNSt7__cxx1112basic_stringIcSt11char_traitsIcESaIcEEENS1_12CodeLocationEbEUlvE_EEPNS_8TestInfoEPKcSF_SF_SF_SF_iT0_E11FactoryImpl
00000000000a8198 d _ZTIZN7testing12RegisterTestIJEZNS_8internal34TypeParameterizedTestSuiteRegistry22CheckForInstantiationsEvEUlvE_EEPNS_8TestInfoEPKcS7_S7_S7_S7_iT0_E11FactoryImpl
0000000000076df0 V _ZTS12GuidanceTest
0000000000076dd0 V _ZTS24GuidanceTest_Normal_Test
000000000007c2d0 V _ZTSN7testing17TestEventListenerE
000000000007c2f0 V _ZTSN7testing18AssertionExceptionE
000000000007c7c0 V _ZTSN7testing19MatchResultListenerE
000000000007c2a0 V _ZTSN7testing22EmptyTestEventListenerE
000000000007c780 V _ZTSN7testing25MatcherDescriberInterfaceE
000000000007c380 V _ZTSN7testing31TestPartResultReporterInterfaceE
000000000007c240 V _ZTSN7testing32ScopedFakeTestPartResultReporterE
000000000007c330 V _ZTSN7testing4TestE
000000000007c5c0 V _ZTSN7testing7MatcherINSt7__cxx1112basic_stringIcSt11char_traitsIcESaIcEEEEE
000000000007c680 V _ZTSN7testing7MatcherIRKNSt7__cxx1112basic_stringIcSt11char_traitsIcESaIcEEEEE
000000000007c500 V _ZTSN7testing7MatcherIRKSt17basic_string_viewIcSt11char_traitsIcEEEE
000000000007c460 V _ZTSN7testing7MatcherISt17basic_string_viewIcSt11char_traitsIcEEEE
000000000007c270 V _ZTSN7testing8UnitTestE
000000000007c620 V _ZTSN7testing8internal11MatcherBaseINSt7__cxx1112basic_stringIcSt11char_traitsIcESaIcEEEEE
000000000007c6e0 V _ZTSN7testing8internal11MatcherBaseIRKNSt7__cxx1112basic_stringIcSt11char_traitsIcESaIcEEEEE
000000000007c560 V _ZTSN7testing8internal11MatcherBaseIRKSt17basic_string_viewIcSt11char_traitsIcEEEE
000000000007c4a0 V _ZTSN7testing8internal11MatcherBaseISt17basic_string_viewIcSt11char_traitsIcEEEE
000000000007bba0 V _ZTSN7testing8internal11ThreadLocalIPNS_31TestPartResultReporterInterfaceEE11ValueHolderE
000000000007bda0 V _ZTSN7testing8internal11ThreadLocalIPNS_31TestPartResultReporterInterfaceEE18ValueHolderFactoryE
000000000007bd20 V _ZTSN7testing8internal11ThreadLocalIPNS_31TestPartResultReporterInterfaceEE26InstanceValueHolderFactoryE
000000000007bc00 V _ZTSN7testing8internal11ThreadLocalISt6vectorINS0_9TraceInfoESaIS3_EEE11ValueHolderE
000000000007bcc0 V _ZTSN7testing8internal11ThreadLocalISt6vectorINS0_9TraceInfoESaIS3_EEE18ValueHolderFactoryE
000000000007bc60 V _ZTSN7testing8internal11ThreadLocalISt6vectorINS0_9TraceInfoESaIS3_EEE25DefaultValueHolderFactoryE
000000000007c100 V _ZTSN7testing8internal12UnitTestImplE
000000000007bb00 r _ZTSN7testing8internal12_GLOBAL__N_111FailureTestE
000000000007bac0 r _ZTSN7testing8internal12_GLOBAL__N_123ClassUniqueToAlwaysTrueE
000000000007c000 V _ZTSN7testing8internal13DeathTestImplE
000000000007bf40 V _ZTSN7testing8internal13ExecDeathTestE
000000000007bf80 V _ZTSN7testing8internal15NoExecDeathTestE
0000000000076e00 V _ZTSN7testing8internal15TestFactoryBaseE
0000000000076d80 V _ZTSN7testing8internal15TestFactoryImplI24GuidanceTest_Normal_TestEE
000000000007c400 V _ZTSN7testing8internal16DeathTestFactoryE
000000000007bfc0 V _ZTSN7testing8internal16ForkingDeathTestE
000000000007c080 V _ZTSN7testing8internal17StreamingListener12SocketWriterE
000000000007c0c0 V _ZTSN7testing8internal17StreamingListener20AbstractSocketWriterE
000000000007c040 V _ZTSN7testing8internal17StreamingListenerE
000000000007be80 V _ZTSN7testing8internal17TestEventRepeaterE
000000000007c1c0 V _ZTSN7testing8internal18OsStackTraceGetterE
000000000007c3c0 V _ZTSN7testing8internal23DefaultDeathTestFactoryE
000000000007c740 V _ZTSN7testing8internal24DummyMatchResultListenerE
000000000007c340 V _ZTSN7testing8internal24HasNewFatalFailureHelperE
000000000007be40 V _ZTSN7testing8internal24XmlUnitTestResultPrinterE
000000000007be00 V _ZTSN7testing8internal25JsonUnitTestResultPrinterE
000000000007bec0 V _ZTSN7testing8internal26BriefUnitTestResultPrinterE
000000000007c7e0 V _ZTSN7testing8internal26GoogleTestFailureExceptionE
000000000007c820 V _ZTSN7testing8internal26ThreadLocalValueHolderBaseE
000000000007c200 V _ZTSN7testing8internal27OsStackTraceGetterInterfaceE
000000000007bf00 V _ZTSN7testing8internal27PrettyUnitTestResultPrinterE
000000000007c180 V _ZTSN7testing8internal35DefaultGlobalTestPartResultReporterE
000000000007c140 V _ZTSN7testing8internal38DefaultPerThreadTestPartResultReporterE
000000000007c430 V _ZTSN7testing8internal9DeathTestE
000000000007c310 V _ZTSN7testing9TestSuiteE
000000000007b9e0 r _ZTSZN7testing12RegisterTestIJEZNS_8internal23InsertSyntheticTestCaseERKNSt7__cxx1112basic_stringIcSt11char_traitsIcESaIcEEENS1_12CodeLocationEbEUlvE_EEPNS_8TestInfoEPKcSF_SF_SF_SF_iT0_E11FactoryImpl
000000000007b940 r _ZTSZN7testing12RegisterTestIJEZNS_8internal34TypeParameterizedTestSuiteRegistry22CheckForInstantiationsEvEUlvE_EEPNS_8TestInfoEPKcS7_S7_S7_S7_iT0_E11FactoryImpl
00000000000a7cf0 V _ZTV12GuidanceTest
00000000000a5e58 V _ZTV24GuidanceTest_Normal_Test
                 U _ZTVN10__cxxabiv117__class_type_infoE@CXXABI_1.3
                 U _ZTVN10__cxxabiv120__si_class_type_infoE@CXXABI_1.3
                 U _ZTVN10__cxxabiv121__vmi_class_type_infoE@CXXABI_1.3
00000000000a7f70 V _ZTVN7testing17TestEventListenerE
00000000000a80d0 V _ZTVN7testing19MatchResultListenerE
00000000000a7a48 V _ZTVN7testing22EmptyTestEventListenerE
00000000000a80a0 V _ZTVN7testing25MatcherDescriberInterfaceE
00000000000a8010 V _ZTVN7testing31TestPartResultReporterInterfaceE
00000000000a7870 V _ZTVN7testing32ScopedFakeTestPartResultReporterE
00000000000a7e40 V _ZTVN7testing4TestE
00000000000a7ba8 V _ZTVN7testing7MatcherINSt7__cxx1112basic_stringIcSt11char_traitsIcESaIcEEEEE
00000000000a7c08 V _ZTVN7testing7MatcherIRKNSt7__cxx1112basic_stringIcSt11char_traitsIcESaIcEEEEE
00000000000a7b48 V _ZTVN7testing7MatcherIRKSt17basic_string_viewIcSt11char_traitsIcEEEE
00000000000a7ae8 V _ZTVN7testing7MatcherISt17basic_string_viewIcSt11char_traitsIcEEEE
00000000000a7490 V _ZTVN7testing8UnitTestE
00000000000a7bd8 V _ZTVN7testing8internal11MatcherBaseINSt7__cxx1112basic_stringIcSt11char_traitsIcESaIcEEEEE
00000000000a7c38 V _ZTVN7testing8internal11MatcherBaseIRKNSt7__cxx1112basic_stringIcSt11char_traitsIcESaIcEEEEE
00000000000a7b78 V _ZTVN7testing8internal11MatcherBaseIRKSt17basic_string_viewIcSt11char_traitsIcEEEE
00000000000a7b18 V _ZTVN7testing8internal11MatcherBaseISt17basic_string_viewIcSt11char_traitsIcEEEE
00000000000a73e0 V _ZTVN7testing8internal11ThreadLocalIPNS_31TestPartResultReporterInterfaceEE11ValueHolderE
00000000000a7e18 V _ZTVN7testing8internal11ThreadLocalIPNS_31TestPartResultReporterInterfaceEE18ValueHolderFactoryE
00000000000a7448 V _ZTVN7testing8internal11ThreadLocalIPNS_31TestPartResultReporterInterfaceEE26InstanceValueHolderFactoryE
00000000000a7400 V _ZTVN7testing8internal11ThreadLocalISt6vectorINS0_9TraceInfoESaIS3_EEE11ValueHolderE
00000000000a7df0 V _ZTVN7testing8internal11ThreadLocalISt6vectorINS0_9TraceInfoESaIS3_EEE18ValueHolderFactoryE
00000000000a7420 V _ZTVN7testing8internal11ThreadLocalISt6vectorINS0_9TraceInfoESaIS3_EEE25DefaultValueHolderFactoryE
00000000000a7470 V _ZTVN7testing8internal12UnitTestImplE
00000000000a7308 d _ZTVN7testing8internal12_GLOBAL__N_111FailureTestE
00000000000a7ec8 V _ZTVN7testing8internal13DeathTestImplE
00000000000a78e8 V _ZTVN7testing8internal13ExecDeathTestE
00000000000a7930 V _ZTVN7testing8internal15NoExecDeathTestE
00000000000a7d30 V _ZTVN7testing8internal15TestFactoryBaseE
00000000000a5e98 V _ZTVN7testing8internal15TestFactoryImplI24GuidanceTest_Normal_TestEE
00000000000a8038 V _ZTVN7testing8internal16DeathTestFactoryE
00000000000a7e80 V _ZTVN7testing8internal16ForkingDeathTestE
00000000000a7a18 V _ZTVN7testing8internal17StreamingListener12SocketWriterE
00000000000a7f10 V _ZTVN7testing8internal17StreamingListener20AbstractSocketWriterE
00000000000a7978 V _ZTVN7testing8internal17StreamingListenerE
00000000000a7620 V _ZTVN7testing8internal17TestEventRepeaterE
00000000000a74b0 V _ZTVN7testing8internal18OsStackTraceGetterE
00000000000a78c0 V _ZTVN7testing8internal23DefaultDeathTestFactoryE
00000000000a7c68 V _ZTVN7testing8internal24DummyMatchResultListenerE
00000000000a7898 V _ZTVN7testing8internal24HasNewFatalFailureHelperE
00000000000a7580 V _ZTVN7testing8internal24XmlUnitTestResultPrinterE
00000000000a74e0 V _ZTVN7testing8internal25JsonUnitTestResultPrinterE
00000000000a76c0 V _ZTVN7testing8internal26BriefUnitTestResultPrinterE
00000000000a80f0 V _ZTVN7testing8internal26GoogleTestFailureExceptionE
00000000000a7c88 V _ZTVN7testing8internal26ThreadLocalValueHolderBaseE
00000000000a7f40 V _ZTVN7testing8internal27OsStackTraceGetterInterfaceE
00000000000a7760 V _ZTVN7testing8internal27PrettyUnitTestResultPrinterE
00000000000a7848 V _ZTVN7testing8internal35DefaultGlobalTestPartResultReporterE
00000000000a7820 V _ZTVN7testing8internal38DefaultPerThreadTestPartResultReporterE
00000000000a8060 V _ZTVN7testing8internal9DeathTestE
00000000000a7800 V _ZTVN7testing9TestSuiteE
00000000000a72e0 d _ZTVZN7testing12RegisterTestIJEZNS_8internal23InsertSyntheticTestCaseERKNSt7__cxx1112basic_stringIcSt11char_traitsIcESaIcEEENS1_12CodeLocationEbEUlvE_EEPNS_8TestInfoEPKcSF_SF_SF_SF_iT0_E11FactoryImpl
00000000000a72b8 d _ZTVZN7testing12RegisterTestIJEZNS_8internal34TypeParameterizedTestSuiteRegistry22CheckForInstantiationsEvEUlvE_EEPNS_8TestInfoEPKcS7_S7_S7_S7_iT0_E11FactoryImpl
0000000000046388 t _ZZN7testing12RegisterTestIJEZNS_8internal23InsertSyntheticTestCaseERKNSt7__cxx1112basic_stringIcSt11char_traitsIcESaIcEEENS1_12CodeLocationEbEUlvE_EEPNS_8TestInfoEPKcSF_SF_SF_SF_iT0_EN11FactoryImpl10CreateTestEv
0000000000046336 t _ZZN7testing12RegisterTestIJEZNS_8internal23InsertSyntheticTestCaseERKNSt7__cxx1112basic_stringIcSt11char_traitsIcESaIcEEENS1_12CodeLocationEbEUlvE_EEPNS_8TestInfoEPKcSF_SF_SF_SF_iT0_EN11FactoryImplC1ESB_
0000000000046336 t _ZZN7testing12RegisterTestIJEZNS_8internal23InsertSyntheticTestCaseERKNSt7__cxx1112basic_stringIcSt11char_traitsIcESaIcEEENS1_12CodeLocationEbEUlvE_EEPNS_8TestInfoEPKcSF_SF_SF_SF_iT0_EN11FactoryImplC2ESB_
0000000000049bc8 t _ZZN7testing12RegisterTestIJEZNS_8internal23InsertSyntheticTestCaseERKNSt7__cxx1112basic_stringIcSt11char_traitsIcESaIcEEENS1_12CodeLocationEbEUlvE_EEPNS_8TestInfoEPKcSF_SF_SF_SF_iT0_EN11FactoryImplD0Ev
0000000000049b8a t _ZZN7testing12RegisterTestIJEZNS_8internal23InsertSyntheticTestCaseERKNSt7__cxx1112basic_stringIcSt11char_traitsIcESaIcEEENS1_12CodeLocationEbEUlvE_EEPNS_8TestInfoEPKcSF_SF_SF_SF_iT0_EN11FactoryImplD1Ev
0000000000049b8a t _ZZN7testing12RegisterTestIJEZNS_8internal23InsertSyntheticTestCaseERKNSt7__cxx1112basic_stringIcSt11char_traitsIcESaIcEEENS1_12CodeLocationEbEUlvE_EEPNS_8TestInfoEPKcSF_SF_SF_SF_iT0_EN11FactoryImplD2Ev
00000000000466a8 t _ZZN7testing12RegisterTestIJEZNS_8internal34TypeParameterizedTestSuiteRegistry22CheckForInstantiationsEvEUlvE_EEPNS_8TestInfoEPKcS7_S7_S7_S7_iT0_EN11FactoryImpl10CreateTestEv
0000000000046638 t _ZZN7testing12RegisterTestIJEZNS_8internal34TypeParameterizedTestSuiteRegistry22CheckForInstantiationsEvEUlvE_EEPNS_8TestInfoEPKcS7_S7_S7_S7_iT0_EN11FactoryImplC1ES3_
0000000000046638 t _ZZN7testing12RegisterTestIJEZNS_8internal34TypeParameterizedTestSuiteRegistry22CheckForInstantiationsEvEUlvE_EEPNS_8TestInfoEPKcS7_S7_S7_S7_iT0_EN11FactoryImplC2ES3_
0000000000049b5a t _ZZN7testing12RegisterTestIJEZNS_8internal34TypeParameterizedTestSuiteRegistry22CheckForInstantiationsEvEUlvE_EEPNS_8TestInfoEPKcS7_S7_S7_S7_iT0_EN11FactoryImplD0Ev
0000000000049b1c t _ZZN7testing12RegisterTestIJEZNS_8internal34TypeParameterizedTestSuiteRegistry22CheckForInstantiationsEvEUlvE_EEPNS_8TestInfoEPKcS7_S7_S7_S7_iT0_EN11FactoryImplD1Ev
0000000000049b1c t _ZZN7testing12RegisterTestIJEZNS_8internal34TypeParameterizedTestSuiteRegistry22CheckForInstantiationsEvEUlvE_EEPNS_8TestInfoEPKcS7_S7_S7_S7_iT0_EN11FactoryImplD2Ev
0000000000119760 b _ZZN7testing8UnitTest11GetInstanceEvE8instance
00000000000a7380 u _ZZN7testing8internal11MatcherBaseINSt7__cxx1112basic_stringIcSt11char_traitsIcESaIcEEEE9GetVTableINS8_11ValuePolicyINS0_9EqMatcherIS7_EELb0EEEEEPKNS8_6VTableEvE7kVTable
00000000000a7360 u _ZZN7testing8internal11MatcherBaseIRKNSt7__cxx1112basic_stringIcSt11char_traitsIcESaIcEEEE9GetVTableINSA_11ValuePolicyINS0_9EqMatcherIS7_EELb0EEEEEPKNSA_6VTableEvE7kVTable
00000000000a73a0 u _ZZN7testing8internal11MatcherBaseIRKSt17basic_string_viewIcSt11char_traitsIcEEE9GetVTableINS8_11ValuePolicyINS0_9EqMatcherINSt7__cxx1112basic_stringIcS4_SaIcEEEEELb0EEEEEPKNS8_6VTableEvE7kVTable
00000000000a73c0 u _ZZN7testing8internal11MatcherBaseISt17basic_string_viewIcSt11char_traitsIcEEE9GetVTableINS6_11ValuePolicyINS0_9EqMatcherINSt7__cxx1112basic_stringIcS4_SaIcEEEEELb0EEEEEPKNS6_6VTableEvE7kVTable
000000000002998a t _ZZN7testing8internal12_GLOBAL__N_113IsGlobPatternERKNSt7__cxx1112basic_stringIcSt11char_traitsIcESaIcEEEENKUlcE_clEc
0000000000028172 t _ZZN7testing8internal23InsertSyntheticTestCaseERKNSt7__cxx1112basic_stringIcSt11char_traitsIcESaIcEEENS0_12CodeLocationEbENKUlvE_clEv
00000000000462f4 t _ZZN7testing8internal23InsertSyntheticTestCaseERKNSt7__cxx1112basic_stringIcSt11char_traitsIcESaIcEEENS0_12CodeLocationEbENUlvE_C1EOSA_
00000000000462f4 t _ZZN7testing8internal23InsertSyntheticTestCaseERKNSt7__cxx1112basic_stringIcSt11char_traitsIcESaIcEEENS0_12CodeLocationEbENUlvE_C2EOSA_
0000000000028234 t _ZZN7testing8internal23InsertSyntheticTestCaseERKNSt7__cxx1112basic_stringIcSt11char_traitsIcESaIcEEENS0_12CodeLocationEbENUlvE_D1Ev
0000000000028234 t _ZZN7testing8internal23InsertSyntheticTestCaseERKNSt7__cxx1112basic_stringIcSt11char_traitsIcESaIcEEENS0_12CodeLocationEbENUlvE_D2Ev
00000000000289f8 t _ZZN7testing8internal34TypeParameterizedTestSuiteRegistry22CheckForInstantiationsEvENKUlvE_clEv
00000000000465d2 t _ZZN7testing8internal34TypeParameterizedTestSuiteRegistry22CheckForInstantiationsEvENUlvE_C1EOS2_
00000000000465d2 t _ZZN7testing8internal34TypeParameterizedTestSuiteRegistry22CheckForInstantiationsEvENUlvE_C2EOS2_
0000000000028aba t _ZZN7testing8internal34TypeParameterizedTestSuiteRegistry22CheckForInstantiationsEvENUlvE_D1Ev
0000000000028aba t _ZZN7testing8internal34TypeParameterizedTestSuiteRegistry22CheckForInstantiationsEvENUlvE_D2Ev
0000000000119748 b _ZZN7testing8internalL13ColoredPrintfENS0_12_GLOBAL__N_110GTestColorEPKczE13in_color_mode
000000000011970a b _ZZN7testing8internalL23ExecDeathTestSpawnChildEPKPciE16stack_grows_down
0000000000031e98 t _ZZN7testing9TestSuite3RunEvENKUlPKNS_8TestInfoES3_E_clES3_S3_
0000000000029bae t _ZZNK7testing8internal12_GLOBAL__N_114UnitTestFilter11MatchesNameERKNSt7__cxx1112basic_stringIcSt11char_traitsIcESaIcEEEENKUlSA_E_clESA_
                 U _ZdaPv@GLIBCXX_3.4
000000000004a5d3 W _ZdlPvS_
                 U _ZdlPvm@CXXABI_1.3.9
                 U _Znam@GLIBCXX_3.4
                 U _Znwm@GLIBCXX_3.4
000000000004a5bd W _ZnwmPv
                 U _ZnwmRKSt9nothrow_t@GLIBCXX_3.4
000000000009f038 r __FRAME_END__
000000000007c918 r __GNU_EH_FRAME_HDR
00000000000a9030 D __TMC_END__
000000000000038c r __abi_tag
00000000000a9030 B __bss_start
                 U __cxa_allocate_exception@CXXABI_1.3
                 U __cxa_atexit@GLIBC_2.2.5
                 U __cxa_begin_catch@CXXABI_1.3
                 U __cxa_end_catch@CXXABI_1.3
                 w __cxa_finalize@GLIBC_2.2.5
                 U __cxa_free_exception@CXXABI_1.3
                 U __cxa_guard_abort@CXXABI_1.3
                 U __cxa_guard_acquire@CXXABI_1.3
                 U __cxa_guard_release@CXXABI_1.3
                 w __cxa_pure_virtual@CXXABI_1.3
                 U __cxa_rethrow@CXXABI_1.3
                 U __cxa_throw@CXXABI_1.3
                 U __cxa_throw_bad_array_new_length@CXXABI_1.3.8
00000000000a9000 D __data_start
000000000000cff0 t __do_global_dtors_aux
00000000000a4b78 d __do_global_dtors_aux_fini_array_entry
00000000000a9008 D __dso_handle
                 U __dynamic_cast@CXXABI_1.3
                 U __errno_location@GLIBC_2.2.5
00000000000a4b58 d __frame_dummy_init_array_entry
                 w __gmon_start__
                 U __gxx_personality_v0@CXXABI_1.3
                 U __isoc99_sscanf@GLIBC_2.7
                 U __libc_start_main@GLIBC_2.34
                 U __stack_chk_fail@GLIBC_2.4
00000000000a9030 D _edata
00000000001197b8 B _end
                 U _exit@GLIBC_2.2.5
0000000000075cb0 T _fini
000000000000b000 T _init
000000000000cf50 T _start
                 U abort@GLIBC_2.2.5
0000000000016906 T add_v3_3
0000000000016978 T add_v3_4
00000000000168af T add_v3_v3
0000000000017af8 T array_to_q
00000000000166e1 T array_to_v3
                 U asin@GLIBC_2.2.5
                 U atan2@GLIBC_2.2.5
                 U chdir@GLIBC_2.2.5
                 U clone@GLIBC_2.2.5
                 U close@GLIBC_2.2.5
000000000001881d T cnjg_q
00000000000aed40 B cold
00000000000a92d0 b completed.0
                 U connect@GLIBC_2.2.5
                 U cos@GLIBC_2.2.5
0000000000016b53 T crs_v3_v3
                 U cyaml_free
                 U cyaml_load_file
                 U cyaml_log
                 U cyaml_mem
                 U cyaml_strerror
00000000000a9000 W data_start
000000000001725c T dcm_to_euler321
0000000000018309 T dcm_to_q
000000000000cf80 t deregister_tm_clones
0000000000017446 T det_m33
00000000000177a1 T dot_m33_m33
0000000000016be0 T dot_m33_v3
0000000000016b03 T dot_v3_v3
0000000000018d28 T dq_dt
                 U dup2@GLIBC_2.2.5
                 U dup@GLIBC_2.2.5
0000000000016f5d T euler321_to_dcm
0000000000017d19 T euler321_to_q
00000000000b4540 B evld
                 U execv@GLIBC_2.2.5
                 U exit@GLIBC_2.2.5
                 U exp@GLIBC_2.29
0000000000016eca T eye_m33
                 U fclose@GLIBC_2.2.5
                 U fcntl@GLIBC_2.2.5
                 U fdopen@GLIBC_2.2.5
                 U fflush@GLIBC_2.2.5
                 U fileno@GLIBC_2.2.5
                 U fopen@GLIBC_2.2.5
                 U fork@GLIBC_2.2.5
                 U fprintf@GLIBC_2.2.5
                 U fputc@GLIBC_2.2.5
                 U fputs@GLIBC_2.2.5
000000000000d030 t frame_dummy
                 U fread@GLIBC_2.2.5
                 U freeaddrinfo@GLIBC_2.2.5
                 U fseek@GLIBC_2.2.5
                 U ftell@GLIBC_2.2.5
                 U fwrite@GLIBC_2.2.5
                 U gai_strerror@GLIBC_2.2.5
                 U getaddrinfo@GLIBC_2.2.5
                 U getcwd@GLIBC_2.2.5
                 U getenv@GLIBC_2.2.5
                 U getpagesize@GLIBC_2.2.5
                 U getpid@GLIBC_2.2.5
00000000000a92e0 B gp
00000000000a9380 B gs
000000000000d94f T guidance_core
000000000000d039 T guidance_init
000000000000d1f5 T guidance_main
0000000000016aac T hdm_v3_v3
0000000000113540 B init_vars
0000000000017502 T inv_m33
                 U isatty@GLIBC_2.2.5
                 U iscntrl@GLIBC_2.2.5
                 U isspace@GLIBC_2.2.5
                 U isxdigit@GLIBC_2.2.5
                 U localtime_r@GLIBC_2.2.5
0000000000075bdd T main
00000000000a9520 B mark_variable
                 U memcmp@GLIBC_2.2.5
                 U memcpy@GLIBC_2.14
                 U memmove@GLIBC_2.2.5
                 U memset@GLIBC_2.2.5
                 U mkdir@GLIBC_2.2.5
                 U mkstemp@GLIBC_2.2.5
                 U mmap@GLIBC_2.2.5
                 U munmap@GLIBC_2.2.5
                 U nextafter@GLIBC_2.2.5
0000000000017c28 T nmlz_q
00000000000167dc T nmlz_v3
0000000000017ba4 T norm_q
000000000001676a T norm_v3
0000000000016e14 T ones_m33
0000000000017a50 T ones_q
0000000000016651 T ones_v3
                 U perror@GLIBC_2.2.5
                 U pipe@GLIBC_2.2.5
0000000000016ca3 T print_m33
00000000000179ea T print_q
00000000000165bb T print_v3
                 U printf@GLIBC_2.2.5
                 U pthread_getspecific@GLIBC_2.34
                 U pthread_key_create@GLIBC_2.34
                 U pthread_key_delete@GLIBC_2.34
                 U pthread_mutex_destroy@GLIBC_2.2.5
                 U pthread_mutex_init@GLIBC_2.2.5
                 U pthread_mutex_lock@GLIBC_2.2.5
                 U pthread_mutex_unlock@GLIBC_2.2.5
                 U pthread_self@GLIBC_2.2.5
                 U pthread_setspecific@GLIBC_2.34
                 U putchar@GLIBC_2.2.5
                 U puts@GLIBC_2.2.5
0000000000017b55 T q_to_array
00000000000189d9 T q_to_dcm
00000000000181bb T q_to_euler321
0000000000018caa T qerr
000000000001888b T qpro
                 U read@GLIBC_2.2.5
                 U readlink@GLIBC_2.2.5
                 U regcomp@GLIBC_2.2.5
                 U regexec@GLIBC_2.3.4
                 U regfree@GLIBC_2.2.5
000000000000cfb0 t register_tm_clones
                 U remove@GLIBC_2.2.5
                 U rename@GLIBC_2.2.5
0000000000016a5c T scl_v3
                 U sigaction@GLIBC_2.2.5
                 U sigemptyset@GLIBC_2.2.5
                 U sin@GLIBC_2.2.5
                 U snprintf@GLIBC_2.2.5
                 U socket@GLIBC_2.2.5
0000000000117548 B solfp
                 U sprintf@GLIBC_2.2.5
                 U sqrt@GLIBC_2.2.5
                 U stat@GLIBC_2.33
0000000000117560 B std_log_out_temp_file_path
0000000000118560 B std_out_log_file_path
00000000000a91a0 B stderr@GLIBC_2.2.5
00000000000a9040 B stdout@GLIBC_2.2.5
                 U strcasecmp@GLIBC_2.2.5
                 U strchr@GLIBC_2.2.5
                 U strcmp@GLIBC_2.2.5
                 U strcpy@GLIBC_2.2.5
                 U strerror@GLIBC_2.2.5
                 U strlen@GLIBC_2.2.5
                 U strncmp@GLIBC_2.2.5
                 U strncpy@GLIBC_2.2.5
                 U strrchr@GLIBC_2.2.5
                 U strstr@GLIBC_2.2.5
                 U strtol@GLIBC_2.2.5
                 U strtoull@GLIBC_2.2.5
0000000000016a05 T sub_v3_v3
                 U tan@GLIBC_2.2.5
                 U toupper@GLIBC_2.2.5
00000000000173b6 T trns_m33
00000000000a9540 B tsld
0000000000117540 B tslfp
00000000000a9528 B uip
000000000001672c T v3_to_array
0000000000017a9a T val_to_q
0000000000016696 T val_to_v3
                 U vprintf@GLIBC_2.2.5
                 U vsprintf@GLIBC_2.2.5
                 U waitpid@GLIBC_2.2.5
                 U wcscasecmp@GLIBC_2.2.5
                 U wcscmp@GLIBC_2.2.5
                 U wcslen@GLIBC_2.2.5
                 U wcsstr@GLIBC_2.2.5
                 U write@GLIBC_2.2.5
0000000000016d5e T zeros_m33
0000000000016618 T zeros_v3
